
build/stm32-tbi.elf:     file format elf32-littlearm


Disassembly of section .isr_vector:

08000000 <isr_vectors>:
 8000000:	20005000 	andcs	r5, r0, r0
 8000004:	080004a5 	stmdaeq	r0, {r0, r2, r5, r7, sl}
 8000008:	08000401 	stmdaeq	r0, {r0, sl}
 800000c:	08000401 	stmdaeq	r0, {r0, sl}
 8000010:	08000401 	stmdaeq	r0, {r0, sl}
 8000014:	08000401 	stmdaeq	r0, {r0, sl}
 8000018:	08000401 	stmdaeq	r0, {r0, sl}
	...
 800002c:	08000401 	stmdaeq	r0, {r0, sl}
 8000030:	08000401 	stmdaeq	r0, {r0, sl}
 8000034:	00000000 	andeq	r0, r0, r0
 8000038:	08000401 	stmdaeq	r0, {r0, sl}
 800003c:	0800042d 	stmdaeq	r0, {r0, r2, r3, r5, sl}

08000040 <irq0>:
 8000040:	08000401 	stmdaeq	r0, {r0, sl}
 8000044:	08000401 	stmdaeq	r0, {r0, sl}
 8000048:	08000401 	stmdaeq	r0, {r0, sl}
 800004c:	08000401 	stmdaeq	r0, {r0, sl}
 8000050:	08000401 	stmdaeq	r0, {r0, sl}
 8000054:	08000401 	stmdaeq	r0, {r0, sl}
 8000058:	08000401 	stmdaeq	r0, {r0, sl}
 800005c:	08000401 	stmdaeq	r0, {r0, sl}
 8000060:	08000401 	stmdaeq	r0, {r0, sl}
 8000064:	08000401 	stmdaeq	r0, {r0, sl}
 8000068:	08000401 	stmdaeq	r0, {r0, sl}
 800006c:	08000401 	stmdaeq	r0, {r0, sl}
 8000070:	08000401 	stmdaeq	r0, {r0, sl}
 8000074:	08000401 	stmdaeq	r0, {r0, sl}
 8000078:	08000401 	stmdaeq	r0, {r0, sl}
 800007c:	08000401 	stmdaeq	r0, {r0, sl}
 8000080:	08000401 	stmdaeq	r0, {r0, sl}
 8000084:	08000401 	stmdaeq	r0, {r0, sl}
 8000088:	08000401 	stmdaeq	r0, {r0, sl}
 800008c:	08000401 	stmdaeq	r0, {r0, sl}
 8000090:	08000401 	stmdaeq	r0, {r0, sl}
 8000094:	08000401 	stmdaeq	r0, {r0, sl}
 8000098:	08000401 	stmdaeq	r0, {r0, sl}
 800009c:	08000401 	stmdaeq	r0, {r0, sl}
 80000a0:	08000401 	stmdaeq	r0, {r0, sl}
 80000a4:	08000401 	stmdaeq	r0, {r0, sl}
 80000a8:	08000401 	stmdaeq	r0, {r0, sl}
 80000ac:	08000401 	stmdaeq	r0, {r0, sl}
 80000b0:	08000401 	stmdaeq	r0, {r0, sl}
 80000b4:	08000401 	stmdaeq	r0, {r0, sl}
 80000b8:	08000401 	stmdaeq	r0, {r0, sl}
 80000bc:	08000401 	stmdaeq	r0, {r0, sl}
 80000c0:	08000401 	stmdaeq	r0, {r0, sl}
 80000c4:	08000401 	stmdaeq	r0, {r0, sl}
 80000c8:	08000401 	stmdaeq	r0, {r0, sl}
 80000cc:	08000401 	stmdaeq	r0, {r0, sl}
 80000d0:	08000401 	stmdaeq	r0, {r0, sl}
 80000d4:	08000441 	stmdaeq	r0, {r0, r6, sl}
 80000d8:	08000401 	stmdaeq	r0, {r0, sl}
 80000dc:	08000401 	stmdaeq	r0, {r0, sl}
 80000e0:	08000401 	stmdaeq	r0, {r0, sl}
 80000e4:	08000401 	stmdaeq	r0, {r0, sl}
 80000e8:	08000401 	stmdaeq	r0, {r0, sl}
 80000ec:	08000401 	stmdaeq	r0, {r0, sl}
 80000f0:	08000401 	stmdaeq	r0, {r0, sl}
 80000f4:	08000401 	stmdaeq	r0, {r0, sl}
 80000f8:	08000401 	stmdaeq	r0, {r0, sl}
 80000fc:	08000401 	stmdaeq	r0, {r0, sl}
 8000100:	08000401 	stmdaeq	r0, {r0, sl}
 8000104:	08000401 	stmdaeq	r0, {r0, sl}
 8000108:	08000401 	stmdaeq	r0, {r0, sl}
 800010c:	08000401 	stmdaeq	r0, {r0, sl}
 8000110:	08000401 	stmdaeq	r0, {r0, sl}
 8000114:	08000401 	stmdaeq	r0, {r0, sl}
 8000118:	08000401 	stmdaeq	r0, {r0, sl}
 800011c:	08000401 	stmdaeq	r0, {r0, sl}
 8000120:	08000401 	stmdaeq	r0, {r0, sl}
 8000124:	08000401 	stmdaeq	r0, {r0, sl}
 8000128:	08000401 	stmdaeq	r0, {r0, sl}
 800012c:	08000401 	stmdaeq	r0, {r0, sl}

08000130 <vectors_size>:
 8000130:	00000130 	andeq	r0, r0, r0, lsr r1

Disassembly of section .text:

08000400 <default_handler>:
 8000400:	48fb      	ldr	r0, [pc, #1004]	; (80007f0 <erase_error+0x10>)
 8000402:	b500      	push	{lr}
 8000404:	f000 fa2a 	bl	800085c <uart_puts>
 8000408:	f85d eb04 	ldr.w	lr, [sp], #4
 800040c:	f44f 4000 	mov.w	r0, #32768	; 0x8000
 8000410:	3801      	subs	r0, #1
 8000412:	d1fd      	bne.n	8000410 <default_handler+0x10>
 8000414:	e034      	b.n	8000480 <reset_mcu>
 8000416:	bf00      	nop

08000418 <exception_msg>:
 8000418:	6578650a 	ldrbvs	r6, [r8, #-1290]!	; 0xfffffaf6
 800041c:	6f697470 	svcvs	0x00697470
 8000420:	6572206e 	ldrbvs	r2, [r2, #-110]!	; 0xffffff92
 8000424:	746f6f62 	strbtvc	r6, [pc], #-3938	; 800042c <systick_handler>
 8000428:	00000a21 	andeq	r0, r0, r1, lsr #20

0800042c <systick_handler>:
 800042c:	69e0      	ldr	r0, [r4, #28]
 800042e:	f100 0001 	add.w	r0, r0, #1
 8000432:	61e0      	str	r0, [r4, #28]
 8000434:	6a20      	ldr	r0, [r4, #32]
 8000436:	b110      	cbz	r0, 800043e <systick_handler+0x12>
 8000438:	f1a0 0001 	sub.w	r0, r0, #1
 800043c:	6220      	str	r0, [r4, #32]
 800043e:	4770      	bx	lr

08000440 <uart_rx_handler>:
 8000440:	f44f 5060 	mov.w	r0, #14336	; 0x3800
 8000444:	f2c4 0001 	movt	r0, #16385	; 0x4001
 8000448:	6801      	ldr	r1, [r0, #0]
 800044a:	8882      	ldrh	r2, [r0, #4]
 800044c:	f011 0f20 	tst.w	r1, #32
 8000450:	d00b      	beq.n	800046a <uart_rx_handler+0x2a>
 8000452:	2a03      	cmp	r2, #3
 8000454:	f000 800a 	beq.w	800046c <user_reboot>
 8000458:	f104 0050 	add.w	r0, r4, #80	; 0x50
 800045c:	6ce1      	ldr	r1, [r4, #76]	; 0x4c
 800045e:	5442      	strb	r2, [r0, r1]
 8000460:	f101 0101 	add.w	r1, r1, #1
 8000464:	f001 010f 	and.w	r1, r1, #15
 8000468:	64e1      	str	r1, [r4, #76]	; 0x4c
 800046a:	4770      	bx	lr

0800046c <user_reboot>:
 800046c:	48e1      	ldr	r0, [pc, #900]	; (80007f4 <erase_error+0x14>)
 800046e:	b500      	push	{lr}
 8000470:	f000 f9f4 	bl	800085c <uart_puts>
 8000474:	f85d eb04 	ldr.w	lr, [sp], #4
 8000478:	f44f 4000 	mov.w	r0, #32768	; 0x8000
 800047c:	3801      	subs	r0, #1
 800047e:	d1fd      	bne.n	800047c <user_reboot+0x10>

08000480 <reset_mcu>:
 8000480:	4803      	ldr	r0, [pc, #12]	; (8000490 <scb_adr>)
 8000482:	68c1      	ldr	r1, [r0, #12]
 8000484:	f041 0104 	orr.w	r1, r1, #4
 8000488:	f2c0 51fa 	movt	r1, #1530	; 0x5fa
 800048c:	60c1      	str	r1, [r0, #12]
 800048e:	e7fe      	b.n	800048e <reset_mcu+0xe>

08000490 <scb_adr>:
 8000490:	e000ed00 	and	lr, r0, r0, lsl #26

08000494 <user_reboot_msg>:
 8000494:	6573750a 	ldrbvs	r7, [r3, #-1290]!	; 0xfffffaf6
 8000498:	65722072 	ldrbvs	r2, [r2, #-114]!	; 0xffffff8e
 800049c:	746f6f62 	strbtvc	r6, [pc], #-3938	; 80004a4 <reset_handler>
 80004a0:	00000a21 	andeq	r0, r0, r1, lsr #20

080004a4 <reset_handler>:
 80004a4:	f44f 40a0 	mov.w	r0, #20480	; 0x5000
 80004a8:	f2c2 0000 	movt	r0, #8192	; 0x2000
 80004ac:	4685      	mov	sp, r0
 80004ae:	f000 f82f 	bl	8000510 <remap>
 80004b2:	f000 f845 	bl	8000540 <init_devices>
 80004b6:	f000 f893 	bl	80005e0 <uart_init>
 80004ba:	f001 fa3a 	bl	8001932 <cold_start>
 80004be:	f000 f801 	bl	80004c4 <test>
 80004c2:	e7fe      	b.n	80004c2 <reset_handler+0x1e>

080004c4 <test>:
 80004c4:	f04f 0400 	mov.w	r4, #0
 80004c8:	f2c2 0400 	movt	r4, #8192	; 0x2000
 80004cc:	f504 7498 	add.w	r4, r4, #304	; 0x130
 80004d0:	b500      	push	{lr}
 80004d2:	f000 fcb9 	bl	8000e48 <get_curpos>
 80004d6:	f85d eb04 	ldr.w	lr, [sp], #4
 80004da:	b402      	push	{r1}
 80004dc:	f04f 010a 	mov.w	r1, #10
 80004e0:	b500      	push	{lr}
 80004e2:	f000 fa17 	bl	8000914 <print_int>
 80004e6:	f85d eb04 	ldr.w	lr, [sp], #4
 80004ea:	f04f 002c 	mov.w	r0, #44	; 0x2c
 80004ee:	b500      	push	{lr}
 80004f0:	f000 f8a4 	bl	800063c <uart_putc>
 80004f4:	f85d eb04 	ldr.w	lr, [sp], #4
 80004f8:	bc01      	pop	{r0}
 80004fa:	f04f 010a 	mov.w	r1, #10
 80004fe:	b500      	push	{lr}
 8000500:	f000 fa08 	bl	8000914 <print_int>
 8000504:	f85d eb04 	ldr.w	lr, [sp], #4
 8000508:	4770      	bx	lr

0800050a <tib_addr>:
 800050a:	20004e30 	andcs	r4, r0, r0, lsr lr
 800050e:	bf00      	nop

08000510 <remap>:
 8000510:	ea80 0000 	eor.w	r0, r0, r0
 8000514:	f04f 0100 	mov.w	r1, #0
 8000518:	f2c2 0100 	movt	r1, #8192	; 0x2000
 800051c:	f44f 7298 	mov.w	r2, #304	; 0x130
 8000520:	b500      	push	{lr}
 8000522:	f000 fced 	bl	8000f00 <cmove>
 8000526:	f85d eb04 	ldr.w	lr, [sp], #4
 800052a:	f44f 406d 	mov.w	r0, #60672	; 0xed00
 800052e:	f2ce 0000 	movt	r0, #57344	; 0xe000
 8000532:	f04f 0100 	mov.w	r1, #0
 8000536:	f2c2 0100 	movt	r1, #8192	; 0x2000
 800053a:	6081      	str	r1, [r0, #8]
 800053c:	4770      	bx	lr
 800053e:	bf00      	nop

08000540 <init_devices>:
 8000540:	f44f 5000 	mov.w	r0, #8192	; 0x2000
 8000544:	f2c4 0002 	movt	r0, #16386	; 0x4002
 8000548:	f04f 0212 	mov.w	r2, #18
 800054c:	6002      	str	r2, [r0, #0]
 800054e:	f44f 5080 	mov.w	r0, #4096	; 0x1000
 8000552:	f2c4 0002 	movt	r0, #16386	; 0x4002
 8000556:	6801      	ldr	r1, [r0, #0]
 8000558:	f441 3180 	orr.w	r1, r1, #65536	; 0x10000
 800055c:	6001      	str	r1, [r0, #0]

0800055e <wait_hserdy>:
 800055e:	6801      	ldr	r1, [r0, #0]
 8000560:	f411 3f00 	tst.w	r1, #131072	; 0x20000
 8000564:	d0fb      	beq.n	800055e <wait_hserdy>
 8000566:	f44f 6180 	mov.w	r1, #1024	; 0x400
 800056a:	f2c0 011d 	movt	r1, #29
 800056e:	6041      	str	r1, [r0, #4]
 8000570:	6801      	ldr	r1, [r0, #0]
 8000572:	f041 7180 	orr.w	r1, r1, #16777216	; 0x1000000
 8000576:	6001      	str	r1, [r0, #0]

08000578 <wait_pllrdy>:
 8000578:	6801      	ldr	r1, [r0, #0]
 800057a:	f011 7f00 	tst.w	r1, #33554432	; 0x2000000
 800057e:	d0fb      	beq.n	8000578 <wait_pllrdy>
 8000580:	6841      	ldr	r1, [r0, #4]
 8000582:	f64f 72fc 	movw	r2, #65532	; 0xfffc
 8000586:	f6cf 72ff 	movt	r2, #65535	; 0xffff
 800058a:	ea01 0102 	and.w	r1, r1, r2
 800058e:	f04f 0202 	mov.w	r2, #2
 8000592:	ea41 0102 	orr.w	r1, r1, r2
 8000596:	6041      	str	r1, [r0, #4]

08000598 <wait_sws>:
 8000598:	6841      	ldr	r1, [r0, #4]
 800059a:	f011 0f08 	tst.w	r1, #8
 800059e:	d0fb      	beq.n	8000598 <wait_sws>
 80005a0:	f44f 5080 	mov.w	r0, #4096	; 0x1000
 80005a4:	f2c4 0002 	movt	r0, #16386	; 0x4002
 80005a8:	f244 0114 	movw	r1, #16404	; 0x4014
 80005ac:	6181      	str	r1, [r0, #24]
 80005ae:	f44f 5080 	mov.w	r0, #4096	; 0x1000
 80005b2:	f2c4 0001 	movt	r0, #16385	; 0x4001
 80005b6:	6841      	ldr	r1, [r0, #4]
 80005b8:	f46f 0270 	mvn.w	r2, #15728640	; 0xf00000
 80005bc:	ea01 0102 	and.w	r1, r1, r2
 80005c0:	f44f 02c0 	mov.w	r2, #6291456	; 0x600000
 80005c4:	ea41 0102 	orr.w	r1, r1, r2
 80005c8:	6041      	str	r1, [r0, #4]
 80005ca:	f24e 0010 	movw	r0, #57360	; 0xe010
 80005ce:	f2ce 0000 	movt	r0, #57344	; 0xe000
 80005d2:	f242 3128 	movw	r1, #9000	; 0x2328
 80005d6:	6041      	str	r1, [r0, #4]
 80005d8:	f04f 0103 	mov.w	r1, #3
 80005dc:	6001      	str	r1, [r0, #0]
 80005de:	4770      	bx	lr

080005e0 <uart_init>:
 80005e0:	f44f 6000 	mov.w	r0, #2048	; 0x800
 80005e4:	f2c4 0001 	movt	r0, #16385	; 0x4001
 80005e8:	6841      	ldr	r1, [r0, #4]
 80005ea:	f06f 02f0 	mvn.w	r2, #240	; 0xf0
 80005ee:	ea01 0102 	and.w	r1, r1, r2
 80005f2:	f04f 02a0 	mov.w	r2, #160	; 0xa0
 80005f6:	ea41 0102 	orr.w	r1, r1, r2
 80005fa:	6041      	str	r1, [r0, #4]
 80005fc:	f44f 5060 	mov.w	r0, #14336	; 0x3800
 8000600:	f2c4 0001 	movt	r0, #16385	; 0x4001
 8000604:	f240 2171 	movw	r1, #625	; 0x271
 8000608:	6081      	str	r1, [r0, #8]
 800060a:	f242 012c 	movw	r1, #8236	; 0x202c
 800060e:	60c1      	str	r1, [r0, #12]
 8000610:	f44f 4061 	mov.w	r0, #57600	; 0xe100
 8000614:	f2ce 0000 	movt	r0, #57344	; 0xe000
 8000618:	6841      	ldr	r1, [r0, #4]
 800061a:	f041 0120 	orr.w	r1, r1, #32
 800061e:	6041      	str	r1, [r0, #4]
 8000620:	4770      	bx	lr
 8000622:	bf00      	nop

08000624 <uart_flush_queue>:
 8000624:	f84d 8d04 	str.w	r8, [sp, #-4]!
 8000628:	ea88 0808 	eor.w	r8, r8, r8
 800062c:	f8c4 8048 	str.w	r8, [r4, #72]	; 0x48
 8000630:	f8c4 804c 	str.w	r8, [r4, #76]	; 0x4c
 8000634:	f85d 8b04 	ldr.w	r8, [sp], #4
 8000638:	4770      	bx	lr
 800063a:	bf00      	nop

0800063c <uart_putc>:
 800063c:	e92d 0300 	stmdb	sp!, {r8, r9}
 8000640:	f44f 5960 	mov.w	r9, #14336	; 0x3800
 8000644:	f2c4 0901 	movt	r9, #16385	; 0x4001
 8000648:	f8d9 8000 	ldr.w	r8, [r9]
 800064c:	f018 0880 	ands.w	r8, r8, #128	; 0x80
 8000650:	d0fa      	beq.n	8000648 <uart_putc+0xc>
 8000652:	f889 0004 	strb.w	r0, [r9, #4]
 8000656:	e8bd 0300 	ldmia.w	sp!, {r8, r9}
 800065a:	4770      	bx	lr

0800065c <uart_qkey>:
 800065c:	b402      	push	{r1}
 800065e:	6ca0      	ldr	r0, [r4, #72]	; 0x48
 8000660:	6ce1      	ldr	r1, [r4, #76]	; 0x4c
 8000662:	4048      	eors	r0, r1
 8000664:	bc02      	pop	{r1}
 8000666:	4770      	bx	lr

08000668 <uart_getc>:
 8000668:	e92d 0300 	stmdb	sp!, {r8, r9}
 800066c:	b500      	push	{lr}
 800066e:	f7ff fff5 	bl	800065c <uart_qkey>
 8000672:	f85d eb04 	ldr.w	lr, [sp], #4
 8000676:	d0f9      	beq.n	800066c <uart_getc+0x4>
 8000678:	f104 0850 	add.w	r8, r4, #80	; 0x50
 800067c:	f8d4 9048 	ldr.w	r9, [r4, #72]	; 0x48
 8000680:	f818 0009 	ldrb.w	r0, [r8, r9]
 8000684:	f109 0901 	add.w	r9, r9, #1
 8000688:	f009 090f 	and.w	r9, r9, #15
 800068c:	f8c4 9048 	str.w	r9, [r4, #72]	; 0x48
 8000690:	e8bd 0300 	ldmia.w	sp!, {r8, r9}
 8000694:	4770      	bx	lr
 8000696:	bf00      	nop

08000698 <unlock>:
 8000698:	b440      	push	{r6}
 800069a:	4000      	ands	r0, r0
 800069c:	d015      	beq.n	80006ca <lock>
 800069e:	f44f 5000 	mov.w	r0, #8192	; 0x2000
 80006a2:	f2c4 0002 	movt	r0, #16386	; 0x4002
 80006a6:	f04f 0634 	mov.w	r6, #52	; 0x34
 80006aa:	60c6      	str	r6, [r0, #12]
 80006ac:	6906      	ldr	r6, [r0, #16]
 80006ae:	f016 0f80 	tst.w	r6, #128	; 0x80
 80006b2:	d011      	beq.n	80006d8 <lock+0xe>
 80006b4:	f240 1623 	movw	r6, #291	; 0x123
 80006b8:	f2c4 5667 	movt	r6, #17767	; 0x4567
 80006bc:	6046      	str	r6, [r0, #4]
 80006be:	f648 16ab 	movw	r6, #35243	; 0x89ab
 80006c2:	f6cc 56ef 	movt	r6, #52719	; 0xcdef
 80006c6:	6046      	str	r6, [r0, #4]
 80006c8:	e006      	b.n	80006d8 <lock+0xe>

080006ca <lock>:
 80006ca:	f44f 5000 	mov.w	r0, #8192	; 0x2000
 80006ce:	f2c4 0002 	movt	r0, #16386	; 0x4002
 80006d2:	f04f 0680 	mov.w	r6, #128	; 0x80
 80006d6:	6106      	str	r6, [r0, #16]
 80006d8:	bc40      	pop	{r6}
 80006da:	4770      	bx	lr

080006dc <wait_busy>:
 80006dc:	b403      	push	{r0, r1}
 80006de:	f44f 5000 	mov.w	r0, #8192	; 0x2000
 80006e2:	f2c4 0002 	movt	r0, #16386	; 0x4002
 80006e6:	68c1      	ldr	r1, [r0, #12]
 80006e8:	f011 0101 	ands.w	r1, r1, #1
 80006ec:	d1fb      	bne.n	80006e6 <wait_busy+0xa>
 80006ee:	bc03      	pop	{r0, r1}
 80006f0:	4770      	bx	lr
 80006f2:	bf00      	nop

080006f4 <hword_write>:
 80006f4:	b4c0      	push	{r6, r7}
 80006f6:	f44f 5600 	mov.w	r6, #8192	; 0x2000
 80006fa:	f2c4 0602 	movt	r6, #16386	; 0x4002
 80006fe:	f04f 0701 	mov.w	r7, #1
 8000702:	6137      	str	r7, [r6, #16]
 8000704:	8008      	strh	r0, [r1, #0]
 8000706:	b500      	push	{lr}
 8000708:	f7ff ffe8 	bl	80006dc <wait_busy>
 800070c:	f85d eb04 	ldr.w	lr, [sp], #4
 8000710:	68f7      	ldr	r7, [r6, #12]
 8000712:	f017 0714 	ands.w	r7, r7, #20
 8000716:	d005      	beq.n	8000724 <hword_write+0x30>
 8000718:	4837      	ldr	r0, [pc, #220]	; (80007f8 <erase_error+0x18>)
 800071a:	b500      	push	{lr}
 800071c:	f000 f89e 	bl	800085c <uart_puts>
 8000720:	f85d eb04 	ldr.w	lr, [sp], #4
 8000724:	bcc0      	pop	{r6, r7}
 8000726:	4770      	bx	lr

08000728 <write_error>:
 8000728:	69727720 	ldmdbvs	r2!, {r5, r8, r9, sl, ip, sp, lr}^
 800072c:	65206574 	strvs	r6, [r0, #-1396]!	; 0xfffffa8c
 8000730:	726f7272 	rsbvc	r7, pc, #536870919	; 0x20000007
 8000734:	bf000021 	svclt	0x00000021

08000738 <flash_store>:
 8000738:	e92d 0300 	stmdb	sp!, {r8, r9}
 800073c:	4680      	mov	r8, r0
 800073e:	4689      	mov	r9, r1
 8000740:	f04f 0001 	mov.w	r0, #1
 8000744:	b500      	push	{lr}
 8000746:	f7ff ffa7 	bl	8000698 <unlock>
 800074a:	f85d eb04 	ldr.w	lr, [sp], #4
 800074e:	4640      	mov	r0, r8
 8000750:	4649      	mov	r1, r9
 8000752:	b500      	push	{lr}
 8000754:	f7ff ffce 	bl	80006f4 <hword_write>
 8000758:	f85d eb04 	ldr.w	lr, [sp], #4
 800075c:	ea4f 4018 	mov.w	r0, r8, lsr #16
 8000760:	f109 0102 	add.w	r1, r9, #2
 8000764:	b500      	push	{lr}
 8000766:	f7ff ffc5 	bl	80006f4 <hword_write>
 800076a:	f85d eb04 	ldr.w	lr, [sp], #4
 800076e:	ea80 0000 	eor.w	r0, r0, r0
 8000772:	b500      	push	{lr}
 8000774:	f7ff ff90 	bl	8000698 <unlock>
 8000778:	f85d eb04 	ldr.w	lr, [sp], #4
 800077c:	e8bd 0300 	ldmia.w	sp!, {r8, r9}
 8000780:	4770      	bx	lr
 8000782:	bf00      	nop

08000784 <erase_page>:
 8000784:	e92d 0300 	stmdb	sp!, {r8, r9}
 8000788:	4680      	mov	r8, r0
 800078a:	f04f 0001 	mov.w	r0, #1
 800078e:	b500      	push	{lr}
 8000790:	f7ff ff82 	bl	8000698 <unlock>
 8000794:	f85d eb04 	ldr.w	lr, [sp], #4
 8000798:	f44f 5000 	mov.w	r0, #8192	; 0x2000
 800079c:	f2c4 0002 	movt	r0, #16386	; 0x4002
 80007a0:	f04f 0902 	mov.w	r9, #2
 80007a4:	f8c0 9010 	str.w	r9, [r0, #16]
 80007a8:	f8c0 8014 	str.w	r8, [r0, #20]
 80007ac:	f049 0940 	orr.w	r9, r9, #64	; 0x40
 80007b0:	f8c0 9010 	str.w	r9, [r0, #16]
 80007b4:	f8d0 900c 	ldr.w	r9, [r0, #12]
 80007b8:	f019 0914 	ands.w	r9, r9, #20
 80007bc:	d006      	beq.n	80007cc <erase_page+0x48>
 80007be:	f8df 0020 	ldr.w	r0, [pc, #32]	; 80007e0 <erase_error>
 80007c2:	b500      	push	{lr}
 80007c4:	f000 f84a 	bl	800085c <uart_puts>
 80007c8:	f85d eb04 	ldr.w	lr, [sp], #4
 80007cc:	ea80 0000 	eor.w	r0, r0, r0
 80007d0:	b500      	push	{lr}
 80007d2:	f7ff ff61 	bl	8000698 <unlock>
 80007d6:	f85d eb04 	ldr.w	lr, [sp], #4
 80007da:	e8bd 0300 	ldmia.w	sp!, {r8, r9}
 80007de:	4770      	bx	lr

080007e0 <erase_error>:
 80007e0:	61726520 	cmnvs	r2, r0, lsr #10
 80007e4:	65206573 	strvs	r6, [r0, #-1395]!	; 0xfffffa8d
 80007e8:	726f7272 	rsbvc	r7, pc, #536870919	; 0x20000007
 80007ec:	00000d21 	andeq	r0, r0, r1, lsr #26
 80007f0:	08000418 	stmdaeq	r0, {r3, r4, sl}
 80007f4:	08000494 	stmdaeq	r0, {r2, r4, r7, sl}
 80007f8:	08000728 	stmdaeq	r0, {r3, r5, r8, r9, sl}

080007fc <get_escape>:
 80007fc:	b404      	push	{r2}
 80007fe:	b500      	push	{lr}
 8000800:	f7ff ff32 	bl	8000668 <uart_getc>
 8000804:	f85d eb04 	ldr.w	lr, [sp], #4
 8000808:	285b      	cmp	r0, #91	; 0x5b
 800080a:	d003      	beq.n	8000814 <get_escape+0x18>
 800080c:	ea80 0000 	eor.w	r0, r0, r0
 8000810:	bc04      	pop	{r2}
 8000812:	4770      	bx	lr
 8000814:	b500      	push	{lr}
 8000816:	f7ff ff27 	bl	8000668 <uart_getc>
 800081a:	f85d eb04 	ldr.w	lr, [sp], #4
 800081e:	f8df 26c4 	ldr.w	r2, [pc, #1732]	; 8000ee4 <tabulation+0x30>
 8000822:	7811      	ldrb	r1, [r2, #0]
 8000824:	4009      	ands	r1, r1
 8000826:	d0f1      	beq.n	800080c <get_escape+0x10>
 8000828:	4288      	cmp	r0, r1
 800082a:	d002      	beq.n	8000832 <get_escape+0x36>
 800082c:	f102 0202 	add.w	r2, r2, #2
 8000830:	e7f7      	b.n	8000822 <get_escape+0x26>
 8000832:	f102 0201 	add.w	r2, r2, #1
 8000836:	7810      	ldrb	r0, [r2, #0]
 8000838:	f1b0 0f84 	cmp.w	r0, #132	; 0x84
 800083c:	d106      	bne.n	800084c <get_escape+0x50>
 800083e:	b401      	push	{r0}
 8000840:	b500      	push	{lr}
 8000842:	f7ff ff11 	bl	8000668 <uart_getc>
 8000846:	f85d eb04 	ldr.w	lr, [sp], #4
 800084a:	bc01      	pop	{r0}
 800084c:	bc04      	pop	{r2}
 800084e:	4770      	bx	lr

08000850 <convert_table>:
 8000850:	80448143 	subhi	r8, r4, r3, asr #2
 8000854:	83468248 	movthi	r8, #25160	; 0x6248
 8000858:	00008433 	andeq	r8, r0, r3, lsr r4

0800085c <uart_puts>:
 800085c:	f84d 8d04 	str.w	r8, [sp, #-4]!
 8000860:	4680      	mov	r8, r0
 8000862:	f818 0b01 	ldrb.w	r0, [r8], #1
 8000866:	b128      	cbz	r0, 8000874 <uart_puts+0x18>
 8000868:	b500      	push	{lr}
 800086a:	f7ff fee7 	bl	800063c <uart_putc>
 800086e:	f85d eb04 	ldr.w	lr, [sp], #4
 8000872:	e7f6      	b.n	8000862 <uart_puts+0x6>
 8000874:	f85d 8b04 	ldr.w	r8, [sp], #4
 8000878:	4770      	bx	lr
 800087a:	bf00      	nop

0800087c <digit>:
 800087c:	f84d 8d04 	str.w	r8, [sp, #-4]!
 8000880:	b401      	push	{r0}
 8000882:	4688      	mov	r8, r1
 8000884:	fbb0 f0f8 	udiv	r0, r0, r8
 8000888:	4601      	mov	r1, r0
 800088a:	fb08 f000 	mul.w	r0, r8, r0
 800088e:	f85d 8b04 	ldr.w	r8, [sp], #4
 8000892:	eba8 0000 	sub.w	r0, r8, r0
 8000896:	280a      	cmp	r0, #10
 8000898:	d401      	bmi.n	800089e <digit+0x22>
 800089a:	f100 0007 	add.w	r0, r0, #7
 800089e:	f100 0030 	add.w	r0, r0, #48	; 0x30
 80008a2:	f85d 8b04 	ldr.w	r8, [sp], #4
 80008a6:	4770      	bx	lr

080008a8 <itoa>:
 80008a8:	e92d 0380 	stmdb	sp!, {r7, r8, r9}
 80008ac:	4607      	mov	r7, r0
 80008ae:	4688      	mov	r8, r1
 80008b0:	f8df 905a 	ldr.w	r9, [pc, #90]	; 800090e <pad>
 80008b4:	f109 0980 	add.w	r9, r9, #128	; 0x80
 80008b8:	ea80 0000 	eor.w	r0, r0, r0
 80008bc:	f809 0d01 	strb.w	r0, [r9, #-1]!
 80008c0:	f100 0020 	add.w	r0, r0, #32
 80008c4:	f809 0d01 	strb.w	r0, [r9, #-1]!
 80008c8:	ea80 0000 	eor.w	r0, r0, r0
 80008cc:	f1b8 0f0a 	cmp.w	r8, #10
 80008d0:	d104      	bne.n	80008dc <itoa+0x34>
 80008d2:	f017 4000 	ands.w	r0, r7, #2147483648	; 0x80000000
 80008d6:	d001      	beq.n	80008dc <itoa+0x34>
 80008d8:	f1c7 0700 	rsb	r7, r7, #0
 80008dc:	b401      	push	{r0}
 80008de:	4638      	mov	r0, r7
 80008e0:	4641      	mov	r1, r8
 80008e2:	b500      	push	{lr}
 80008e4:	f7ff ffca 	bl	800087c <digit>
 80008e8:	f85d eb04 	ldr.w	lr, [sp], #4
 80008ec:	f809 0d01 	strb.w	r0, [r9, #-1]!
 80008f0:	4009      	ands	r1, r1
 80008f2:	d001      	beq.n	80008f8 <itoa+0x50>
 80008f4:	460f      	mov	r7, r1
 80008f6:	e7f2      	b.n	80008de <itoa+0x36>
 80008f8:	bc01      	pop	{r0}
 80008fa:	4000      	ands	r0, r0
 80008fc:	d003      	beq.n	8000906 <itoa+0x5e>
 80008fe:	f04f 002d 	mov.w	r0, #45	; 0x2d
 8000902:	f809 0d01 	strb.w	r0, [r9, #-1]!
 8000906:	4648      	mov	r0, r9
 8000908:	e8bd 0380 	ldmia.w	sp!, {r7, r8, r9}
 800090c:	4770      	bx	lr

0800090e <pad>:
 800090e:	20004db0 			; <UNDEFINED> instruction: 0x20004db0
 8000912:	bf00      	nop

08000914 <print_int>:
 8000914:	b500      	push	{lr}
 8000916:	f7ff ffc7 	bl	80008a8 <itoa>
 800091a:	f85d eb04 	ldr.w	lr, [sp], #4
 800091e:	b500      	push	{lr}
 8000920:	f7ff ff9c 	bl	800085c <uart_puts>
 8000924:	f85d eb04 	ldr.w	lr, [sp], #4
 8000928:	4770      	bx	lr
 800092a:	bf00      	nop

0800092c <print_hex>:
 800092c:	b401      	push	{r0}
 800092e:	ea4f 1010 	mov.w	r0, r0, lsr #4
 8000932:	b500      	push	{lr}
 8000934:	f000 f81a 	bl	800096c <digit_to_char>
 8000938:	f85d eb04 	ldr.w	lr, [sp], #4
 800093c:	b500      	push	{lr}
 800093e:	f7ff fe7d 	bl	800063c <uart_putc>
 8000942:	f85d eb04 	ldr.w	lr, [sp], #4
 8000946:	bc01      	pop	{r0}
 8000948:	b500      	push	{lr}
 800094a:	f000 f80f 	bl	800096c <digit_to_char>
 800094e:	f85d eb04 	ldr.w	lr, [sp], #4
 8000952:	b500      	push	{lr}
 8000954:	f7ff fe72 	bl	800063c <uart_putc>
 8000958:	f85d eb04 	ldr.w	lr, [sp], #4
 800095c:	f04f 0020 	mov.w	r0, #32
 8000960:	b500      	push	{lr}
 8000962:	f7ff fe6b 	bl	800063c <uart_putc>
 8000966:	f85d eb04 	ldr.w	lr, [sp], #4
 800096a:	4770      	bx	lr

0800096c <digit_to_char>:
 800096c:	f000 000f 	and.w	r0, r0, #15
 8000970:	280a      	cmp	r0, #10
 8000972:	d401      	bmi.n	8000978 <digit_to_char+0xc>
 8000974:	f100 0007 	add.w	r0, r0, #7
 8000978:	f100 0030 	add.w	r0, r0, #48	; 0x30
 800097c:	4770      	bx	lr
 800097e:	bf00      	nop

08000980 <cursor_shape>:
 8000980:	f84d 8d04 	str.w	r8, [sp, #-4]!
 8000984:	b500      	push	{lr}
 8000986:	f000 f83b 	bl	8000a00 <send_escape>
 800098a:	f85d eb04 	ldr.w	lr, [sp], #4
 800098e:	b500      	push	{lr}
 8000990:	f000 f848 	bl	8000a24 <send_parameter>
 8000994:	f85d eb04 	ldr.w	lr, [sp], #4
 8000998:	f04f 0020 	mov.w	r0, #32
 800099c:	b500      	push	{lr}
 800099e:	f7ff fe4d 	bl	800063c <uart_putc>
 80009a2:	f85d eb04 	ldr.w	lr, [sp], #4
 80009a6:	f04f 0071 	mov.w	r0, #113	; 0x71
 80009aa:	b500      	push	{lr}
 80009ac:	f7ff fe46 	bl	800063c <uart_putc>
 80009b0:	f85d eb04 	ldr.w	lr, [sp], #4
 80009b4:	f85d 8b04 	ldr.w	r8, [sp], #4
 80009b8:	4770      	bx	lr
 80009ba:	bf00      	nop

080009bc <bksp>:
 80009bc:	f04f 0008 	mov.w	r0, #8
 80009c0:	b500      	push	{lr}
 80009c2:	f7ff fe3b 	bl	800063c <uart_putc>
 80009c6:	f85d eb04 	ldr.w	lr, [sp], #4
 80009ca:	f04f 0020 	mov.w	r0, #32
 80009ce:	b500      	push	{lr}
 80009d0:	f7ff fe34 	bl	800063c <uart_putc>
 80009d4:	f85d eb04 	ldr.w	lr, [sp], #4
 80009d8:	f04f 0008 	mov.w	r0, #8
 80009dc:	b500      	push	{lr}
 80009de:	f7ff fe2d 	bl	800063c <uart_putc>
 80009e2:	f85d eb04 	ldr.w	lr, [sp], #4
 80009e6:	4770      	bx	lr

080009e8 <delete_nchar>:
 80009e8:	b148      	cbz	r0, 80009fe <delete_nchar+0x16>
 80009ea:	b404      	push	{r2}
 80009ec:	4602      	mov	r2, r0
 80009ee:	b500      	push	{lr}
 80009f0:	f7ff ffe4 	bl	80009bc <bksp>
 80009f4:	f85d eb04 	ldr.w	lr, [sp], #4
 80009f8:	3a01      	subs	r2, #1
 80009fa:	d1f8      	bne.n	80009ee <delete_nchar+0x6>
 80009fc:	bc04      	pop	{r2}
 80009fe:	4770      	bx	lr

08000a00 <send_escape>:
 8000a00:	b401      	push	{r0}
 8000a02:	f04f 001b 	mov.w	r0, #27
 8000a06:	b500      	push	{lr}
 8000a08:	f7ff fe18 	bl	800063c <uart_putc>
 8000a0c:	f85d eb04 	ldr.w	lr, [sp], #4
 8000a10:	f04f 005b 	mov.w	r0, #91	; 0x5b
 8000a14:	b500      	push	{lr}
 8000a16:	f7ff fe11 	bl	800063c <uart_putc>
 8000a1a:	f85d eb04 	ldr.w	lr, [sp], #4
 8000a1e:	bc01      	pop	{r0}
 8000a20:	4770      	bx	lr
 8000a22:	bf00      	nop

08000a24 <send_parameter>:
 8000a24:	f84d 8d04 	str.w	r8, [sp, #-4]!
 8000a28:	f04f 0800 	mov.w	r8, #0
 8000a2c:	f04f 010a 	mov.w	r1, #10
 8000a30:	b500      	push	{lr}
 8000a32:	f7ff ff23 	bl	800087c <digit>
 8000a36:	f85d eb04 	ldr.w	lr, [sp], #4
 8000a3a:	f108 0801 	add.w	r8, r8, #1
 8000a3e:	b401      	push	{r0}
 8000a40:	4608      	mov	r0, r1
 8000a42:	4000      	ands	r0, r0
 8000a44:	d1f2      	bne.n	8000a2c <send_parameter+0x8>
 8000a46:	bc01      	pop	{r0}
 8000a48:	b500      	push	{lr}
 8000a4a:	f7ff fdf7 	bl	800063c <uart_putc>
 8000a4e:	f85d eb04 	ldr.w	lr, [sp], #4
 8000a52:	f1b8 0801 	subs.w	r8, r8, #1
 8000a56:	d1f6      	bne.n	8000a46 <send_parameter+0x22>
 8000a58:	f85d 8b04 	ldr.w	r8, [sp], #4
 8000a5c:	4770      	bx	lr
 8000a5e:	bf00      	nop

08000a60 <move_left>:
 8000a60:	b500      	push	{lr}
 8000a62:	f7ff ffcd 	bl	8000a00 <send_escape>
 8000a66:	f85d eb04 	ldr.w	lr, [sp], #4
 8000a6a:	b500      	push	{lr}
 8000a6c:	f7ff ffda 	bl	8000a24 <send_parameter>
 8000a70:	f85d eb04 	ldr.w	lr, [sp], #4
 8000a74:	f04f 0044 	mov.w	r0, #68	; 0x44
 8000a78:	b500      	push	{lr}
 8000a7a:	f7ff fddf 	bl	800063c <uart_putc>
 8000a7e:	f85d eb04 	ldr.w	lr, [sp], #4
 8000a82:	4770      	bx	lr

08000a84 <move_right>:
 8000a84:	b500      	push	{lr}
 8000a86:	f7ff ffbb 	bl	8000a00 <send_escape>
 8000a8a:	f85d eb04 	ldr.w	lr, [sp], #4
 8000a8e:	b500      	push	{lr}
 8000a90:	f7ff ffc8 	bl	8000a24 <send_parameter>
 8000a94:	f85d eb04 	ldr.w	lr, [sp], #4
 8000a98:	f04f 0043 	mov.w	r0, #67	; 0x43
 8000a9c:	b500      	push	{lr}
 8000a9e:	f7ff fdcd 	bl	800063c <uart_putc>
 8000aa2:	f85d eb04 	ldr.w	lr, [sp], #4
 8000aa6:	4770      	bx	lr

08000aa8 <spaces>:
 8000aa8:	f84d 8d04 	str.w	r8, [sp, #-4]!
 8000aac:	b150      	cbz	r0, 8000ac4 <spaces+0x1c>
 8000aae:	4680      	mov	r8, r0
 8000ab0:	f04f 0020 	mov.w	r0, #32
 8000ab4:	b500      	push	{lr}
 8000ab6:	f7ff fdc1 	bl	800063c <uart_putc>
 8000aba:	f85d eb04 	ldr.w	lr, [sp], #4
 8000abe:	f1b8 0801 	subs.w	r8, r8, #1
 8000ac2:	d1f5      	bne.n	8000ab0 <spaces+0x8>
 8000ac4:	f85d 8b04 	ldr.w	r8, [sp], #4
 8000ac8:	4770      	bx	lr
 8000aca:	bf00      	nop

08000acc <insert_char>:
 8000acc:	4770      	bx	lr
 8000ace:	bf00      	nop

08000ad0 <delete_under>:
 8000ad0:	4770      	bx	lr
 8000ad2:	bf00      	nop

08000ad4 <delete_line>:
 8000ad4:	b401      	push	{r0}
 8000ad6:	b500      	push	{lr}
 8000ad8:	f7ff ff92 	bl	8000a00 <send_escape>
 8000adc:	f85d eb04 	ldr.w	lr, [sp], #4
 8000ae0:	f04f 0032 	mov.w	r0, #50	; 0x32
 8000ae4:	b500      	push	{lr}
 8000ae6:	f7ff fda9 	bl	800063c <uart_putc>
 8000aea:	f85d eb04 	ldr.w	lr, [sp], #4
 8000aee:	f04f 004b 	mov.w	r0, #75	; 0x4b
 8000af2:	b500      	push	{lr}
 8000af4:	f7ff fda2 	bl	800063c <uart_putc>
 8000af8:	f85d eb04 	ldr.w	lr, [sp], #4
 8000afc:	b500      	push	{lr}
 8000afe:	f000 f817 	bl	8000b30 <cursor_home>
 8000b02:	f85d eb04 	ldr.w	lr, [sp], #4
 8000b06:	bc01      	pop	{r0}
 8000b08:	4770      	bx	lr
 8000b0a:	bf00      	nop

08000b0c <cursor_x>:
 8000b0c:	b500      	push	{lr}
 8000b0e:	f7ff ff77 	bl	8000a00 <send_escape>
 8000b12:	f85d eb04 	ldr.w	lr, [sp], #4
 8000b16:	b500      	push	{lr}
 8000b18:	f7ff ff84 	bl	8000a24 <send_parameter>
 8000b1c:	f85d eb04 	ldr.w	lr, [sp], #4
 8000b20:	f04f 0047 	mov.w	r0, #71	; 0x47
 8000b24:	b500      	push	{lr}
 8000b26:	f7ff fd89 	bl	800063c <uart_putc>
 8000b2a:	f85d eb04 	ldr.w	lr, [sp], #4
 8000b2e:	4770      	bx	lr

08000b30 <cursor_home>:
 8000b30:	b401      	push	{r0}
 8000b32:	b500      	push	{lr}
 8000b34:	f7ff ff64 	bl	8000a00 <send_escape>
 8000b38:	f85d eb04 	ldr.w	lr, [sp], #4
 8000b3c:	f04f 0047 	mov.w	r0, #71	; 0x47
 8000b40:	b500      	push	{lr}
 8000b42:	f7ff fd7b 	bl	800063c <uart_putc>
 8000b46:	f85d eb04 	ldr.w	lr, [sp], #4
 8000b4a:	bc01      	pop	{r0}
 8000b4c:	4770      	bx	lr
 8000b4e:	bf00      	nop

08000b50 <update_line>:
 8000b50:	b500      	push	{lr}
 8000b52:	f7ff ffbf 	bl	8000ad4 <delete_line>
 8000b56:	f85d eb04 	ldr.w	lr, [sp], #4
 8000b5a:	b500      	push	{lr}
 8000b5c:	f7ff fe7e 	bl	800085c <uart_puts>
 8000b60:	f85d eb04 	ldr.w	lr, [sp], #4
 8000b64:	4770      	bx	lr
 8000b66:	bf00      	nop

08000b68 <readln>:
 8000b68:	e92d 03e4 	stmdb	sp!, {r2, r5, r6, r7, r8, r9}
 8000b6c:	ea87 0707 	eor.w	r7, r7, r7
 8000b70:	ea88 0808 	eor.w	r8, r8, r8
 8000b74:	4606      	mov	r6, r0
 8000b76:	f1a1 0901 	sub.w	r9, r1, #1
 8000b7a:	ea85 0505 	eor.w	r5, r5, r5
 8000b7e:	ea80 0000 	eor.w	r0, r0, r0
 8000b82:	b500      	push	{lr}
 8000b84:	f7ff fefc 	bl	8000980 <cursor_shape>
 8000b88:	f85d eb04 	ldr.w	lr, [sp], #4

08000b8c <readln_loop>:
 8000b8c:	ea80 0000 	eor.w	r0, r0, r0
 8000b90:	5570      	strb	r0, [r6, r5]
 8000b92:	b500      	push	{lr}
 8000b94:	f7ff fd68 	bl	8000668 <uart_getc>
 8000b98:	f85d eb04 	ldr.w	lr, [sp], #4
 8000b9c:	280d      	cmp	r0, #13
 8000b9e:	d100      	bne.n	8000ba2 <readln_loop+0x16>
 8000ba0:	e12b      	b.n	8000dfa <readln_exit>
 8000ba2:	2808      	cmp	r0, #8
 8000ba4:	d12d      	bne.n	8000c02 <readln_loop+0x76>
 8000ba6:	403f      	ands	r7, r7
 8000ba8:	d0f0      	beq.n	8000b8c <readln_loop>
 8000baa:	42af      	cmp	r7, r5
 8000bac:	d01f      	beq.n	8000bee <readln_loop+0x62>
 8000bae:	eb06 0007 	add.w	r0, r6, r7
 8000bb2:	f1a0 0101 	sub.w	r1, r0, #1
 8000bb6:	eba5 0207 	sub.w	r2, r5, r7
 8000bba:	b500      	push	{lr}
 8000bbc:	f000 f9a0 	bl	8000f00 <cmove>
 8000bc0:	f85d eb04 	ldr.w	lr, [sp], #4
 8000bc4:	f1a5 0501 	sub.w	r5, r5, #1
 8000bc8:	f1a7 0701 	sub.w	r7, r7, #1
 8000bcc:	ea80 0000 	eor.w	r0, r0, r0
 8000bd0:	5570      	strb	r0, [r6, r5]
 8000bd2:	4630      	mov	r0, r6
 8000bd4:	b500      	push	{lr}
 8000bd6:	f7ff ffbb 	bl	8000b50 <update_line>
 8000bda:	f85d eb04 	ldr.w	lr, [sp], #4
 8000bde:	f107 0001 	add.w	r0, r7, #1
 8000be2:	b500      	push	{lr}
 8000be4:	f7ff ff92 	bl	8000b0c <cursor_x>
 8000be8:	f85d eb04 	ldr.w	lr, [sp], #4
 8000bec:	e7ce      	b.n	8000b8c <readln_loop>
 8000bee:	b500      	push	{lr}
 8000bf0:	f7ff fee4 	bl	80009bc <bksp>
 8000bf4:	f85d eb04 	ldr.w	lr, [sp], #4
 8000bf8:	f1a7 0701 	sub.w	r7, r7, #1
 8000bfc:	f1a5 0501 	sub.w	r5, r5, #1
 8000c00:	e7c4      	b.n	8000b8c <readln_loop>
 8000c02:	2804      	cmp	r0, #4
 8000c04:	d109      	bne.n	8000c1a <readln_loop+0x8e>
 8000c06:	b500      	push	{lr}
 8000c08:	f7ff ff64 	bl	8000ad4 <delete_line>
 8000c0c:	f85d eb04 	ldr.w	lr, [sp], #4
 8000c10:	ea87 0707 	eor.w	r7, r7, r7
 8000c14:	ea85 0505 	eor.w	r5, r5, r5
 8000c18:	e7b8      	b.n	8000b8c <readln_loop>
 8000c1a:	2805      	cmp	r0, #5
 8000c1c:	d125      	bne.n	8000c6a <readln_loop+0xde>
 8000c1e:	4630      	mov	r0, r6
 8000c20:	f04f 010a 	mov.w	r1, #10
 8000c24:	b500      	push	{lr}
 8000c26:	f000 fc3d 	bl	80014a4 <atoi>
 8000c2a:	f85d eb04 	ldr.w	lr, [sp], #4
 8000c2e:	2800      	cmp	r0, #0
 8000c30:	d0ac      	beq.n	8000b8c <readln_loop>
 8000c32:	4608      	mov	r0, r1
 8000c34:	b500      	push	{lr}
 8000c36:	f000 fa07 	bl	8001048 <search_lineno>
 8000c3a:	f85d eb04 	ldr.w	lr, [sp], #4
 8000c3e:	2900      	cmp	r1, #0
 8000c40:	d1a4      	bne.n	8000b8c <readln_loop>
 8000c42:	4631      	mov	r1, r6
 8000c44:	b500      	push	{lr}
 8000c46:	f000 fca9 	bl	800159c <decompile_line>
 8000c4a:	f85d eb04 	ldr.w	lr, [sp], #4
 8000c4e:	b500      	push	{lr}
 8000c50:	f7ff ff7e 	bl	8000b50 <update_line>
 8000c54:	f85d eb04 	ldr.w	lr, [sp], #4
 8000c58:	4630      	mov	r0, r6
 8000c5a:	b500      	push	{lr}
 8000c5c:	f000 f944 	bl	8000ee8 <strlen>
 8000c60:	f85d eb04 	ldr.w	lr, [sp], #4
 8000c64:	4607      	mov	r7, r0
 8000c66:	4605      	mov	r5, r0
 8000c68:	e790      	b.n	8000b8c <readln_loop>
 8000c6a:	2812      	cmp	r0, #18
 8000c6c:	d110      	bne.n	8000c90 <readln_loop+0x104>
 8000c6e:	402d      	ands	r5, r5
 8000c70:	d18c      	bne.n	8000b8c <readln_loop>
 8000c72:	4630      	mov	r0, r6
 8000c74:	b500      	push	{lr}
 8000c76:	f000 f937 	bl	8000ee8 <strlen>
 8000c7a:	f85d eb04 	ldr.w	lr, [sp], #4
 8000c7e:	4605      	mov	r5, r0
 8000c80:	4607      	mov	r7, r0
 8000c82:	4630      	mov	r0, r6
 8000c84:	b500      	push	{lr}
 8000c86:	f7ff fde9 	bl	800085c <uart_puts>
 8000c8a:	f85d eb04 	ldr.w	lr, [sp], #4
 8000c8e:	e77d      	b.n	8000b8c <readln_loop>
 8000c90:	280f      	cmp	r0, #15
 8000c92:	d108      	bne.n	8000ca6 <readln_loop+0x11a>
 8000c94:	f1c8 0805 	rsb	r8, r8, #5
 8000c98:	4640      	mov	r0, r8
 8000c9a:	b500      	push	{lr}
 8000c9c:	f7ff fe70 	bl	8000980 <cursor_shape>
 8000ca0:	f85d eb04 	ldr.w	lr, [sp], #4
 8000ca4:	e772      	b.n	8000b8c <readln_loop>
 8000ca6:	281b      	cmp	r0, #27
 8000ca8:	d15b      	bne.n	8000d62 <character>
 8000caa:	b500      	push	{lr}
 8000cac:	f7ff fda6 	bl	80007fc <get_escape>
 8000cb0:	f85d eb04 	ldr.w	lr, [sp], #4
 8000cb4:	2882      	cmp	r0, #130	; 0x82
 8000cb6:	d107      	bne.n	8000cc8 <try_end>
 8000cb8:	b500      	push	{lr}
 8000cba:	f7ff ff39 	bl	8000b30 <cursor_home>
 8000cbe:	f85d eb04 	ldr.w	lr, [sp], #4
 8000cc2:	ea87 0707 	eor.w	r7, r7, r7
 8000cc6:	e761      	b.n	8000b8c <readln_loop>

08000cc8 <try_end>:
 8000cc8:	2883      	cmp	r0, #131	; 0x83
 8000cca:	d108      	bne.n	8000cde <try_left>
 8000ccc:	f105 0001 	add.w	r0, r5, #1
 8000cd0:	b500      	push	{lr}
 8000cd2:	f7ff ff1b 	bl	8000b0c <cursor_x>
 8000cd6:	f85d eb04 	ldr.w	lr, [sp], #4
 8000cda:	462f      	mov	r7, r5
 8000cdc:	e756      	b.n	8000b8c <readln_loop>

08000cde <try_left>:
 8000cde:	2880      	cmp	r0, #128	; 0x80
 8000ce0:	d10c      	bne.n	8000cfc <try_right>
 8000ce2:	403f      	ands	r7, r7
 8000ce4:	f43f af52 	beq.w	8000b8c <readln_loop>
 8000ce8:	f04f 0001 	mov.w	r0, #1
 8000cec:	b500      	push	{lr}
 8000cee:	f7ff feb7 	bl	8000a60 <move_left>
 8000cf2:	f85d eb04 	ldr.w	lr, [sp], #4
 8000cf6:	f1a7 0701 	sub.w	r7, r7, #1
 8000cfa:	e747      	b.n	8000b8c <readln_loop>

08000cfc <try_right>:
 8000cfc:	2881      	cmp	r0, #129	; 0x81
 8000cfe:	d10c      	bne.n	8000d1a <try_suprim>
 8000d00:	42af      	cmp	r7, r5
 8000d02:	f43f af43 	beq.w	8000b8c <readln_loop>
 8000d06:	f107 0701 	add.w	r7, r7, #1
 8000d0a:	f04f 0001 	mov.w	r0, #1
 8000d0e:	b500      	push	{lr}
 8000d10:	f7ff feb8 	bl	8000a84 <move_right>
 8000d14:	f85d eb04 	ldr.w	lr, [sp], #4
 8000d18:	e738      	b.n	8000b8c <readln_loop>

08000d1a <try_suprim>:
 8000d1a:	2884      	cmp	r0, #132	; 0x84
 8000d1c:	f47f af36 	bne.w	8000b8c <readln_loop>
 8000d20:	42af      	cmp	r7, r5
 8000d22:	f43f af33 	beq.w	8000b8c <readln_loop>
 8000d26:	eb07 0106 	add.w	r1, r7, r6
 8000d2a:	f101 0001 	add.w	r0, r1, #1
 8000d2e:	eba5 0207 	sub.w	r2, r5, r7
 8000d32:	b500      	push	{lr}
 8000d34:	f000 f8e4 	bl	8000f00 <cmove>
 8000d38:	f85d eb04 	ldr.w	lr, [sp], #4
 8000d3c:	f1a5 0501 	sub.w	r5, r5, #1
 8000d40:	ea80 0000 	eor.w	r0, r0, r0
 8000d44:	5570      	strb	r0, [r6, r5]
 8000d46:	4630      	mov	r0, r6
 8000d48:	b500      	push	{lr}
 8000d4a:	f7ff ff01 	bl	8000b50 <update_line>
 8000d4e:	f85d eb04 	ldr.w	lr, [sp], #4
 8000d52:	f107 0001 	add.w	r0, r7, #1
 8000d56:	b500      	push	{lr}
 8000d58:	f7ff fed8 	bl	8000b0c <cursor_x>
 8000d5c:	f85d eb04 	ldr.w	lr, [sp], #4
 8000d60:	e714      	b.n	8000b8c <readln_loop>

08000d62 <character>:
 8000d62:	42af      	cmp	r7, r5
 8000d64:	d039      	beq.n	8000dda <character+0x78>
 8000d66:	ea18 0808 	ands.w	r8, r8, r8
 8000d6a:	d025      	beq.n	8000db8 <character+0x56>
 8000d6c:	45a9      	cmp	r9, r5
 8000d6e:	f43f af0d 	beq.w	8000b8c <readln_loop>
 8000d72:	b405      	push	{r0, r2}
 8000d74:	eb06 0007 	add.w	r0, r6, r7
 8000d78:	f100 0101 	add.w	r1, r0, #1
 8000d7c:	eba5 0207 	sub.w	r2, r5, r7
 8000d80:	b500      	push	{lr}
 8000d82:	f000 f8bd 	bl	8000f00 <cmove>
 8000d86:	f85d eb04 	ldr.w	lr, [sp], #4
 8000d8a:	bc05      	pop	{r0, r2}
 8000d8c:	55f0      	strb	r0, [r6, r7]
 8000d8e:	f107 0701 	add.w	r7, r7, #1
 8000d92:	f105 0501 	add.w	r5, r5, #1
 8000d96:	ea80 0000 	eor.w	r0, r0, r0
 8000d9a:	5570      	strb	r0, [r6, r5]
 8000d9c:	4630      	mov	r0, r6
 8000d9e:	b500      	push	{lr}
 8000da0:	f7ff fed6 	bl	8000b50 <update_line>
 8000da4:	f85d eb04 	ldr.w	lr, [sp], #4
 8000da8:	f107 0001 	add.w	r0, r7, #1
 8000dac:	b500      	push	{lr}
 8000dae:	f7ff fead 	bl	8000b0c <cursor_x>
 8000db2:	f85d eb04 	ldr.w	lr, [sp], #4
 8000db6:	e6e9      	b.n	8000b8c <readln_loop>
 8000db8:	55f0      	strb	r0, [r6, r7]
 8000dba:	f107 0701 	add.w	r7, r7, #1
 8000dbe:	4630      	mov	r0, r6
 8000dc0:	b500      	push	{lr}
 8000dc2:	f7ff fec5 	bl	8000b50 <update_line>
 8000dc6:	f85d eb04 	ldr.w	lr, [sp], #4
 8000dca:	f107 0001 	add.w	r0, r7, #1
 8000dce:	b500      	push	{lr}
 8000dd0:	f7ff fe9c 	bl	8000b0c <cursor_x>
 8000dd4:	f85d eb04 	ldr.w	lr, [sp], #4
 8000dd8:	e6d8      	b.n	8000b8c <readln_loop>
 8000dda:	45ca      	cmp	sl, r9
 8000ddc:	d400      	bmi.n	8000de0 <character+0x7e>
 8000dde:	e6d5      	b.n	8000b8c <readln_loop>
 8000de0:	2820      	cmp	r0, #32
 8000de2:	f53f aed3 	bmi.w	8000b8c <readln_loop>
 8000de6:	55f0      	strb	r0, [r6, r7]
 8000de8:	b500      	push	{lr}
 8000dea:	f7ff fc27 	bl	800063c <uart_putc>
 8000dee:	f85d eb04 	ldr.w	lr, [sp], #4
 8000df2:	f107 0701 	add.w	r7, r7, #1
 8000df6:	463d      	mov	r5, r7
 8000df8:	e6c8      	b.n	8000b8c <readln_loop>

08000dfa <readln_exit>:
 8000dfa:	b500      	push	{lr}
 8000dfc:	f7ff fc1e 	bl	800063c <uart_putc>
 8000e00:	f85d eb04 	ldr.w	lr, [sp], #4
 8000e04:	ea80 0000 	eor.w	r0, r0, r0
 8000e08:	5570      	strb	r0, [r6, r5]
 8000e0a:	4629      	mov	r1, r5
 8000e0c:	4630      	mov	r0, r6
 8000e0e:	e8bd 03e4 	ldmia.w	sp!, {r2, r5, r6, r7, r8, r9}
 8000e12:	4770      	bx	lr

08000e14 <get_param>:
 8000e14:	e92d 0300 	stmdb	sp!, {r8, r9}
 8000e18:	ea88 0808 	eor.w	r8, r8, r8
 8000e1c:	f04f 090a 	mov.w	r9, #10
 8000e20:	b500      	push	{lr}
 8000e22:	f7ff fc21 	bl	8000668 <uart_getc>
 8000e26:	f85d eb04 	ldr.w	lr, [sp], #4
 8000e2a:	b500      	push	{lr}
 8000e2c:	f000 fae8 	bl	8001400 <is_digit>
 8000e30:	f85d eb04 	ldr.w	lr, [sp], #4
 8000e34:	d003      	beq.n	8000e3e <get_param+0x2a>
 8000e36:	fb09 f808 	mul.w	r8, r9, r8
 8000e3a:	4480      	add	r8, r0
 8000e3c:	e7f0      	b.n	8000e20 <get_param+0xc>
 8000e3e:	4640      	mov	r0, r8
 8000e40:	e8bd 0300 	ldmia.w	sp!, {r8, r9}
 8000e44:	4770      	bx	lr
 8000e46:	bf00      	nop

08000e48 <get_curpos>:
 8000e48:	b40c      	push	{r2, r3}
 8000e4a:	b500      	push	{lr}
 8000e4c:	f7ff fbea 	bl	8000624 <uart_flush_queue>
 8000e50:	f85d eb04 	ldr.w	lr, [sp], #4
 8000e54:	b500      	push	{lr}
 8000e56:	f7ff fdd3 	bl	8000a00 <send_escape>
 8000e5a:	f85d eb04 	ldr.w	lr, [sp], #4
 8000e5e:	f04f 0036 	mov.w	r0, #54	; 0x36
 8000e62:	b500      	push	{lr}
 8000e64:	f7ff fbea 	bl	800063c <uart_putc>
 8000e68:	f85d eb04 	ldr.w	lr, [sp], #4
 8000e6c:	f04f 006e 	mov.w	r0, #110	; 0x6e
 8000e70:	b500      	push	{lr}
 8000e72:	f7ff fbe3 	bl	800063c <uart_putc>
 8000e76:	f85d eb04 	ldr.w	lr, [sp], #4
 8000e7a:	b500      	push	{lr}
 8000e7c:	f7ff fbf4 	bl	8000668 <uart_getc>
 8000e80:	f85d eb04 	ldr.w	lr, [sp], #4
 8000e84:	281b      	cmp	r0, #27
 8000e86:	d113      	bne.n	8000eb0 <get_curpos+0x68>
 8000e88:	b500      	push	{lr}
 8000e8a:	f7ff fbed 	bl	8000668 <uart_getc>
 8000e8e:	f85d eb04 	ldr.w	lr, [sp], #4
 8000e92:	285b      	cmp	r0, #91	; 0x5b
 8000e94:	d10c      	bne.n	8000eb0 <get_curpos+0x68>
 8000e96:	b500      	push	{lr}
 8000e98:	f7ff ffbc 	bl	8000e14 <get_param>
 8000e9c:	f85d eb04 	ldr.w	lr, [sp], #4
 8000ea0:	4602      	mov	r2, r0
 8000ea2:	b500      	push	{lr}
 8000ea4:	f7ff ffb6 	bl	8000e14 <get_param>
 8000ea8:	f85d eb04 	ldr.w	lr, [sp], #4
 8000eac:	4601      	mov	r1, r0
 8000eae:	4610      	mov	r0, r2
 8000eb0:	bc0c      	pop	{r2, r3}
 8000eb2:	4770      	bx	lr

08000eb4 <tabulation>:
 8000eb4:	b407      	push	{r0, r1, r2}
 8000eb6:	b500      	push	{lr}
 8000eb8:	f7ff ffc6 	bl	8000e48 <get_curpos>
 8000ebc:	f85d eb04 	ldr.w	lr, [sp], #4
 8000ec0:	f1a1 0001 	sub.w	r0, r1, #1
 8000ec4:	6c61      	ldr	r1, [r4, #68]	; 0x44
 8000ec6:	b500      	push	{lr}
 8000ec8:	f000 fc4e 	bl	8001768 <modulo>
 8000ecc:	f85d eb04 	ldr.w	lr, [sp], #4
 8000ed0:	6c60      	ldr	r0, [r4, #68]	; 0x44
 8000ed2:	eba0 0001 	sub.w	r0, r0, r1
 8000ed6:	b500      	push	{lr}
 8000ed8:	f7ff fde6 	bl	8000aa8 <spaces>
 8000edc:	f85d eb04 	ldr.w	lr, [sp], #4
 8000ee0:	bc07      	pop	{r0, r1, r2}
 8000ee2:	4770      	bx	lr
 8000ee4:	08000850 	stmdaeq	r0, {r4, r6, fp}

08000ee8 <strlen>:
 8000ee8:	b406      	push	{r1, r2}
 8000eea:	ea81 0101 	eor.w	r1, r1, r1
 8000eee:	f810 2b01 	ldrb.w	r2, [r0], #1
 8000ef2:	b112      	cbz	r2, 8000efa <strlen+0x12>
 8000ef4:	f101 0101 	add.w	r1, r1, #1
 8000ef8:	e7f9      	b.n	8000eee <strlen+0x6>
 8000efa:	4608      	mov	r0, r1
 8000efc:	bc06      	pop	{r1, r2}
 8000efe:	4770      	bx	lr

08000f00 <cmove>:
 8000f00:	b408      	push	{r3}
 8000f02:	4012      	ands	r2, r2
 8000f04:	d010      	beq.n	8000f28 <move_from_end+0x10>
 8000f06:	4288      	cmp	r0, r1
 8000f08:	d406      	bmi.n	8000f18 <move_from_end>

08000f0a <move_from_low>:
 8000f0a:	f810 3b01 	ldrb.w	r3, [r0], #1
 8000f0e:	f801 3b01 	strb.w	r3, [r1], #1
 8000f12:	3a01      	subs	r2, #1
 8000f14:	d1f9      	bne.n	8000f0a <move_from_low>
 8000f16:	e007      	b.n	8000f28 <move_from_end+0x10>

08000f18 <move_from_end>:
 8000f18:	4410      	add	r0, r2
 8000f1a:	4411      	add	r1, r2
 8000f1c:	f810 3d01 	ldrb.w	r3, [r0, #-1]!
 8000f20:	f801 3d01 	strb.w	r3, [r1, #-1]!
 8000f24:	3a01      	subs	r2, #1
 8000f26:	d1f9      	bne.n	8000f1c <move_from_end+0x4>
 8000f28:	bc08      	pop	{r3}
 8000f2a:	4770      	bx	lr

08000f2c <strcpy>:
 8000f2c:	b407      	push	{r0, r1, r2}
 8000f2e:	f810 2b01 	ldrb.w	r2, [r0], #1
 8000f32:	b112      	cbz	r2, 8000f3a <strcpy+0xe>
 8000f34:	f801 2b01 	strb.w	r2, [r1], #1
 8000f38:	e7f9      	b.n	8000f2e <strcpy+0x2>
 8000f3a:	700a      	strb	r2, [r1, #0]
 8000f3c:	bc07      	pop	{r0, r1, r2}
 8000f3e:	4770      	bx	lr

08000f40 <strcmp>:
 8000f40:	b48c      	push	{r2, r3, r7}
 8000f42:	4602      	mov	r2, r0
 8000f44:	f812 3b01 	ldrb.w	r3, [r2], #1
 8000f48:	f811 7b01 	ldrb.w	r7, [r1], #1
 8000f4c:	b113      	cbz	r3, 8000f54 <strcmp+0x14>
 8000f4e:	b10f      	cbz	r7, 8000f54 <strcmp+0x14>
 8000f50:	1bd8      	subs	r0, r3, r7
 8000f52:	d0f7      	beq.n	8000f44 <strcmp+0x4>
 8000f54:	eba3 0007 	sub.w	r0, r3, r7
 8000f58:	bc8c      	pop	{r2, r3, r7}
 8000f5a:	4770      	bx	lr

08000f5c <prt_tok>:
 8000f5c:	b403      	push	{r0, r1}
 8000f5e:	4812      	ldr	r0, [pc, #72]	; (8000fa8 <tok_msg>)
 8000f60:	b500      	push	{lr}
 8000f62:	f7ff fc7b 	bl	800085c <uart_puts>
 8000f66:	f85d eb04 	ldr.w	lr, [sp], #4
 8000f6a:	bc01      	pop	{r0}
 8000f6c:	f04f 0110 	mov.w	r1, #16
 8000f70:	b500      	push	{lr}
 8000f72:	f7ff fccf 	bl	8000914 <print_int>
 8000f76:	f85d eb04 	ldr.w	lr, [sp], #4
 8000f7a:	f04f 0020 	mov.w	r0, #32
 8000f7e:	b500      	push	{lr}
 8000f80:	f7ff fb5c 	bl	800063c <uart_putc>
 8000f84:	f85d eb04 	ldr.w	lr, [sp], #4
 8000f88:	bc01      	pop	{r0}
 8000f8a:	f04f 0110 	mov.w	r1, #16
 8000f8e:	b500      	push	{lr}
 8000f90:	f7ff fcc0 	bl	8000914 <print_int>
 8000f94:	f85d eb04 	ldr.w	lr, [sp], #4
 8000f98:	f04f 000d 	mov.w	r0, #13
 8000f9c:	b500      	push	{lr}
 8000f9e:	f7ff fb4d 	bl	800063c <uart_putc>
 8000fa2:	f85d eb04 	ldr.w	lr, [sp], #4
 8000fa6:	4770      	bx	lr

08000fa8 <tok_msg>:
 8000fa8:	656b6f74 	strbvs	r6, [fp, #-3956]!	; 0xfffff08c
 8000fac:	00203a6e 	eoreq	r3, r0, lr, ror #20

08000fb0 <prt_row>:
 8000fb0:	e92d 010f 	stmdb	sp!, {r0, r1, r2, r3, r8}
 8000fb4:	4602      	mov	r2, r0
 8000fb6:	f8d4 8044 	ldr.w	r8, [r4, #68]	; 0x44
 8000fba:	f04f 000a 	mov.w	r0, #10
 8000fbe:	6460      	str	r0, [r4, #68]	; 0x44
 8000fc0:	4610      	mov	r0, r2
 8000fc2:	460b      	mov	r3, r1
 8000fc4:	f04f 0110 	mov.w	r1, #16
 8000fc8:	b500      	push	{lr}
 8000fca:	f7ff fca3 	bl	8000914 <print_int>
 8000fce:	f85d eb04 	ldr.w	lr, [sp], #4
 8000fd2:	b500      	push	{lr}
 8000fd4:	f7ff ff6e 	bl	8000eb4 <tabulation>
 8000fd8:	f85d eb04 	ldr.w	lr, [sp], #4
 8000fdc:	f8c4 8044 	str.w	r8, [r4, #68]	; 0x44
 8000fe0:	f812 0b01 	ldrb.w	r0, [r2], #1
 8000fe4:	b500      	push	{lr}
 8000fe6:	f7ff fca1 	bl	800092c <print_hex>
 8000fea:	f85d eb04 	ldr.w	lr, [sp], #4
 8000fee:	3b01      	subs	r3, #1
 8000ff0:	d1f6      	bne.n	8000fe0 <prt_row+0x30>
 8000ff2:	f04f 0002 	mov.w	r0, #2
 8000ff6:	b500      	push	{lr}
 8000ff8:	f7ff fd56 	bl	8000aa8 <spaces>
 8000ffc:	f85d eb04 	ldr.w	lr, [sp], #4
 8001000:	bc03      	pop	{r0, r1}
 8001002:	b500      	push	{lr}
 8001004:	f000 f80e 	bl	8001024 <prt_chars>
 8001008:	f85d eb04 	ldr.w	lr, [sp], #4
 800100c:	f04f 000d 	mov.w	r0, #13
 8001010:	b500      	push	{lr}
 8001012:	f7ff fb13 	bl	800063c <uart_putc>
 8001016:	f85d eb04 	ldr.w	lr, [sp], #4
 800101a:	4610      	mov	r0, r2
 800101c:	e8bd 010c 	ldmia.w	sp!, {r2, r3, r8}
 8001020:	4770      	bx	lr
 8001022:	bf00      	nop

08001024 <prt_chars>:
 8001024:	b404      	push	{r2}
 8001026:	4602      	mov	r2, r0
 8001028:	f812 0b01 	ldrb.w	r0, [r2], #1
 800102c:	2820      	cmp	r0, #32
 800102e:	d501      	bpl.n	8001034 <prt_chars+0x10>
 8001030:	f04f 005f 	mov.w	r0, #95	; 0x5f
 8001034:	b500      	push	{lr}
 8001036:	f7ff fb01 	bl	800063c <uart_putc>
 800103a:	f85d eb04 	ldr.w	lr, [sp], #4
 800103e:	3901      	subs	r1, #1
 8001040:	d1f2      	bne.n	8001028 <prt_chars+0x4>
 8001042:	4610      	mov	r0, r2
 8001044:	bc04      	pop	{r2}
 8001046:	4770      	bx	lr

08001048 <search_lineno>:
 8001048:	b40c      	push	{r2, r3}
 800104a:	4603      	mov	r3, r0
 800104c:	6b20      	ldr	r0, [r4, #48]	; 0x30
 800104e:	6b62      	ldr	r2, [r4, #52]	; 0x34
 8001050:	4290      	cmp	r0, r2
 8001052:	d005      	beq.n	8001060 <search_lineno+0x18>
 8001054:	8801      	ldrh	r1, [r0, #0]
 8001056:	1ac9      	subs	r1, r1, r3
 8001058:	d504      	bpl.n	8001064 <search_lineno+0x1c>
 800105a:	7881      	ldrb	r1, [r0, #2]
 800105c:	4408      	add	r0, r1
 800105e:	e7f7      	b.n	8001050 <search_lineno+0x8>
 8001060:	f04f 31ff 	mov.w	r1, #4294967295	; 0xffffffff
 8001064:	bc0c      	pop	{r2, r3}
 8001066:	4770      	bx	lr

08001068 <delete_line>:
 8001068:	e92d 0307 	stmdb	sp!, {r0, r1, r2, r8, r9}
 800106c:	4601      	mov	r1, r0
 800106e:	f891 8002 	ldrb.w	r8, [r1, #2]
 8001072:	4440      	add	r0, r8
 8001074:	f8d4 9034 	ldr.w	r9, [r4, #52]	; 0x34
 8001078:	eba9 0200 	sub.w	r2, r9, r0
 800107c:	b500      	push	{lr}
 800107e:	f7ff ff3f 	bl	8000f00 <cmove>
 8001082:	f85d eb04 	ldr.w	lr, [sp], #4
 8001086:	eba9 0908 	sub.w	r9, r9, r8
 800108a:	f8c4 9034 	str.w	r9, [r4, #52]	; 0x34
 800108e:	e8bd 0307 	ldmia.w	sp!, {r0, r1, r2, r8, r9}
 8001092:	4770      	bx	lr

08001094 <create_gap>:
 8001094:	e92d 0305 	stmdb	sp!, {r0, r2, r8, r9}
 8001098:	4688      	mov	r8, r1
 800109a:	4401      	add	r1, r0
 800109c:	f8d4 9034 	ldr.w	r9, [r4, #52]	; 0x34
 80010a0:	eba9 0200 	sub.w	r2, r9, r0
 80010a4:	b500      	push	{lr}
 80010a6:	f7ff ff2b 	bl	8000f00 <cmove>
 80010aa:	f85d eb04 	ldr.w	lr, [sp], #4
 80010ae:	44c1      	add	r9, r8
 80010b0:	f8c4 9034 	str.w	r9, [r4, #52]	; 0x34
 80010b4:	e8bd 0305 	ldmia.w	sp!, {r0, r2, r8, r9}
 80010b8:	4770      	bx	lr
 80010ba:	bf00      	nop

080010bc <insert_line>:
 80010bc:	e92d 0302 	stmdb	sp!, {r1, r8, r9}
 80010c0:	4680      	mov	r8, r0
 80010c2:	f8b8 0000 	ldrh.w	r0, [r8]
 80010c6:	b500      	push	{lr}
 80010c8:	f7ff ffbe 	bl	8001048 <search_lineno>
 80010cc:	f85d eb04 	ldr.w	lr, [sp], #4
 80010d0:	b949      	cbnz	r1, 80010e6 <insert_line+0x2a>
 80010d2:	b500      	push	{lr}
 80010d4:	f7ff ffc8 	bl	8001068 <delete_line>
 80010d8:	f85d eb04 	ldr.w	lr, [sp], #4
 80010dc:	f898 9002 	ldrb.w	r9, [r8, #2]
 80010e0:	f1b9 0f04 	cmp.w	r9, #4
 80010e4:	d00e      	beq.n	8001104 <insert_line+0x48>
 80010e6:	f898 1002 	ldrb.w	r1, [r8, #2]
 80010ea:	b500      	push	{lr}
 80010ec:	f7ff ffd2 	bl	8001094 <create_gap>
 80010f0:	f85d eb04 	ldr.w	lr, [sp], #4
 80010f4:	4601      	mov	r1, r0
 80010f6:	4640      	mov	r0, r8
 80010f8:	7882      	ldrb	r2, [r0, #2]
 80010fa:	b500      	push	{lr}
 80010fc:	f7ff ff00 	bl	8000f00 <cmove>
 8001100:	f85d eb04 	ldr.w	lr, [sp], #4
 8001104:	e8bd 0302 	ldmia.w	sp!, {r1, r8, r9}
 8001108:	4770      	bx	lr
 800110a:	bf00      	nop

0800110c <compile>:
 800110c:	4680      	mov	r8, r0
 800110e:	6061      	str	r1, [r4, #4]
 8001110:	f8df 9994 	ldr.w	r9, [pc, #2452]	; 8001aa8 <pad>
 8001114:	ea83 0303 	eor.w	r3, r3, r3
 8001118:	6c20      	ldr	r0, [r4, #64]	; 0x40
 800111a:	f040 0020 	orr.w	r0, r0, #32
 800111e:	6420      	str	r0, [r4, #64]	; 0x40
 8001120:	ea80 0000 	eor.w	r0, r0, r0
 8001124:	f829 0b02 	strh.w	r0, [r9], #2
 8001128:	f809 0b01 	strb.w	r0, [r9], #1
 800112c:	6020      	str	r0, [r4, #0]
 800112e:	f8c4 8008 	str.w	r8, [r4, #8]
 8001132:	b500      	push	{lr}
 8001134:	f000 f900 	bl	8001338 <parse_int>
 8001138:	f85d eb04 	ldr.w	lr, [sp], #4
 800113c:	d007      	beq.n	800114e <compile+0x42>
 800113e:	2901      	cmp	r1, #1
 8001140:	d502      	bpl.n	8001148 <compile+0x3c>
 8001142:	f04f 000a 	mov.w	r0, #10
 8001146:	e31f      	b.n	8001788 <tb_error>
 8001148:	f829 1c03 	strh.w	r1, [r9, #-3]
 800114c:	6023      	str	r3, [r4, #0]
 800114e:	45c1      	cmp	r9, r8
 8001150:	db02      	blt.n	8001158 <compile+0x4c>
 8001152:	f04f 000f 	mov.w	r0, #15
 8001156:	e317      	b.n	8001788 <tb_error>
 8001158:	b500      	push	{lr}
 800115a:	f000 f821 	bl	80011a0 <comp_token>
 800115e:	f85d eb04 	ldr.w	lr, [sp], #4
 8001162:	2800      	cmp	r0, #0
 8001164:	d001      	beq.n	800116a <compile+0x5e>
 8001166:	6023      	str	r3, [r4, #0]
 8001168:	e7f1      	b.n	800114e <compile+0x42>
 800116a:	f8df 393c 	ldr.w	r3, [pc, #2364]	; 8001aa8 <pad>
 800116e:	eba9 0003 	sub.w	r0, r9, r3
 8001172:	7098      	strb	r0, [r3, #2]
 8001174:	6060      	str	r0, [r4, #4]
 8001176:	8818      	ldrh	r0, [r3, #0]
 8001178:	b138      	cbz	r0, 800118a <compile+0x7e>
 800117a:	4618      	mov	r0, r3
 800117c:	b500      	push	{lr}
 800117e:	f7ff ff9d 	bl	80010bc <insert_line>
 8001182:	f85d eb04 	ldr.w	lr, [sp], #4
 8001186:	4040      	eors	r0, r0
 8001188:	e008      	b.n	800119c <compile+0x90>
 800118a:	469b      	mov	fp, r3
 800118c:	f04f 0a03 	mov.w	sl, #3
 8001190:	6c20      	ldr	r0, [r4, #64]	; 0x40
 8001192:	f1a0 0020 	sub.w	r0, r0, #32
 8001196:	6420      	str	r0, [r4, #64]	; 0x40
 8001198:	f05f 30ff 	movs.w	r0, #4294967295	; 0xffffffff
 800119c:	4770      	bx	lr
 800119e:	bf00      	nop

080011a0 <comp_token>:
 80011a0:	b440      	push	{r6}
 80011a2:	f818 0003 	ldrb.w	r0, [r8, r3]
 80011a6:	4000      	ands	r0, r0
 80011a8:	d070      	beq.n	800128c <store_r0>
 80011aa:	f04f 0020 	mov.w	r0, #32
 80011ae:	b500      	push	{lr}
 80011b0:	f000 f912 	bl	80013d8 <skip>
 80011b4:	f85d eb04 	ldr.w	lr, [sp], #4
 80011b8:	f818 0003 	ldrb.w	r0, [r8, r3]
 80011bc:	4000      	ands	r0, r0
 80011be:	d065      	beq.n	800128c <store_r0>
 80011c0:	f103 0301 	add.w	r3, r3, #1
 80011c4:	b500      	push	{lr}
 80011c6:	f000 f913 	bl	80013f0 <upper>
 80011ca:	f85d eb04 	ldr.w	lr, [sp], #4
 80011ce:	b500      	push	{lr}
 80011d0:	f000 f87c 	bl	80012cc <is_special>
 80011d4:	f85d eb04 	ldr.w	lr, [sp], #4
 80011d8:	f8df 6d58 	ldr.w	r6, [pc, #3416]	; 8001f34 <set_var+0x10>
 80011dc:	e8d6 f011 	tbh	[r6, r1, lsl #1]

080011e0 <tok_idx0>:
 80011e0:	e057      	b.n	8001292 <try_number>

080011e2 <single>:
 80011e2:	f8df 6d54 	ldr.w	r6, [pc, #3412]	; 8001f38 <set_var+0x14>
 80011e6:	5c70      	ldrb	r0, [r6, r1]
 80011e8:	e050      	b.n	800128c <store_r0>

080011ea <lt>:
 80011ea:	f04f 0034 	mov.w	r0, #52	; 0x34
 80011ee:	f818 1003 	ldrb.w	r1, [r8, r3]
 80011f2:	293e      	cmp	r1, #62	; 0x3e
 80011f4:	d006      	beq.n	8001204 <gt+0xc>
 80011f6:	e00a      	b.n	800120e <gt+0x16>

080011f8 <gt>:
 80011f8:	f04f 0031 	mov.w	r0, #49	; 0x31
 80011fc:	f818 1003 	ldrb.w	r1, [r8, r3]
 8001200:	293c      	cmp	r1, #60	; 0x3c
 8001202:	d104      	bne.n	800120e <gt+0x16>
 8001204:	f103 0301 	add.w	r3, r3, #1
 8001208:	f04f 0035 	mov.w	r0, #53	; 0x35
 800120c:	e03e      	b.n	800128c <store_r0>
 800120e:	293d      	cmp	r1, #61	; 0x3d
 8001210:	d13c      	bne.n	800128c <store_r0>
 8001212:	f103 0301 	add.w	r3, r3, #1
 8001216:	f100 0002 	add.w	r0, r0, #2
 800121a:	e037      	b.n	800128c <store_r0>

0800121c <bkslash>:
 800121c:	f818 1003 	ldrb.w	r1, [r8, r3]
 8001220:	f103 0301 	add.w	r3, r3, #1
 8001224:	f04f 0003 	mov.w	r0, #3
 8001228:	f809 0b01 	strb.w	r0, [r9], #1
 800122c:	f809 1b01 	strb.w	r1, [r9], #1
 8001230:	e049      	b.n	80012c6 <token_exit>

08001232 <prt_cmd>:
 8001232:	f04f 000a 	mov.w	r0, #10
 8001236:	f04f 013a 	mov.w	r1, #58	; 0x3a
 800123a:	f809 0b01 	strb.w	r0, [r9], #1
 800123e:	f809 1b01 	strb.w	r1, [r9], #1
 8001242:	e040      	b.n	80012c6 <token_exit>

08001244 <quote>:
 8001244:	f04f 0002 	mov.w	r0, #2
 8001248:	f809 0b01 	strb.w	r0, [r9], #1
 800124c:	b500      	push	{lr}
 800124e:	f000 f88f 	bl	8001370 <parse_quote>
 8001252:	f85d eb04 	ldr.w	lr, [sp], #4
 8001256:	e036      	b.n	80012c6 <token_exit>

08001258 <tick>:
 8001258:	f04f 000a 	mov.w	r0, #10
 800125c:	f04f 0147 	mov.w	r1, #71	; 0x47
 8001260:	f809 0b01 	strb.w	r0, [r9], #1
 8001264:	f809 1b01 	strb.w	r1, [r9], #1
 8001268:	eb08 0003 	add.w	r0, r8, r3
 800126c:	4649      	mov	r1, r9
 800126e:	b500      	push	{lr}
 8001270:	f7ff fe5c 	bl	8000f2c <strcpy>
 8001274:	f85d eb04 	ldr.w	lr, [sp], #4
 8001278:	b500      	push	{lr}
 800127a:	f7ff fe35 	bl	8000ee8 <strlen>
 800127e:	f85d eb04 	ldr.w	lr, [sp], #4
 8001282:	4481      	add	r9, r0
 8001284:	f109 0901 	add.w	r9, r9, #1
 8001288:	6863      	ldr	r3, [r4, #4]
 800128a:	e01c      	b.n	80012c6 <token_exit>

0800128c <store_r0>:
 800128c:	f809 0b01 	strb.w	r0, [r9], #1
 8001290:	e019      	b.n	80012c6 <token_exit>

08001292 <try_number>:
 8001292:	f1a3 0301 	sub.w	r3, r3, #1
 8001296:	b500      	push	{lr}
 8001298:	f000 f84e 	bl	8001338 <parse_int>
 800129c:	f85d eb04 	ldr.w	lr, [sp], #4
 80012a0:	d004      	beq.n	80012ac <try_number+0x1a>
 80012a2:	f809 0b01 	strb.w	r0, [r9], #1
 80012a6:	f849 1b04 	str.w	r1, [r9], #4
 80012aa:	e00c      	b.n	80012c6 <token_exit>
 80012ac:	b500      	push	{lr}
 80012ae:	f000 f91f 	bl	80014f0 <parse_keyword>
 80012b2:	f85d eb04 	ldr.w	lr, [sp], #4
 80012b6:	2804      	cmp	r0, #4
 80012b8:	d001      	beq.n	80012be <try_number+0x2c>
 80012ba:	2947      	cmp	r1, #71	; 0x47
 80012bc:	d0cc      	beq.n	8001258 <tick>
 80012be:	f809 0b01 	strb.w	r0, [r9], #1
 80012c2:	f809 1b01 	strb.w	r1, [r9], #1

080012c6 <token_exit>:
 80012c6:	bc40      	pop	{r6}
 80012c8:	4770      	bx	lr
 80012ca:	bf00      	nop

080012cc <is_special>:
 80012cc:	b40c      	push	{r2, r3}
 80012ce:	f04f 0101 	mov.w	r1, #1
 80012d2:	f8df 3c68 	ldr.w	r3, [pc, #3176]	; 8001f3c <set_var+0x18>
 80012d6:	5c5a      	ldrb	r2, [r3, r1]
 80012d8:	b122      	cbz	r2, 80012e4 <is_special+0x18>
 80012da:	4282      	cmp	r2, r0
 80012dc:	d004      	beq.n	80012e8 <is_special+0x1c>
 80012de:	f101 0101 	add.w	r1, r1, #1
 80012e2:	e7f8      	b.n	80012d6 <is_special+0xa>
 80012e4:	ea81 0101 	eor.w	r1, r1, r1
 80012e8:	bc0c      	pop	{r2, r3}
 80012ea:	4770      	bx	lr

080012ec <char_list>:
 80012ec:	28402c20 	stmdacs	r0, {r5, sl, fp, sp}^
 80012f0:	2d233a29 	vstmdbcs	r3!, {s6-s46}
 80012f4:	252f2a2b 	strcs	r2, [pc, #-2603]!	; 80008d1 <itoa+0x29>
 80012f8:	5c3e3c3d 	ldcpl	12, cr3, [lr], #-244	; 0xffffff0c
 80012fc:	0022273f 	eoreq	r2, r2, pc, lsr r7

08001300 <tok_single>:
 8001300:	06050800 	streq	r0, [r5], -r0, lsl #16
 8001304:	11090107 	tstne	r9, r7, lsl #2
 8001308:	22212010 	eorcs	r2, r1, #16
 800130c:	bf000032 	svclt	0x00000032

08001310 <token_ofs>:
 8001310:	00010000 	andeq	r0, r1, r0
 8001314:	00010001 	andeq	r0, r1, r1
 8001318:	00010001 	andeq	r0, r1, r1
 800131c:	00010001 	andeq	r0, r1, r1
 8001320:	00010001 	andeq	r0, r1, r1
 8001324:	00010001 	andeq	r0, r1, r1
 8001328:	00050001 	andeq	r0, r5, r1
 800132c:	001e000c 	andseq	r0, lr, ip
 8001330:	003c0029 	eorseq	r0, ip, r9, lsr #32
 8001334:	bf000032 	svclt	0x00000032

08001338 <parse_int>:
 8001338:	f04f 010a 	mov.w	r1, #10
 800133c:	f818 0003 	ldrb.w	r0, [r8, r3]
 8001340:	2824      	cmp	r0, #36	; 0x24
 8001342:	d102      	bne.n	800134a <parse_int+0x12>
 8001344:	f04f 0110 	mov.w	r1, #16
 8001348:	e003      	b.n	8001352 <parse_int+0x1a>
 800134a:	2826      	cmp	r0, #38	; 0x26
 800134c:	d103      	bne.n	8001356 <parse_int+0x1e>
 800134e:	f04f 0102 	mov.w	r1, #2
 8001352:	f103 0301 	add.w	r3, r3, #1
 8001356:	eb03 0008 	add.w	r0, r3, r8
 800135a:	b500      	push	{lr}
 800135c:	f000 f8a2 	bl	80014a4 <atoi>
 8001360:	f85d eb04 	ldr.w	lr, [sp], #4
 8001364:	b110      	cbz	r0, 800136c <parse_int+0x34>
 8001366:	4403      	add	r3, r0
 8001368:	f04f 000e 	mov.w	r0, #14
 800136c:	4000      	ands	r0, r0
 800136e:	4770      	bx	lr

08001370 <parse_quote>:
 8001370:	f84d 9d04 	str.w	r9, [sp, #-4]!
 8001374:	f818 0003 	ldrb.w	r0, [r8, r3]
 8001378:	f103 0301 	add.w	r3, r3, #1
 800137c:	2822      	cmp	r0, #34	; 0x22
 800137e:	d009      	beq.n	8001394 <parse_quote+0x24>
 8001380:	285c      	cmp	r0, #92	; 0x5c
 8001382:	d104      	bne.n	800138e <parse_quote+0x1e>
 8001384:	b500      	push	{lr}
 8001386:	f000 f80d 	bl	80013a4 <get_escaped_char>
 800138a:	f85d eb04 	ldr.w	lr, [sp], #4
 800138e:	f809 0b01 	strb.w	r0, [r9], #1
 8001392:	e7ef      	b.n	8001374 <parse_quote+0x4>
 8001394:	ea80 0000 	eor.w	r0, r0, r0
 8001398:	f809 0b01 	strb.w	r0, [r9], #1
 800139c:	f04f 0002 	mov.w	r0, #2
 80013a0:	bc02      	pop	{r1}
 80013a2:	4770      	bx	lr

080013a4 <get_escaped_char>:
 80013a4:	b406      	push	{r1, r2}
 80013a6:	f818 0003 	ldrb.w	r0, [r8, r3]
 80013aa:	f103 0301 	add.w	r3, r3, #1
 80013ae:	2822      	cmp	r0, #34	; 0x22
 80013b0:	d00b      	beq.n	80013ca <get_escaped_char+0x26>
 80013b2:	f8df 1b8c 	ldr.w	r1, [pc, #2956]	; 8001f40 <set_var+0x1c>
 80013b6:	f811 2b01 	ldrb.w	r2, [r1], #1
 80013ba:	b112      	cbz	r2, 80013c2 <get_escaped_char+0x1e>
 80013bc:	4282      	cmp	r2, r0
 80013be:	d002      	beq.n	80013c6 <get_escaped_char+0x22>
 80013c0:	e7f9      	b.n	80013b6 <get_escaped_char+0x12>
 80013c2:	f1a0 0207 	sub.w	r2, r0, #7
 80013c6:	f102 0007 	add.w	r0, r2, #7
 80013ca:	bc06      	pop	{r1, r2}
 80013cc:	4770      	bx	lr

080013ce <escaped>:
 80013ce:	6e746261 	cdpvs	2, 7, cr6, cr4, cr1, {3}
 80013d2:	00726676 	rsbseq	r6, r2, r6, ror r6
 80013d6:	bf00      	nop

080013d8 <skip>:
 80013d8:	b402      	push	{r1}
 80013da:	f818 1003 	ldrb.w	r1, [r8, r3]
 80013de:	4281      	cmp	r1, r0
 80013e0:	d102      	bne.n	80013e8 <skip+0x10>
 80013e2:	f103 0301 	add.w	r3, r3, #1
 80013e6:	e7f8      	b.n	80013da <skip+0x2>
 80013e8:	6023      	str	r3, [r4, #0]
 80013ea:	bc02      	pop	{r1}
 80013ec:	4770      	bx	lr
 80013ee:	bf00      	nop

080013f0 <upper>:
 80013f0:	2861      	cmp	r0, #97	; 0x61
 80013f2:	db03      	blt.n	80013fc <upper+0xc>
 80013f4:	287a      	cmp	r0, #122	; 0x7a
 80013f6:	dc01      	bgt.n	80013fc <upper+0xc>
 80013f8:	f000 005f 	and.w	r0, r0, #95	; 0x5f
 80013fc:	4770      	bx	lr
 80013fe:	bf00      	nop

08001400 <is_digit>:
 8001400:	b402      	push	{r1}
 8001402:	ea81 0101 	eor.w	r1, r1, r1
 8001406:	2830      	cmp	r0, #48	; 0x30
 8001408:	db05      	blt.n	8001416 <is_digit+0x16>
 800140a:	283a      	cmp	r0, #58	; 0x3a
 800140c:	d503      	bpl.n	8001416 <is_digit+0x16>
 800140e:	f04f 31ff 	mov.w	r1, #4294967295	; 0xffffffff
 8001412:	f1a0 0030 	sub.w	r0, r0, #48	; 0x30
 8001416:	4009      	ands	r1, r1
 8001418:	bc02      	pop	{r1}
 800141a:	4770      	bx	lr

0800141c <is_hex>:
 800141c:	b402      	push	{r1}
 800141e:	f04f 31ff 	mov.w	r1, #4294967295	; 0xffffffff
 8001422:	2841      	cmp	r0, #65	; 0x41
 8001424:	d401      	bmi.n	800142a <is_hex+0xe>
 8001426:	f1a0 0007 	sub.w	r0, r0, #7
 800142a:	f1a0 0030 	sub.w	r0, r0, #48	; 0x30
 800142e:	d401      	bmi.n	8001434 <is_hex+0x18>
 8001430:	2810      	cmp	r0, #16
 8001432:	d401      	bmi.n	8001438 <is_hex+0x1c>
 8001434:	ea81 0101 	eor.w	r1, r1, r1
 8001438:	4009      	ands	r1, r1
 800143a:	bc02      	pop	{r1}
 800143c:	4770      	bx	lr
 800143e:	bf00      	nop

08001440 <is_bit>:
 8001440:	b402      	push	{r1}
 8001442:	f04f 31ff 	mov.w	r1, #4294967295	; 0xffffffff
 8001446:	f1a0 0030 	sub.w	r0, r0, #48	; 0x30
 800144a:	d401      	bmi.n	8001450 <is_bit+0x10>
 800144c:	2902      	cmp	r1, #2
 800144e:	d401      	bmi.n	8001454 <is_bit+0x14>
 8001450:	ea81 0101 	eor.w	r1, r1, r1
 8001454:	4009      	ands	r1, r1
 8001456:	bc02      	pop	{r1}
 8001458:	4770      	bx	lr
 800145a:	bf00      	nop

0800145c <is_alpha>:
 800145c:	b402      	push	{r1}
 800145e:	f04f 31ff 	mov.w	r1, #4294967295	; 0xffffffff
 8001462:	2841      	cmp	r0, #65	; 0x41
 8001464:	db01      	blt.n	800146a <is_alpha+0xe>
 8001466:	285b      	cmp	r0, #91	; 0x5b
 8001468:	d401      	bmi.n	800146e <is_alpha+0x12>
 800146a:	ea81 0101 	eor.w	r1, r1, r1
 800146e:	4009      	ands	r1, r1
 8001470:	bc02      	pop	{r1}
 8001472:	4770      	bx	lr

08001474 <is_num>:
 8001474:	b402      	push	{r1}
 8001476:	f04f 31ff 	mov.w	r1, #4294967295	; 0xffffffff
 800147a:	2830      	cmp	r0, #48	; 0x30
 800147c:	db01      	blt.n	8001482 <is_num+0xe>
 800147e:	283a      	cmp	r0, #58	; 0x3a
 8001480:	d401      	bmi.n	8001486 <is_num+0x12>
 8001482:	ea81 0101 	eor.w	r1, r1, r1
 8001486:	4009      	ands	r1, r1
 8001488:	bc02      	pop	{r1}
 800148a:	4770      	bx	lr

0800148c <is_alnum>:
 800148c:	b500      	push	{lr}
 800148e:	f7ff ffe5 	bl	800145c <is_alpha>
 8001492:	f85d eb04 	ldr.w	lr, [sp], #4
 8001496:	d104      	bne.n	80014a2 <is_alnum+0x16>
 8001498:	b500      	push	{lr}
 800149a:	f7ff ffeb 	bl	8001474 <is_num>
 800149e:	f85d eb04 	ldr.w	lr, [sp], #4
 80014a2:	4770      	bx	lr

080014a4 <atoi>:
 80014a4:	e92d 0304 	stmdb	sp!, {r2, r8, r9}
 80014a8:	4680      	mov	r8, r0
 80014aa:	460a      	mov	r2, r1
 80014ac:	ea81 0101 	eor.w	r1, r1, r1
 80014b0:	ea89 0909 	eor.w	r9, r9, r9
 80014b4:	f818 0b01 	ldrb.w	r0, [r8], #1
 80014b8:	b500      	push	{lr}
 80014ba:	f7ff ff99 	bl	80013f0 <upper>
 80014be:	f85d eb04 	ldr.w	lr, [sp], #4
 80014c2:	2830      	cmp	r0, #48	; 0x30
 80014c4:	d40f      	bmi.n	80014e6 <atoi+0x42>
 80014c6:	283a      	cmp	r0, #58	; 0x3a
 80014c8:	d403      	bmi.n	80014d2 <atoi+0x2e>
 80014ca:	2841      	cmp	r0, #65	; 0x41
 80014cc:	d40b      	bmi.n	80014e6 <atoi+0x42>
 80014ce:	f1a0 0007 	sub.w	r0, r0, #7
 80014d2:	f1a0 0030 	sub.w	r0, r0, #48	; 0x30
 80014d6:	4290      	cmp	r0, r2
 80014d8:	d505      	bpl.n	80014e6 <atoi+0x42>
 80014da:	fb02 f101 	mul.w	r1, r2, r1
 80014de:	4401      	add	r1, r0
 80014e0:	f109 0901 	add.w	r9, r9, #1
 80014e4:	e7e6      	b.n	80014b4 <atoi+0x10>
 80014e6:	4648      	mov	r0, r9
 80014e8:	e8bd 0304 	ldmia.w	sp!, {r2, r8, r9}
 80014ec:	4770      	bx	lr
 80014ee:	bf00      	nop

080014f0 <parse_keyword>:
 80014f0:	f84d 9d04 	str.w	r9, [sp, #-4]!
 80014f4:	f818 0003 	ldrb.w	r0, [r8, r3]
 80014f8:	f103 0301 	add.w	r3, r3, #1
 80014fc:	b300      	cbz	r0, 8001540 <parse_keyword+0x50>
 80014fe:	b500      	push	{lr}
 8001500:	f7ff ff76 	bl	80013f0 <upper>
 8001504:	f85d eb04 	ldr.w	lr, [sp], #4
 8001508:	b500      	push	{lr}
 800150a:	f7ff ffa7 	bl	800145c <is_alpha>
 800150e:	f85d eb04 	ldr.w	lr, [sp], #4
 8001512:	f000 8135 	beq.w	8001780 <syntax_error>
 8001516:	f809 0b01 	strb.w	r0, [r9], #1
 800151a:	f818 0003 	ldrb.w	r0, [r8, r3]
 800151e:	f103 0301 	add.w	r3, r3, #1
 8001522:	b168      	cbz	r0, 8001540 <parse_keyword+0x50>
 8001524:	b500      	push	{lr}
 8001526:	f7ff ff63 	bl	80013f0 <upper>
 800152a:	f85d eb04 	ldr.w	lr, [sp], #4
 800152e:	b500      	push	{lr}
 8001530:	f7ff ffac 	bl	800148c <is_alnum>
 8001534:	f85d eb04 	ldr.w	lr, [sp], #4
 8001538:	d002      	beq.n	8001540 <parse_keyword+0x50>
 800153a:	f809 0b01 	strb.w	r0, [r9], #1
 800153e:	e7ec      	b.n	800151a <parse_keyword+0x2a>
 8001540:	f1a3 0301 	sub.w	r3, r3, #1
 8001544:	ea80 0000 	eor.w	r0, r0, r0
 8001548:	f889 0000 	strb.w	r0, [r9]
 800154c:	9800      	ldr	r0, [sp, #0]
 800154e:	7841      	ldrb	r1, [r0, #1]
 8001550:	b929      	cbnz	r1, 800155e <parse_keyword+0x6e>
 8001552:	7801      	ldrb	r1, [r0, #0]
 8001554:	f1a1 0141 	sub.w	r1, r1, #65	; 0x41
 8001558:	f04f 0004 	mov.w	r0, #4
 800155c:	e008      	b.n	8001570 <parse_keyword+0x80>
 800155e:	f8df 19e4 	ldr.w	r1, [pc, #2532]	; 8001f44 <set_var+0x20>
 8001562:	b500      	push	{lr}
 8001564:	f000 f9c6 	bl	80018f4 <search_dict>
 8001568:	f85d eb04 	ldr.w	lr, [sp], #4
 800156c:	b900      	cbnz	r0, 8001570 <parse_keyword+0x80>
 800156e:	e107      	b.n	8001780 <syntax_error>
 8001570:	f85d 9b04 	ldr.w	r9, [sp], #4
 8001574:	4770      	bx	lr
 8001576:	bf00      	nop

08001578 <cmd_name>:
 8001578:	e92d 0300 	stmdb	sp!, {r8, r9}
 800157c:	f8df 89c4 	ldr.w	r8, [pc, #2500]	; 8001f44 <set_var+0x20>
 8001580:	f858 9c08 	ldr.w	r9, [r8, #-8]
 8001584:	4581      	cmp	r9, r0
 8001586:	d004      	beq.n	8001592 <cmd_name+0x1a>
 8001588:	f858 8c0c 	ldr.w	r8, [r8, #-12]
 800158c:	f1b8 0f00 	cmp.w	r8, #0
 8001590:	d1f6      	bne.n	8001580 <cmd_name+0x8>
 8001592:	4640      	mov	r0, r8
 8001594:	e8bd 0300 	ldmia.w	sp!, {r8, r9}
 8001598:	4770      	bx	lr
 800159a:	bf00      	nop

0800159c <decompile_line>:
 800159c:	e92d 0102 	stmdb	sp!, {r1, r8}
 80015a0:	4683      	mov	fp, r0
 80015a2:	f04f 0a00 	mov.w	sl, #0
 80015a6:	4688      	mov	r8, r1
 80015a8:	f83b 000a 	ldrh.w	r0, [fp, sl]
 80015ac:	f10a 0a02 	add.w	sl, sl, #2
 80015b0:	f04f 010a 	mov.w	r1, #10
 80015b4:	b500      	push	{lr}
 80015b6:	f7ff f977 	bl	80008a8 <itoa>
 80015ba:	f85d eb04 	ldr.w	lr, [sp], #4
 80015be:	4641      	mov	r1, r8
 80015c0:	b500      	push	{lr}
 80015c2:	f7ff fcb3 	bl	8000f2c <strcpy>
 80015c6:	f85d eb04 	ldr.w	lr, [sp], #4
 80015ca:	4640      	mov	r0, r8
 80015cc:	b500      	push	{lr}
 80015ce:	f7ff fc8b 	bl	8000ee8 <strlen>
 80015d2:	f85d eb04 	ldr.w	lr, [sp], #4
 80015d6:	4480      	add	r8, r0
 80015d8:	f81b 000a 	ldrb.w	r0, [fp, sl]
 80015dc:	f10a 0a01 	add.w	sl, sl, #1
 80015e0:	6060      	str	r0, [r4, #4]

080015e2 <decomp_loop>:
 80015e2:	b500      	push	{lr}
 80015e4:	f000 fab2 	bl	8001b4c <next_token>
 80015e8:	f85d eb04 	ldr.w	lr, [sp], #4
 80015ec:	2800      	cmp	r0, #0
 80015ee:	f000 8094 	beq.w	800171a <decomp_loop+0x138>
 80015f2:	280e      	cmp	r0, #14
 80015f4:	d115      	bne.n	8001622 <decomp_loop+0x40>
 80015f6:	4608      	mov	r0, r1
 80015f8:	69a1      	ldr	r1, [r4, #24]
 80015fa:	b500      	push	{lr}
 80015fc:	f7ff f954 	bl	80008a8 <itoa>
 8001600:	f85d eb04 	ldr.w	lr, [sp], #4
 8001604:	b401      	push	{r0}
 8001606:	4641      	mov	r1, r8
 8001608:	b500      	push	{lr}
 800160a:	f7ff fc8f 	bl	8000f2c <strcpy>
 800160e:	f85d eb04 	ldr.w	lr, [sp], #4
 8001612:	bc01      	pop	{r0}
 8001614:	b500      	push	{lr}
 8001616:	f7ff fc67 	bl	8000ee8 <strlen>
 800161a:	f85d eb04 	ldr.w	lr, [sp], #4
 800161e:	4480      	add	r8, r0
 8001620:	e7df      	b.n	80015e2 <decomp_loop>
 8001622:	2803      	cmp	r0, #3
 8001624:	d10a      	bne.n	800163c <decomp_loop+0x5a>
 8001626:	f04f 005c 	mov.w	r0, #92	; 0x5c
 800162a:	f808 0b01 	strb.w	r0, [r8], #1
 800162e:	f808 1b01 	strb.w	r1, [r8], #1
 8001632:	f04f 0020 	mov.w	r0, #32
 8001636:	f808 0b01 	strb.w	r0, [r8], #1
 800163a:	e7d2      	b.n	80015e2 <decomp_loop>
 800163c:	2802      	cmp	r0, #2
 800163e:	d117      	bne.n	8001670 <decomp_loop+0x8e>
 8001640:	f04f 0022 	mov.w	r0, #34	; 0x22
 8001644:	f808 0b01 	strb.w	r0, [r8], #1
 8001648:	4608      	mov	r0, r1
 800164a:	b402      	push	{r1}
 800164c:	4641      	mov	r1, r8
 800164e:	b500      	push	{lr}
 8001650:	f7ff fc6c 	bl	8000f2c <strcpy>
 8001654:	f85d eb04 	ldr.w	lr, [sp], #4
 8001658:	bc01      	pop	{r0}
 800165a:	b500      	push	{lr}
 800165c:	f7ff fc44 	bl	8000ee8 <strlen>
 8001660:	f85d eb04 	ldr.w	lr, [sp], #4
 8001664:	4480      	add	r8, r0
 8001666:	f04f 0022 	mov.w	r0, #34	; 0x22
 800166a:	f808 0b01 	strb.w	r0, [r8], #1
 800166e:	e7b8      	b.n	80015e2 <decomp_loop>
 8001670:	280a      	cmp	r0, #10
 8001672:	d43a      	bmi.n	80016ea <decomp_loop+0x108>
 8001674:	280e      	cmp	r0, #14
 8001676:	d538      	bpl.n	80016ea <decomp_loop+0x108>
 8001678:	f04f 0020 	mov.w	r0, #32
 800167c:	f808 0b01 	strb.w	r0, [r8], #1
 8001680:	4608      	mov	r0, r1
 8001682:	283a      	cmp	r0, #58	; 0x3a
 8001684:	d104      	bne.n	8001690 <decomp_loop+0xae>
 8001686:	f04f 003f 	mov.w	r0, #63	; 0x3f
 800168a:	f808 0b01 	strb.w	r0, [r8], #1
 800168e:	e027      	b.n	80016e0 <decomp_loop+0xfe>
 8001690:	2847      	cmp	r0, #71	; 0x47
 8001692:	d112      	bne.n	80016ba <decomp_loop+0xd8>
 8001694:	f04f 0027 	mov.w	r0, #39	; 0x27
 8001698:	f808 0b01 	strb.w	r0, [r8], #1
 800169c:	eb0b 000a 	add.w	r0, fp, sl
 80016a0:	4641      	mov	r1, r8
 80016a2:	b500      	push	{lr}
 80016a4:	f7ff fc42 	bl	8000f2c <strcpy>
 80016a8:	f85d eb04 	ldr.w	lr, [sp], #4
 80016ac:	ea80 0000 	eor.w	r0, r0, r0
 80016b0:	f888 0000 	strb.w	r0, [r8]
 80016b4:	f8d4 a004 	ldr.w	sl, [r4, #4]
 80016b8:	e02f      	b.n	800171a <decomp_loop+0x138>
 80016ba:	b500      	push	{lr}
 80016bc:	f7ff ff5c 	bl	8001578 <cmd_name>
 80016c0:	f85d eb04 	ldr.w	lr, [sp], #4
 80016c4:	b401      	push	{r0}
 80016c6:	4641      	mov	r1, r8
 80016c8:	b500      	push	{lr}
 80016ca:	f7ff fc2f 	bl	8000f2c <strcpy>
 80016ce:	f85d eb04 	ldr.w	lr, [sp], #4
 80016d2:	bc01      	pop	{r0}
 80016d4:	b500      	push	{lr}
 80016d6:	f7ff fc07 	bl	8000ee8 <strlen>
 80016da:	f85d eb04 	ldr.w	lr, [sp], #4
 80016de:	4480      	add	r8, r0
 80016e0:	f04f 0020 	mov.w	r0, #32
 80016e4:	f808 0b01 	strb.w	r0, [r8], #1
 80016e8:	e77b      	b.n	80015e2 <decomp_loop>
 80016ea:	b401      	push	{r0}
 80016ec:	f8df 1858 	ldr.w	r1, [pc, #2136]	; 8001f48 <set_var+0x24>
 80016f0:	5c08      	ldrb	r0, [r1, r0]
 80016f2:	bc02      	pop	{r1}
 80016f4:	b110      	cbz	r0, 80016fc <decomp_loop+0x11a>
 80016f6:	f808 0b01 	strb.w	r0, [r8], #1
 80016fa:	e772      	b.n	80015e2 <decomp_loop>
 80016fc:	2933      	cmp	r1, #51	; 0x33
 80016fe:	d102      	bne.n	8001706 <decomp_loop+0x124>
 8001700:	f8df 0848 	ldr.w	r0, [pc, #2120]	; 8001f4c <set_var+0x28>
 8001704:	e7de      	b.n	80016c4 <decomp_loop+0xe2>
 8001706:	2936      	cmp	r1, #54	; 0x36
 8001708:	d102      	bne.n	8001710 <decomp_loop+0x12e>
 800170a:	f8df 0844 	ldr.w	r0, [pc, #2116]	; 8001f50 <set_var+0x2c>
 800170e:	e7d9      	b.n	80016c4 <decomp_loop+0xe2>
 8001710:	2935      	cmp	r1, #53	; 0x35
 8001712:	d102      	bne.n	800171a <decomp_loop+0x138>
 8001714:	f8df 083c 	ldr.w	r0, [pc, #2108]	; 8001f54 <set_var+0x30>
 8001718:	e7d4      	b.n	80016c4 <decomp_loop+0xe2>
 800171a:	ea80 0000 	eor.w	r0, r0, r0
 800171e:	f888 0000 	strb.w	r0, [r8]
 8001722:	e8bd 0101 	ldmia.w	sp!, {r0, r8}
 8001726:	4770      	bx	lr

08001728 <ge_str>:
 8001728:	 	stccc	13, cr3, [r0], {62}	; 0x3e

0800172b <le_str>:
 800172b:	 	stccc	13, cr3, [r0], {60}	; 0x3c

0800172e <ne_str>:
 800172e:	 	andeq	r3, r0, ip, lsr lr

08001731 <single_char>:
 8001731:	00003a00 	andeq	r3, r0, r0, lsl #20
 8001735:	29284000 	stmdbcs	r8!, {lr}
 8001739:	0000232c 	andeq	r2, r0, ip, lsr #6
 800173d:	00000000 	andeq	r0, r0, r0
 8001741:	00002d2b 	andeq	r2, r0, fp, lsr #26
	...
 8001751:	00252f2a 	eoreq	r2, r5, sl, lsr #30
	...
 8001761:	003d3e00 	eorseq	r3, sp, r0, lsl #28
 8001765:	 	tsteq	r0, ip, lsr r0

08001768 <modulo>:
 8001768:	b401      	push	{r0}
 800176a:	fbb0 f0f1 	udiv	r0, r0, r1
 800176e:	fb01 f000 	mul.w	r0, r1, r0
 8001772:	bc02      	pop	{r1}
 8001774:	eba1 0100 	sub.w	r1, r1, r0
 8001778:	f04f 000e 	mov.w	r0, #14
 800177c:	4770      	bx	lr
 800177e:	bf00      	nop

08001780 <syntax_error>:
 8001780:	f04f 0002 	mov.w	r0, #2
 8001784:	e000      	b.n	8001788 <tb_error>
 8001786:	bf00      	nop

08001788 <tb_error>:
 8001788:	6c21      	ldr	r1, [r4, #64]	; 0x40
 800178a:	f011 0f20 	tst.w	r1, #32
 800178e:	d143      	bne.n	8001818 <compile_error>

08001790 <rt_error>:
 8001790:	b401      	push	{r0}
 8001792:	f8df 07c4 	ldr.w	r0, [pc, #1988]	; 8001f58 <set_var+0x34>
 8001796:	b500      	push	{lr}
 8001798:	f7ff f860 	bl	800085c <uart_puts>
 800179c:	f85d eb04 	ldr.w	lr, [sp], #4
 80017a0:	bc01      	pop	{r0}
 80017a2:	f8df 17b8 	ldr.w	r1, [pc, #1976]	; 8001f5c <set_var+0x38>
 80017a6:	ea4f 0080 	mov.w	r0, r0, lsl #2
 80017aa:	5808      	ldr	r0, [r1, r0]
 80017ac:	b500      	push	{lr}
 80017ae:	f7ff f855 	bl	800085c <uart_puts>
 80017b2:	f85d eb04 	ldr.w	lr, [sp], #4
 80017b6:	f8d4 b008 	ldr.w	fp, [r4, #8]
 80017ba:	f8bb 0000 	ldrh.w	r0, [fp]
 80017be:	f04f 010a 	mov.w	r1, #10
 80017c2:	b500      	push	{lr}
 80017c4:	f7ff f8a6 	bl	8000914 <print_int>
 80017c8:	f85d eb04 	ldr.w	lr, [sp], #4
 80017cc:	f04f 002c 	mov.w	r0, #44	; 0x2c
 80017d0:	b500      	push	{lr}
 80017d2:	f7fe ff33 	bl	800063c <uart_putc>
 80017d6:	f85d eb04 	ldr.w	lr, [sp], #4
 80017da:	f8d4 a000 	ldr.w	sl, [r4]
 80017de:	b500      	push	{lr}
 80017e0:	f000 f9b4 	bl	8001b4c <next_token>
 80017e4:	f85d eb04 	ldr.w	lr, [sp], #4
 80017e8:	b402      	push	{r1}
 80017ea:	f04f 010a 	mov.w	r1, #10
 80017ee:	b500      	push	{lr}
 80017f0:	f7ff f890 	bl	8000914 <print_int>
 80017f4:	f85d eb04 	ldr.w	lr, [sp], #4
 80017f8:	f04f 002c 	mov.w	r0, #44	; 0x2c
 80017fc:	b500      	push	{lr}
 80017fe:	f7fe ff1d 	bl	800063c <uart_putc>
 8001802:	f85d eb04 	ldr.w	lr, [sp], #4
 8001806:	bc01      	pop	{r0}
 8001808:	f04f 010a 	mov.w	r1, #10
 800180c:	b500      	push	{lr}
 800180e:	f7ff f881 	bl	8000914 <print_int>
 8001812:	f85d eb04 	ldr.w	lr, [sp], #4
 8001816:	e14f      	b.n	8001ab8 <warm_start>

08001818 <compile_error>:
 8001818:	f8df 1740 	ldr.w	r1, [pc, #1856]	; 8001f5c <set_var+0x38>
 800181c:	ea4f 0080 	mov.w	r0, r0, lsl #2
 8001820:	5808      	ldr	r0, [r1, r0]
 8001822:	b500      	push	{lr}
 8001824:	f7ff f81a 	bl	800085c <uart_puts>
 8001828:	f85d eb04 	ldr.w	lr, [sp], #4
 800182c:	68a0      	ldr	r0, [r4, #8]
 800182e:	b500      	push	{lr}
 8001830:	f7ff f814 	bl	800085c <uart_puts>
 8001834:	f85d eb04 	ldr.w	lr, [sp], #4
 8001838:	f04f 000d 	mov.w	r0, #13
 800183c:	b500      	push	{lr}
 800183e:	f7fe fefd 	bl	800063c <uart_putc>
 8001842:	f85d eb04 	ldr.w	lr, [sp], #4
 8001846:	6820      	ldr	r0, [r4, #0]
 8001848:	b500      	push	{lr}
 800184a:	f7ff f92d 	bl	8000aa8 <spaces>
 800184e:	f85d eb04 	ldr.w	lr, [sp], #4
 8001852:	f04f 005e 	mov.w	r0, #94	; 0x5e
 8001856:	b500      	push	{lr}
 8001858:	f7fe fef0 	bl	800063c <uart_putc>
 800185c:	f85d eb04 	ldr.w	lr, [sp], #4
 8001860:	f04f 000d 	mov.w	r0, #13
 8001864:	b500      	push	{lr}
 8001866:	f7fe fee9 	bl	800063c <uart_putc>
 800186a:	f85d eb04 	ldr.w	lr, [sp], #4
 800186e:	e123      	b.n	8001ab8 <warm_start>

08001870 <rt_error_msg>:
 8001870:	6e75520a 	cdpvs	2, 7, cr5, cr5, cr10, {0}
 8001874:	656d6974 	strbvs	r6, [sp, #-2420]!	; 0xfffff68c
 8001878:	72726520 	rsbsvc	r6, r2, #32, 10	; 0x8000000
 800187c:	000a726f 	andeq	r7, sl, pc, ror #4

08001880 <err_msg>:
 8001880:	00000000 	andeq	r0, r0, r0
 8001884:	08002cd0 	stmdaeq	r0, {r4, r6, r7, sl, fp, sp}
 8001888:	08002cdd 	stmdaeq	r0, {r0, r2, r3, r4, r6, r7, sl, fp, sp}
 800188c:	08002ceb 	stmdaeq	r0, {r0, r1, r3, r5, r6, r7, sl, fp, sp}
 8001890:	08002d04 	stmdaeq	r0, {r2, r8, sl, fp, sp}
 8001894:	08002d13 	stmdaeq	r0, {r0, r1, r4, r8, sl, fp, sp}
 8001898:	08002d29 	stmdaeq	r0, {r0, r3, r5, r8, sl, fp, sp}
 800189c:	08002d3f 	stmdaeq	r0, {r0, r1, r2, r3, r4, r5, r8, sl, fp, sp}
 80018a0:	08002d59 	stmdaeq	r0, {r0, r3, r4, r6, r8, sl, fp, sp}
 80018a4:	08002d6a 	stmdaeq	r0, {r1, r3, r5, r6, r8, sl, fp, sp}
 80018a8:	08002d7b 	stmdaeq	r0, {r0, r1, r3, r4, r5, r6, r8, sl, fp, sp}
 80018ac:	08002d87 	stmdaeq	r0, {r0, r1, r2, r7, r8, sl, fp, sp}
 80018b0:	08002dba 	stmdaeq	r0, {r1, r3, r4, r5, r7, r8, sl, fp, sp}
 80018b4:	08002dca 	stmdaeq	r0, {r1, r3, r6, r7, r8, sl, fp, sp}
 80018b8:	08002dde 	stmdaeq	r0, {r1, r2, r3, r4, r6, r7, r8, sl, fp, sp}
 80018bc:	08002df1 	stmdaeq	r0, {r0, r4, r5, r6, r7, r8, sl, fp, sp}

080018c0 <skip_line>:
 80018c0:	f8d4 a004 	ldr.w	sl, [r4, #4]
 80018c4:	4770      	bx	lr
 80018c6:	bf00      	nop

080018c8 <BTGL>:
 80018c8:	4770      	bx	lr
 80018ca:	bf00      	nop

080018cc <kword_cmp>:
 80018cc:	e92d 0340 	stmdb	sp!, {r6, r8, r9}
 80018d0:	f04f 36ff 	mov.w	r6, #4294967295	; 0xffffffff
 80018d4:	b14a      	cbz	r2, 80018ea <kword_cmp+0x1e>
 80018d6:	f810 8b01 	ldrb.w	r8, [r0], #1
 80018da:	f811 9b01 	ldrb.w	r9, [r1], #1
 80018de:	f1a2 0201 	sub.w	r2, r2, #1
 80018e2:	45c8      	cmp	r8, r9
 80018e4:	d0f6      	beq.n	80018d4 <kword_cmp+0x8>
 80018e6:	ea86 0606 	eor.w	r6, r6, r6
 80018ea:	4630      	mov	r0, r6
 80018ec:	e8bd 0340 	ldmia.w	sp!, {r6, r8, r9}
 80018f0:	4770      	bx	lr
 80018f2:	bf00      	nop

080018f4 <search_dict>:
 80018f4:	e92d 030c 	stmdb	sp!, {r2, r3, r8, r9}
 80018f8:	4680      	mov	r8, r0
 80018fa:	b500      	push	{lr}
 80018fc:	f7ff faf4 	bl	8000ee8 <strlen>
 8001900:	f85d eb04 	ldr.w	lr, [sp], #4
 8001904:	4603      	mov	r3, r0
 8001906:	4689      	mov	r9, r1
 8001908:	7808      	ldrb	r0, [r1, #0]
 800190a:	b178      	cbz	r0, 800192c <search_dict+0x38>
 800190c:	4640      	mov	r0, r8
 800190e:	461a      	mov	r2, r3
 8001910:	b500      	push	{lr}
 8001912:	f7ff ffdb 	bl	80018cc <kword_cmp>
 8001916:	f85d eb04 	ldr.w	lr, [sp], #4
 800191a:	b918      	cbnz	r0, 8001924 <search_dict+0x30>
 800191c:	4649      	mov	r1, r9
 800191e:	f851 1c0c 	ldr.w	r1, [r1, #-12]
 8001922:	e7f0      	b.n	8001906 <search_dict+0x12>
 8001924:	f859 0c04 	ldr.w	r0, [r9, #-4]
 8001928:	f859 1c08 	ldr.w	r1, [r9, #-8]
 800192c:	e8bd 030c 	ldmia.w	sp!, {r2, r3, r8, r9}
 8001930:	4770      	bx	lr

08001932 <cold_start>:
 8001932:	f04f 0400 	mov.w	r4, #0
 8001936:	f2c2 0400 	movt	r4, #8192	; 0x2000
 800193a:	f8df 0044 	ldr.w	r0, [pc, #68]	; 8001980 <src_addr>
 800193e:	4911      	ldr	r1, [pc, #68]	; (8001984 <dest_addr>)
 8001940:	6809      	ldr	r1, [r1, #0]
 8001942:	440c      	add	r4, r1
 8001944:	4620      	mov	r0, r4
 8001946:	f8df 115c 	ldr.w	r1, [pc, #348]	; 8001aa4 <tib>
 800194a:	ea82 0202 	eor.w	r2, r2, r2
 800194e:	f840 2b04 	str.w	r2, [r0], #4
 8001952:	4288      	cmp	r0, r1
 8001954:	d4fb      	bmi.n	800194e <cold_start+0x1c>
 8001956:	f8df 0028 	ldr.w	r0, [pc, #40]	; 8001980 <src_addr>
 800195a:	4621      	mov	r1, r4
 800195c:	f8df 2028 	ldr.w	r2, [pc, #40]	; 8001988 <sysvar_size>
 8001960:	b500      	push	{lr}
 8001962:	f7ff facd 	bl	8000f00 <cmove>
 8001966:	f85d eb04 	ldr.w	lr, [sp], #4
 800196a:	b500      	push	{lr}
 800196c:	f000 f80e 	bl	800198c <prt_version>
 8001970:	f85d eb04 	ldr.w	lr, [sp], #4
 8001974:	b500      	push	{lr}
 8001976:	f000 f85d 	bl	8001a34 <clear_basic>
 800197a:	f85d eb04 	ldr.w	lr, [sp], #4
 800197e:	e09b      	b.n	8001ab8 <warm_start>

08001980 <src_addr>:
 8001980:	08002c04 	stmdaeq	r0, {r2, sl, fp, sp}

08001984 <dest_addr>:
 8001984:	08000130 	stmdaeq	r0, {r4, r5, r8}

08001988 <sysvar_size>:
 8001988:	000000cc 	andeq	r0, r0, ip, asr #1

0800198c <prt_version>:
 800198c:	f8df 05d0 	ldr.w	r0, [pc, #1488]	; 8001f60 <set_var+0x3c>
 8001990:	b500      	push	{lr}
 8001992:	f7fe ff63 	bl	800085c <uart_puts>
 8001996:	f85d eb04 	ldr.w	lr, [sp], #4
 800199a:	f89f 0078 	ldrb.w	r0, [pc, #120]	; 8001a14 <version>
 800199e:	ea4f 1010 	mov.w	r0, r0, lsr #4
 80019a2:	f100 0030 	add.w	r0, r0, #48	; 0x30
 80019a6:	283a      	cmp	r0, #58	; 0x3a
 80019a8:	d401      	bmi.n	80019ae <prt_version+0x22>
 80019aa:	f100 0007 	add.w	r0, r0, #7
 80019ae:	b500      	push	{lr}
 80019b0:	f7fe fe44 	bl	800063c <uart_putc>
 80019b4:	f85d eb04 	ldr.w	lr, [sp], #4
 80019b8:	f04f 002e 	mov.w	r0, #46	; 0x2e
 80019bc:	b500      	push	{lr}
 80019be:	f7fe fe3d 	bl	800063c <uart_putc>
 80019c2:	f85d eb04 	ldr.w	lr, [sp], #4
 80019c6:	f89f 004c 	ldrb.w	r0, [pc, #76]	; 8001a14 <version>
 80019ca:	f000 000f 	and.w	r0, r0, #15
 80019ce:	f100 0030 	add.w	r0, r0, #48	; 0x30
 80019d2:	283a      	cmp	r0, #58	; 0x3a
 80019d4:	d401      	bmi.n	80019da <prt_version+0x4e>
 80019d6:	f100 0007 	add.w	r0, r0, #7
 80019da:	b500      	push	{lr}
 80019dc:	f7fe fe2e 	bl	800063c <uart_putc>
 80019e0:	f85d eb04 	ldr.w	lr, [sp], #4
 80019e4:	f04f 000d 	mov.w	r0, #13
 80019e8:	b500      	push	{lr}
 80019ea:	f7fe fe27 	bl	800063c <uart_putc>
 80019ee:	f85d eb04 	ldr.w	lr, [sp], #4
 80019f2:	4770      	bx	lr

080019f4 <version_msg>:
 80019f4:	756c620a 	strbvc	r6, [ip, #-522]!	; 0xfffffdf6
 80019f8:	69702065 	ldmdbvs	r0!, {r0, r2, r5, r6, sp}^
 80019fc:	74206c6c 	strtvc	r6, [r0], #-3180	; 0xfffff394
 8001a00:	20796e69 	rsbscs	r6, r9, r9, ror #28
 8001a04:	49534142 	ldmdbmi	r3, {r1, r6, r8, lr}^
 8001a08:	76202c43 	strtvc	r2, [r0], -r3, asr #24
 8001a0c:	69737265 	ldmdbvs	r3!, {r0, r2, r5, r6, r9, ip, sp, lr}^
 8001a10:	00206e6f 	eoreq	r6, r0, pc, ror #28

08001a14 <version>:
 8001a14:	bf000010 	svclt	0x00000010

08001a18 <clear_vars>:
 8001a18:	b407      	push	{r0, r1, r2}
 8001a1a:	ea80 0000 	eor.w	r0, r0, r0
 8001a1e:	f104 0160 	add.w	r1, r4, #96	; 0x60
 8001a22:	f04f 021a 	mov.w	r2, #26
 8001a26:	f841 0b04 	str.w	r0, [r1], #4
 8001a2a:	3a01      	subs	r2, #1
 8001a2c:	d1fb      	bne.n	8001a26 <clear_vars+0xe>
 8001a2e:	bc07      	pop	{r0, r1, r2}
 8001a30:	4770      	bx	lr
 8001a32:	bf00      	nop

08001a34 <clear_basic>:
 8001a34:	ea80 0000 	eor.w	r0, r0, r0
 8001a38:	6420      	str	r0, [r4, #64]	; 0x40
 8001a3a:	6060      	str	r0, [r4, #4]
 8001a3c:	6020      	str	r0, [r4, #0]
 8001a3e:	60a0      	str	r0, [r4, #8]
 8001a40:	60e0      	str	r0, [r4, #12]
 8001a42:	6120      	str	r0, [r4, #16]
 8001a44:	6160      	str	r0, [r4, #20]
 8001a46:	f104 00cc 	add.w	r0, r4, #204	; 0xcc
 8001a4a:	f100 0010 	add.w	r0, r0, #16
 8001a4e:	f06f 010f 	mvn.w	r1, #15
 8001a52:	ea00 0001 	and.w	r0, r0, r1
 8001a56:	6320      	str	r0, [r4, #48]	; 0x30
 8001a58:	6360      	str	r0, [r4, #52]	; 0x34
 8001a5a:	b500      	push	{lr}
 8001a5c:	f7ff ffdc 	bl	8001a18 <clear_vars>
 8001a60:	f85d eb04 	ldr.w	lr, [sp], #4
 8001a64:	6b20      	ldr	r0, [r4, #48]	; 0x30
 8001a66:	f8df 103c 	ldr.w	r1, [pc, #60]	; 8001aa4 <tib>
 8001a6a:	ea82 0202 	eor.w	r2, r2, r2
 8001a6e:	f840 2b04 	str.w	r2, [r0], #4
 8001a72:	4288      	cmp	r0, r1
 8001a74:	d4fb      	bmi.n	8001a6e <clear_basic+0x3a>
 8001a76:	4770      	bx	lr

08001a78 <warm_init>:
 8001a78:	f8df c024 	ldr.w	ip, [pc, #36]	; 8001aa0 <dstack>
 8001a7c:	f04f 0a00 	mov.w	sl, #0
 8001a80:	f04f 0b00 	mov.w	fp, #0
 8001a84:	ea80 0000 	eor.w	r0, r0, r0
 8001a88:	6060      	str	r0, [r4, #4]
 8001a8a:	6420      	str	r0, [r4, #64]	; 0x40
 8001a8c:	63a0      	str	r0, [r4, #56]	; 0x38
 8001a8e:	f04f 0004 	mov.w	r0, #4
 8001a92:	6460      	str	r0, [r4, #68]	; 0x44
 8001a94:	f04f 000a 	mov.w	r0, #10
 8001a98:	61a0      	str	r0, [r4, #24]
 8001a9a:	4770      	bx	lr

08001a9c <mstack>:
 8001a9c:	20005000 	andcs	r5, r0, r0

08001aa0 <dstack>:
 8001aa0:	20004f00 	andcs	r4, r0, r0, lsl #30

08001aa4 <tib>:
 8001aa4:	20004e30 	andcs	r4, r0, r0, lsr lr

08001aa8 <pad>:
 8001aa8:	20004db0 			; <UNDEFINED> instruction: 0x20004db0

08001aac <array>:
 8001aac:	20004dac 	andcs	r4, r0, ip, lsr #27

08001ab0 <ready>:
 8001ab0:	4145520a 	cmpmi	r5, sl, lsl #4
 8001ab4:	00005944 	andeq	r5, r0, r4, asr #18

08001ab8 <warm_start>:
 8001ab8:	f7ff ffde 	bl	8001a78 <warm_init>
 8001abc:	f85f 0024 	ldr.w	r0, [pc, #-36]	; 8001a9c <mstack>
 8001ac0:	4685      	mov	sp, r0
 8001ac2:	f8df 04a0 	ldr.w	r0, [pc, #1184]	; 8001f64 <set_var+0x40>
 8001ac6:	b500      	push	{lr}
 8001ac8:	f7fe fec8 	bl	800085c <uart_puts>
 8001acc:	f85d eb04 	ldr.w	lr, [sp], #4

08001ad0 <cmd_line>:
 8001ad0:	f04f 000d 	mov.w	r0, #13
 8001ad4:	b500      	push	{lr}
 8001ad6:	f7fe fdb1 	bl	800063c <uart_putc>
 8001ada:	f85d eb04 	ldr.w	lr, [sp], #4
 8001ade:	f85f 003c 	ldr.w	r0, [pc, #-60]	; 8001aa4 <tib>
 8001ae2:	f04f 0150 	mov.w	r1, #80	; 0x50
 8001ae6:	b500      	push	{lr}
 8001ae8:	f7ff f83e 	bl	8000b68 <readln>
 8001aec:	f85d eb04 	ldr.w	lr, [sp], #4
 8001af0:	4009      	ands	r1, r1
 8001af2:	d0f4      	beq.n	8001ade <cmd_line+0xe>
 8001af4:	b500      	push	{lr}
 8001af6:	f7ff fb09 	bl	800110c <compile>
 8001afa:	f85d eb04 	ldr.w	lr, [sp], #4
 8001afe:	d0ee      	beq.n	8001ade <cmd_line+0xe>

08001b00 <interpreter>:
 8001b00:	b500      	push	{lr}
 8001b02:	f000 f823 	bl	8001b4c <next_token>
 8001b06:	f85d eb04 	ldr.w	lr, [sp], #4
 8001b0a:	2800      	cmp	r0, #0
 8001b0c:	d0f8      	beq.n	8001b00 <interpreter>
 8001b0e:	280a      	cmp	r0, #10
 8001b10:	d103      	bne.n	8001b1a <interpreter+0x1a>
 8001b12:	4608      	mov	r0, r1
 8001b14:	f000 f814 	bl	8001b40 <execute>
 8001b18:	e7f2      	b.n	8001b00 <interpreter>
 8001b1a:	2804      	cmp	r0, #4
 8001b1c:	d105      	bne.n	8001b2a <interpreter+0x2a>
 8001b1e:	b500      	push	{lr}
 8001b20:	f000 fcbb 	bl	800249a <let_var>
 8001b24:	f85d eb04 	ldr.w	lr, [sp], #4
 8001b28:	e7ea      	b.n	8001b00 <interpreter>
 8001b2a:	2805      	cmp	r0, #5
 8001b2c:	d105      	bne.n	8001b3a <interpreter+0x3a>
 8001b2e:	b500      	push	{lr}
 8001b30:	f000 fcb9 	bl	80024a6 <let_array>
 8001b34:	f85d eb04 	ldr.w	lr, [sp], #4
 8001b38:	e7e2      	b.n	8001b00 <interpreter>
 8001b3a:	2801      	cmp	r0, #1
 8001b3c:	d0e0      	beq.n	8001b00 <interpreter>
 8001b3e:	e61f      	b.n	8001780 <syntax_error>

08001b40 <execute>:
 8001b40:	f8df 1424 	ldr.w	r1, [pc, #1060]	; 8001f68 <set_var+0x44>
 8001b44:	f851 0020 	ldr.w	r0, [r1, r0, lsl #2]
 8001b48:	4700      	bx	r0
 8001b4a:	bf00      	nop

08001b4c <next_token>:
 8001b4c:	f84d 8d04 	str.w	r8, [sp, #-4]!
 8001b50:	ea88 0808 	eor.w	r8, r8, r8
 8001b54:	6860      	ldr	r0, [r4, #4]
 8001b56:	4582      	cmp	sl, r0
 8001b58:	d40f      	bmi.n	8001b7a <end_of_line+0x18>

08001b5a <new_line>:
 8001b5a:	f8bb 1000 	ldrh.w	r1, [fp]
 8001b5e:	b901      	cbnz	r1, 8001b62 <end_of_line>
 8001b60:	e7aa      	b.n	8001ab8 <warm_start>

08001b62 <end_of_line>:
 8001b62:	4483      	add	fp, r0
 8001b64:	6b60      	ldr	r0, [r4, #52]	; 0x34
 8001b66:	4583      	cmp	fp, r0
 8001b68:	d5a6      	bpl.n	8001ab8 <warm_start>
 8001b6a:	f89b 0002 	ldrb.w	r0, [fp, #2]
 8001b6e:	6060      	str	r0, [r4, #4]
 8001b70:	f04f 0a03 	mov.w	sl, #3
 8001b74:	f04f 0001 	mov.w	r0, #1
 8001b78:	e02a      	b.n	8001bd0 <end_of_line+0x6e>
 8001b7a:	f8c4 a000 	str.w	sl, [r4]
 8001b7e:	f8c4 b008 	str.w	fp, [r4, #8]
 8001b82:	f81b 000a 	ldrb.w	r0, [fp, sl]
 8001b86:	f10a 0a01 	add.w	sl, sl, #1
 8001b8a:	4680      	mov	r8, r0
 8001b8c:	f000 003f 	and.w	r0, r0, #63	; 0x3f
 8001b90:	49f6      	ldr	r1, [pc, #984]	; (8001f6c <set_var+0x48>)
 8001b92:	e8d1 f000 	tbb	[r1, r0]
 8001b96:	e01b      	b.n	8001bd0 <end_of_line+0x6e>
 8001b98:	f81b 100a 	ldrb.w	r1, [fp, sl]
 8001b9c:	f10a 0a01 	add.w	sl, sl, #1
 8001ba0:	e016      	b.n	8001bd0 <end_of_line+0x6e>
 8001ba2:	f83b 100a 	ldrh.w	r1, [fp, sl]
 8001ba6:	f10a 0a02 	add.w	sl, sl, #2
 8001baa:	e011      	b.n	8001bd0 <end_of_line+0x6e>
 8001bac:	f85b 100a 	ldr.w	r1, [fp, sl]
 8001bb0:	f10a 0a04 	add.w	sl, sl, #4
 8001bb4:	e00c      	b.n	8001bd0 <end_of_line+0x6e>
 8001bb6:	eb0b 010a 	add.w	r1, fp, sl
 8001bba:	4608      	mov	r0, r1
 8001bbc:	b500      	push	{lr}
 8001bbe:	f7ff f993 	bl	8000ee8 <strlen>
 8001bc2:	f85d eb04 	ldr.w	lr, [sp], #4
 8001bc6:	4482      	add	sl, r0
 8001bc8:	f10a 0a01 	add.w	sl, sl, #1
 8001bcc:	e000      	b.n	8001bd0 <end_of_line+0x6e>
 8001bce:	e5d7      	b.n	8001780 <syntax_error>
 8001bd0:	4640      	mov	r0, r8
 8001bd2:	f85d 8b04 	ldr.w	r8, [sp], #4
 8001bd6:	4770      	bx	lr

08001bd8 <tok_jmp>:
 8001bd8:	01101d1d 	tsteq	r0, sp, lsl sp
 8001bdc:	1d1d1d01 	ldcne	13, cr1, [sp, #-4]
 8001be0:	01011d1d 	tsteq	r1, sp, lsl sp
 8001be4:	1c0b0101 	stfnes	f0, [fp], {1}
 8001be8:	1c1c1d1d 	ldcne	13, cr1, [ip], {29}
 8001bec:	1c1c1c1c 	ldcne	12, cr1, [ip], {28}
 8001bf0:	1c1c1c1c 	ldcne	12, cr1, [ip], {28}
 8001bf4:	1c1c1c1c 	ldcne	12, cr1, [ip], {28}
 8001bf8:	1c1d1d1d 	ldcne	13, cr1, [sp], {29}
 8001bfc:	1c1c1c1c 	ldcne	12, cr1, [ip], {28}
 8001c00:	1c1c1c1c 	ldcne	12, cr1, [ip], {28}
 8001c04:	1c1c1c1c 	ldcne	12, cr1, [ip], {28}
 8001c08:	1d1d1d1c 	ldcne	13, cr1, [sp, #-112]	; 0xffffff90
 8001c0c:	1c1d1d1d 	ldcne	13, cr1, [sp], {29}
 8001c10:	1c1c1c1c 	ldcne	12, cr1, [ip], {28}
 8001c14:	1c1c1c1c 	ldcne	12, cr1, [ip], {28}

08001c18 <expect>:
 8001c18:	f84d 8d04 	str.w	r8, [sp, #-4]!
 8001c1c:	4680      	mov	r8, r0
 8001c1e:	b500      	push	{lr}
 8001c20:	f7ff ff94 	bl	8001b4c <next_token>
 8001c24:	f85d eb04 	ldr.w	lr, [sp], #4
 8001c28:	4540      	cmp	r0, r8
 8001c2a:	f47f ada9 	bne.w	8001780 <syntax_error>
 8001c2e:	f85d 8b04 	ldr.w	r8, [sp], #4
 8001c32:	4770      	bx	lr

08001c34 <func_args>:
 8001c34:	f04f 0006 	mov.w	r0, #6
 8001c38:	b500      	push	{lr}
 8001c3a:	f7ff ffed 	bl	8001c18 <expect>
 8001c3e:	f85d eb04 	ldr.w	lr, [sp], #4
 8001c42:	b500      	push	{lr}
 8001c44:	f000 f80c 	bl	8001c60 <arg_list>
 8001c48:	f85d eb04 	ldr.w	lr, [sp], #4
 8001c4c:	b401      	push	{r0}
 8001c4e:	f04f 0007 	mov.w	r0, #7
 8001c52:	b500      	push	{lr}
 8001c54:	f7ff ffe0 	bl	8001c18 <expect>
 8001c58:	f85d eb04 	ldr.w	lr, [sp], #4
 8001c5c:	bc01      	pop	{r0}
 8001c5e:	4770      	bx	lr

08001c60 <arg_list>:
 8001c60:	f84d 8d04 	str.w	r8, [sp, #-4]!
 8001c64:	ea88 0808 	eor.w	r8, r8, r8
 8001c68:	b500      	push	{lr}
 8001c6a:	f000 f8c9 	bl	8001e00 <expression>
 8001c6e:	f85d eb04 	ldr.w	lr, [sp], #4
 8001c72:	2800      	cmp	r0, #0
 8001c74:	d010      	beq.n	8001c98 <arg_list+0x38>
 8001c76:	280e      	cmp	r0, #14
 8001c78:	d10e      	bne.n	8001c98 <arg_list+0x38>
 8001c7a:	f84c 1d04 	str.w	r1, [ip, #-4]!
 8001c7e:	f108 0801 	add.w	r8, r8, #1
 8001c82:	b500      	push	{lr}
 8001c84:	f7ff ff62 	bl	8001b4c <next_token>
 8001c88:	f85d eb04 	ldr.w	lr, [sp], #4
 8001c8c:	2808      	cmp	r0, #8
 8001c8e:	d0eb      	beq.n	8001c68 <arg_list+0x8>
 8001c90:	f8d4 a000 	ldr.w	sl, [r4]
 8001c94:	f8d4 b008 	ldr.w	fp, [r4, #8]
 8001c98:	4640      	mov	r0, r8
 8001c9a:	f85d 8b04 	ldr.w	r8, [sp], #4
 8001c9e:	4770      	bx	lr

08001ca0 <factor>:
 8001ca0:	e92d 0304 	stmdb	sp!, {r2, r8, r9}
 8001ca4:	f04f 090e 	mov.w	r9, #14
 8001ca8:	f04f 0801 	mov.w	r8, #1
 8001cac:	b500      	push	{lr}
 8001cae:	f7ff ff4d 	bl	8001b4c <next_token>
 8001cb2:	f85d eb04 	ldr.w	lr, [sp], #4
 8001cb6:	4602      	mov	r2, r0
 8001cb8:	f000 0030 	and.w	r0, r0, #48	; 0x30
 8001cbc:	2810      	cmp	r0, #16
 8001cbe:	4610      	mov	r0, r2
 8001cc0:	d108      	bne.n	8001cd4 <factor+0x34>
 8001cc2:	2810      	cmp	r0, #16
 8001cc4:	d001      	beq.n	8001cca <factor+0x2a>
 8001cc6:	f04f 38ff 	mov.w	r8, #4294967295	; 0xffffffff
 8001cca:	b500      	push	{lr}
 8001ccc:	f7ff ff3e 	bl	8001b4c <next_token>
 8001cd0:	f85d eb04 	ldr.w	lr, [sp], #4
 8001cd4:	280e      	cmp	r0, #14
 8001cd6:	d04e      	beq.n	8001d76 <factor+0xd6>
 8001cd8:	2805      	cmp	r0, #5
 8001cda:	d11e      	bne.n	8001d1a <factor+0x7a>
 8001cdc:	f04f 0006 	mov.w	r0, #6
 8001ce0:	b500      	push	{lr}
 8001ce2:	f7ff ff99 	bl	8001c18 <expect>
 8001ce6:	f85d eb04 	ldr.w	lr, [sp], #4
 8001cea:	b500      	push	{lr}
 8001cec:	f000 f888 	bl	8001e00 <expression>
 8001cf0:	f85d eb04 	ldr.w	lr, [sp], #4
 8001cf4:	280e      	cmp	r0, #14
 8001cf6:	f47f ad43 	bne.w	8001780 <syntax_error>
 8001cfa:	4681      	mov	r9, r0
 8001cfc:	460a      	mov	r2, r1
 8001cfe:	f04f 0007 	mov.w	r0, #7
 8001d02:	b500      	push	{lr}
 8001d04:	f7ff ff88 	bl	8001c18 <expect>
 8001d08:	f85d eb04 	ldr.w	lr, [sp], #4
 8001d0c:	4610      	mov	r0, r2
 8001d0e:	b500      	push	{lr}
 8001d10:	f000 f8ec 	bl	8001eec <get_array_element>
 8001d14:	f85d eb04 	ldr.w	lr, [sp], #4
 8001d18:	e02d      	b.n	8001d76 <factor+0xd6>
 8001d1a:	2806      	cmp	r0, #6
 8001d1c:	d112      	bne.n	8001d44 <factor+0xa4>
 8001d1e:	b500      	push	{lr}
 8001d20:	f000 f86e 	bl	8001e00 <expression>
 8001d24:	f85d eb04 	ldr.w	lr, [sp], #4
 8001d28:	280e      	cmp	r0, #14
 8001d2a:	f47f ad29 	bne.w	8001780 <syntax_error>
 8001d2e:	4681      	mov	r9, r0
 8001d30:	460a      	mov	r2, r1
 8001d32:	f04f 0007 	mov.w	r0, #7
 8001d36:	b500      	push	{lr}
 8001d38:	f7ff ff6e 	bl	8001c18 <expect>
 8001d3c:	f85d eb04 	ldr.w	lr, [sp], #4
 8001d40:	4611      	mov	r1, r2
 8001d42:	e018      	b.n	8001d76 <factor+0xd6>
 8001d44:	2804      	cmp	r0, #4
 8001d46:	d106      	bne.n	8001d56 <factor+0xb6>
 8001d48:	4608      	mov	r0, r1
 8001d4a:	b500      	push	{lr}
 8001d4c:	f000 f8e2 	bl	8001f14 <get_var>
 8001d50:	f85d eb04 	ldr.w	lr, [sp], #4
 8001d54:	e00f      	b.n	8001d76 <factor+0xd6>
 8001d56:	280b      	cmp	r0, #11
 8001d58:	d106      	bne.n	8001d68 <factor+0xc8>
 8001d5a:	4608      	mov	r0, r1
 8001d5c:	b500      	push	{lr}
 8001d5e:	f7ff feef 	bl	8001b40 <execute>
 8001d62:	f85d eb04 	ldr.w	lr, [sp], #4
 8001d66:	e006      	b.n	8001d76 <factor+0xd6>
 8001d68:	f8d4 a000 	ldr.w	sl, [r4]
 8001d6c:	f8d4 b008 	ldr.w	fp, [r4, #8]
 8001d70:	f04f 0000 	mov.w	r0, #0
 8001d74:	e003      	b.n	8001d7e <factor+0xde>
 8001d76:	fb08 f101 	mul.w	r1, r8, r1
 8001d7a:	ea5f 0009 	movs.w	r0, r9
 8001d7e:	e8bd 0304 	ldmia.w	sp!, {r2, r8, r9}
 8001d82:	4770      	bx	lr

08001d84 <term>:
 8001d84:	e92d 030c 	stmdb	sp!, {r2, r3, r8, r9}
 8001d88:	f04f 0900 	mov.w	r9, #0
 8001d8c:	b500      	push	{lr}
 8001d8e:	f7ff ff87 	bl	8001ca0 <factor>
 8001d92:	f85d eb04 	ldr.w	lr, [sp], #4
 8001d96:	b360      	cbz	r0, 8001df2 <term+0x6e>
 8001d98:	4681      	mov	r9, r0
 8001d9a:	460a      	mov	r2, r1
 8001d9c:	b500      	push	{lr}
 8001d9e:	f7ff fed5 	bl	8001b4c <next_token>
 8001da2:	f85d eb04 	ldr.w	lr, [sp], #4
 8001da6:	4603      	mov	r3, r0
 8001da8:	f000 0030 	and.w	r0, r0, #48	; 0x30
 8001dac:	2820      	cmp	r0, #32
 8001dae:	d004      	beq.n	8001dba <term+0x36>
 8001db0:	f8d4 a000 	ldr.w	sl, [r4]
 8001db4:	f8d4 b008 	ldr.w	fp, [r4, #8]
 8001db8:	e01b      	b.n	8001df2 <term+0x6e>
 8001dba:	4698      	mov	r8, r3
 8001dbc:	b500      	push	{lr}
 8001dbe:	f7ff ff6f 	bl	8001ca0 <factor>
 8001dc2:	f85d eb04 	ldr.w	lr, [sp], #4
 8001dc6:	f43f acdb 	beq.w	8001780 <syntax_error>
 8001dca:	f1b8 0f20 	cmp.w	r8, #32
 8001dce:	d102      	bne.n	8001dd6 <term+0x52>
 8001dd0:	fb01 f202 	mul.w	r2, r1, r2
 8001dd4:	e7e2      	b.n	8001d9c <term+0x18>
 8001dd6:	f1b8 0f21 	cmp.w	r8, #33	; 0x21
 8001dda:	d102      	bne.n	8001de2 <term+0x5e>
 8001ddc:	fb92 f2f1 	sdiv	r2, r2, r1
 8001de0:	e7dc      	b.n	8001d9c <term+0x18>
 8001de2:	4610      	mov	r0, r2
 8001de4:	fb92 f2f1 	sdiv	r2, r2, r1
 8001de8:	fb01 f202 	mul.w	r2, r1, r2
 8001dec:	eba0 0202 	sub.w	r2, r0, r2
 8001df0:	e7d4      	b.n	8001d9c <term+0x18>
 8001df2:	4611      	mov	r1, r2
 8001df4:	ea5f 0009 	movs.w	r0, r9
 8001df8:	e8bd 030c 	ldmia.w	sp!, {r2, r3, r8, r9}
 8001dfc:	4770      	bx	lr
 8001dfe:	bf00      	nop

08001e00 <expression>:
 8001e00:	e92d 0304 	stmdb	sp!, {r2, r8, r9}
 8001e04:	f04f 0900 	mov.w	r9, #0
 8001e08:	ea82 0202 	eor.w	r2, r2, r2
 8001e0c:	b500      	push	{lr}
 8001e0e:	f7ff ffb9 	bl	8001d84 <term>
 8001e12:	f85d eb04 	ldr.w	lr, [sp], #4
 8001e16:	d021      	beq.n	8001e5c <expression+0x5c>
 8001e18:	460a      	mov	r2, r1
 8001e1a:	f04f 090e 	mov.w	r9, #14
 8001e1e:	b500      	push	{lr}
 8001e20:	f7ff fe94 	bl	8001b4c <next_token>
 8001e24:	f85d eb04 	ldr.w	lr, [sp], #4
 8001e28:	4680      	mov	r8, r0
 8001e2a:	f000 0030 	and.w	r0, r0, #48	; 0x30
 8001e2e:	2810      	cmp	r0, #16
 8001e30:	d004      	beq.n	8001e3c <expression+0x3c>
 8001e32:	f8d4 a000 	ldr.w	sl, [r4]
 8001e36:	f8d4 b008 	ldr.w	fp, [r4, #8]
 8001e3a:	e00f      	b.n	8001e5c <expression+0x5c>
 8001e3c:	b500      	push	{lr}
 8001e3e:	f7ff ffa1 	bl	8001d84 <term>
 8001e42:	f85d eb04 	ldr.w	lr, [sp], #4
 8001e46:	280e      	cmp	r0, #14
 8001e48:	f47f ac9a 	bne.w	8001780 <syntax_error>
 8001e4c:	f1b8 0f10 	cmp.w	r8, #16
 8001e50:	d002      	beq.n	8001e58 <expression+0x58>
 8001e52:	eba2 0201 	sub.w	r2, r2, r1
 8001e56:	e7e2      	b.n	8001e1e <expression+0x1e>
 8001e58:	440a      	add	r2, r1
 8001e5a:	e7e0      	b.n	8001e1e <expression+0x1e>
 8001e5c:	4648      	mov	r0, r9
 8001e5e:	4611      	mov	r1, r2
 8001e60:	e8bd 0304 	ldmia.w	sp!, {r2, r8, r9}
 8001e64:	4770      	bx	lr
 8001e66:	bf00      	nop

08001e68 <relation>:
 8001e68:	e92d 0104 	stmdb	sp!, {r2, r8}
 8001e6c:	b500      	push	{lr}
 8001e6e:	f7ff ffc7 	bl	8001e00 <expression>
 8001e72:	f85d eb04 	ldr.w	lr, [sp], #4
 8001e76:	280e      	cmp	r0, #14
 8001e78:	f47f ac82 	bne.w	8001780 <syntax_error>
 8001e7c:	460a      	mov	r2, r1
 8001e7e:	b500      	push	{lr}
 8001e80:	f7ff fe64 	bl	8001b4c <next_token>
 8001e84:	f85d eb04 	ldr.w	lr, [sp], #4
 8001e88:	4680      	mov	r8, r0
 8001e8a:	f000 0030 	and.w	r0, r0, #48	; 0x30
 8001e8e:	2830      	cmp	r0, #48	; 0x30
 8001e90:	d11d      	bne.n	8001ece <rel_false+0x6>
 8001e92:	b500      	push	{lr}
 8001e94:	f7ff ffb4 	bl	8001e00 <expression>
 8001e98:	f85d eb04 	ldr.w	lr, [sp], #4
 8001e9c:	280e      	cmp	r0, #14
 8001e9e:	f47f ac6f 	bne.w	8001780 <syntax_error>
 8001ea2:	428a      	cmp	r2, r1
 8001ea4:	f04f 31ff 	mov.w	r1, #4294967295	; 0xffffffff
 8001ea8:	4a31      	ldr	r2, [pc, #196]	; (8001f70 <set_var+0x4c>)
 8001eaa:	f008 0807 	and.w	r8, r8, #7
 8001eae:	e8d2 f008 	tbb	[r2, r8]

08001eb2 <rel_eq>:
 8001eb2:	d011      	beq.n	8001ed8 <rel_false+0x10>
 8001eb4:	e008      	b.n	8001ec8 <rel_false>

08001eb6 <rel_lt>:
 8001eb6:	db0f      	blt.n	8001ed8 <rel_false+0x10>
 8001eb8:	e006      	b.n	8001ec8 <rel_false>

08001eba <rel_le>:
 8001eba:	dd0d      	ble.n	8001ed8 <rel_false+0x10>
 8001ebc:	e004      	b.n	8001ec8 <rel_false>

08001ebe <rel_gt>:
 8001ebe:	dc0b      	bgt.n	8001ed8 <rel_false+0x10>
 8001ec0:	e002      	b.n	8001ec8 <rel_false>

08001ec2 <rel_ge>:
 8001ec2:	da09      	bge.n	8001ed8 <rel_false+0x10>
 8001ec4:	e000      	b.n	8001ec8 <rel_false>

08001ec6 <rel_diff>:
 8001ec6:	d107      	bne.n	8001ed8 <rel_false+0x10>

08001ec8 <rel_false>:
 8001ec8:	ea81 0101 	eor.w	r1, r1, r1
 8001ecc:	e004      	b.n	8001ed8 <rel_false+0x10>
 8001ece:	f8d4 a000 	ldr.w	sl, [r4]
 8001ed2:	f8d4 b008 	ldr.w	fp, [r4, #8]
 8001ed6:	4611      	mov	r1, r2
 8001ed8:	f04f 000e 	mov.w	r0, #14
 8001edc:	e8bd 0104 	ldmia.w	sp!, {r2, r8}
 8001ee0:	4770      	bx	lr

08001ee2 <relop_jmp>:
 8001ee2:	08000600 	stmdaeq	r0, {r9, sl}
 8001ee6:	00040a02 	andeq	r0, r4, r2, lsl #20
 8001eea:	bf00      	nop

08001eec <get_array_element>:
 8001eec:	f8d4 10c8 	ldr.w	r1, [r4, #200]	; 0xc8
 8001ef0:	ea4f 0080 	mov.w	r0, r0, lsl #2
 8001ef4:	ebc0 0001 	rsb	r0, r0, r1
 8001ef8:	6801      	ldr	r1, [r0, #0]
 8001efa:	f04f 000e 	mov.w	r0, #14
 8001efe:	4770      	bx	lr

08001f00 <set_array_element>:
 8001f00:	b404      	push	{r2}
 8001f02:	f8d4 10c8 	ldr.w	r1, [r4, #200]	; 0xc8
 8001f06:	ea4f 0080 	mov.w	r0, r0, lsl #2
 8001f0a:	eba1 0100 	sub.w	r1, r1, r0
 8001f0e:	6009      	str	r1, [r1, #0]
 8001f10:	bc04      	pop	{r2}
 8001f12:	4770      	bx	lr

08001f14 <get_var>:
 8001f14:	f104 0160 	add.w	r1, r4, #96	; 0x60
 8001f18:	ea4f 0080 	mov.w	r0, r0, lsl #2
 8001f1c:	5809      	ldr	r1, [r1, r0]
 8001f1e:	f04f 000e 	mov.w	r0, #14
 8001f22:	4770      	bx	lr

08001f24 <set_var>:
 8001f24:	b404      	push	{r2}
 8001f26:	6e22      	ldr	r2, [r4, #96]	; 0x60
 8001f28:	ea4f 0080 	mov.w	r0, r0, lsl #2
 8001f2c:	5011      	str	r1, [r2, r0]
 8001f2e:	bc04      	pop	{r2}
 8001f30:	4770      	bx	lr
 8001f32:	13100000 	tstne	r0, #0
 8001f36:	13000800 	movwne	r0, #2048	; 0x800
 8001f3a:	12ec0800 	rscne	r0, ip, #0, 16
 8001f3e:	13ce0800 	bicne	r0, lr, #0, 16
 8001f42:	35e80800 	strbcc	r0, [r8, #2048]!	; 0x800
 8001f46:	17310800 	ldrne	r0, [r1, -r0, lsl #16]!
 8001f4a:	17280800 	strne	r0, [r8, -r0, lsl #16]!
 8001f4e:	172b0800 	strne	r0, [fp, -r0, lsl #16]!
 8001f52:	172e0800 	strne	r0, [lr, -r0, lsl #16]!
 8001f56:	18700800 	ldmdane	r0!, {fp}^
 8001f5a:	18800800 	stmne	r0, {fp}
 8001f5e:	19f40800 	ldmibne	r4!, {fp}^
 8001f62:	1ab00800 	bne	6c03f6a <FLASH_HIDDEN_SIZE+0x6bf3f6a>
 8001f66:	35ec0800 	strbcc	r0, [ip, #2048]!	; 0x800
 8001f6a:	1bd80800 	blne	7603f72 <FLASH_HIDDEN_SIZE+0x75f3f72>
 8001f6e:	1ee20800 	cdpne	8, 14, cr0, cr2, cr0, {0}
 8001f72:	00000800 	andeq	r0, r0, r0, lsl #16
	...

08002000 <abs>:
 8002000:	b500      	push	{lr}
 8002002:	f7ff fe2d 	bl	8001c60 <arg_list>
 8002006:	f85d eb04 	ldr.w	lr, [sp], #4
 800200a:	2801      	cmp	r0, #1
 800200c:	d001      	beq.n	8002012 <abs+0x12>
 800200e:	f7ff bbb7 	b.w	8001780 <syntax_error>
 8002012:	f85c 1b04 	ldr.w	r1, [ip], #4
 8002016:	f011 4f00 	tst.w	r1, #2147483648	; 0x80000000
 800201a:	d001      	beq.n	8002020 <abs+0x20>
 800201c:	f1c1 0100 	rsb	r1, r1, #0
 8002020:	f04f 000e 	mov.w	r0, #14
 8002024:	4770      	bx	lr
 8002026:	bf00      	nop

08002028 <power_adc>:
 8002028:	4770      	bx	lr
 800202a:	bf00      	nop

0800202c <analog_read>:
 800202c:	4770      	bx	lr
 800202e:	bf00      	nop

08002030 <bit_and>:
 8002030:	b500      	push	{lr}
 8002032:	f7ff fdff 	bl	8001c34 <func_args>
 8002036:	f85d eb04 	ldr.w	lr, [sp], #4
 800203a:	2802      	cmp	r0, #2
 800203c:	f47f aba0 	bne.w	8001780 <syntax_error>
 8002040:	f85c 0b04 	ldr.w	r0, [ip], #4
 8002044:	f85c 1b04 	ldr.w	r1, [ip], #4
 8002048:	ea01 0100 	and.w	r1, r1, r0
 800204c:	f04f 000e 	mov.w	r0, #14
 8002050:	4770      	bx	lr
 8002052:	bf00      	nop

08002054 <ascii>:
 8002054:	f04f 0006 	mov.w	r0, #6
 8002058:	b500      	push	{lr}
 800205a:	f7ff fddd 	bl	8001c18 <expect>
 800205e:	f85d eb04 	ldr.w	lr, [sp], #4
 8002062:	b500      	push	{lr}
 8002064:	f7ff fd72 	bl	8001b4c <next_token>
 8002068:	f85d eb04 	ldr.w	lr, [sp], #4
 800206c:	2802      	cmp	r0, #2
 800206e:	d003      	beq.n	8002078 <ascii+0x24>
 8002070:	2803      	cmp	r0, #3
 8002072:	f47f ab85 	bne.w	8001780 <syntax_error>
 8002076:	e000      	b.n	800207a <ascii+0x26>
 8002078:	7809      	ldrb	r1, [r1, #0]
 800207a:	f84c 1d04 	str.w	r1, [ip, #-4]!
 800207e:	f04f 0007 	mov.w	r0, #7
 8002082:	b500      	push	{lr}
 8002084:	f7ff fdc8 	bl	8001c18 <expect>
 8002088:	f85d eb04 	ldr.w	lr, [sp], #4
 800208c:	f04f 000e 	mov.w	r0, #14
 8002090:	f85c 1b04 	ldr.w	r1, [ip], #4
 8002094:	4770      	bx	lr
 8002096:	bf00      	nop

08002098 <autorun>:
 8002098:	4770      	bx	lr
 800209a:	bf00      	nop

0800209c <awu>:
 800209c:	4770      	bx	lr
 800209e:	bf00      	nop

080020a0 <bitmask>:
 80020a0:	b500      	push	{lr}
 80020a2:	f7ff fdc7 	bl	8001c34 <func_args>
 80020a6:	f85d eb04 	ldr.w	lr, [sp], #4
 80020aa:	2801      	cmp	r0, #1
 80020ac:	f47f ab68 	bne.w	8001780 <syntax_error>
 80020b0:	f85c 0b04 	ldr.w	r0, [ip], #4
 80020b4:	f04f 0101 	mov.w	r1, #1
 80020b8:	b120      	cbz	r0, 80020c4 <bitmask+0x24>
 80020ba:	ea4f 0141 	mov.w	r1, r1, lsl #1
 80020be:	f1a0 0001 	sub.w	r0, r0, #1
 80020c2:	e7f9      	b.n	80020b8 <bitmask+0x18>
 80020c4:	f04f 000e 	mov.w	r0, #14
 80020c8:	4770      	bx	lr
 80020ca:	bf00      	nop

080020cc <bit_reset>:
 80020cc:	b500      	push	{lr}
 80020ce:	f7ff fdc7 	bl	8001c60 <arg_list>
 80020d2:	f85d eb04 	ldr.w	lr, [sp], #4
 80020d6:	2802      	cmp	r0, #2
 80020d8:	d001      	beq.n	80020de <bit_reset+0x12>
 80020da:	f7ff bb51 	b.w	8001780 <syntax_error>
 80020de:	f85c 1b04 	ldr.w	r1, [ip], #4
 80020e2:	f85c 0b04 	ldr.w	r0, [ip], #4
 80020e6:	f8d0 9000 	ldr.w	r9, [r0]
 80020ea:	f081 31ff 	eor.w	r1, r1, #4294967295	; 0xffffffff
 80020ee:	ea01 0109 	and.w	r1, r1, r9
 80020f2:	6001      	str	r1, [r0, #0]
 80020f4:	4770      	bx	lr
 80020f6:	bf00      	nop

080020f8 <bit_set>:
 80020f8:	b500      	push	{lr}
 80020fa:	f7ff fdb1 	bl	8001c60 <arg_list>
 80020fe:	f85d eb04 	ldr.w	lr, [sp], #4
 8002102:	2802      	cmp	r0, #2
 8002104:	d001      	beq.n	800210a <bit_set+0x12>
 8002106:	f7ff bb3b 	b.w	8001780 <syntax_error>
 800210a:	f85c 1b04 	ldr.w	r1, [ip], #4
 800210e:	f85c 0b04 	ldr.w	r0, [ip], #4
 8002112:	f8d0 9000 	ldr.w	r9, [r0]
 8002116:	ea41 0109 	orr.w	r1, r1, r9
 800211a:	6001      	str	r1, [r0, #0]
 800211c:	4770      	bx	lr
 800211e:	bf00      	nop

08002120 <bit_toggle>:
 8002120:	b500      	push	{lr}
 8002122:	f7ff fd9d 	bl	8001c60 <arg_list>
 8002126:	f85d eb04 	ldr.w	lr, [sp], #4
 800212a:	2802      	cmp	r0, #2
 800212c:	d001      	beq.n	8002132 <bit_toggle+0x12>
 800212e:	f7ff bb27 	b.w	8001780 <syntax_error>
 8002132:	f85c 1b04 	ldr.w	r1, [ip], #4
 8002136:	f85c 0b04 	ldr.w	r0, [ip], #4
 800213a:	f8d0 9000 	ldr.w	r9, [r0]
 800213e:	ea81 0109 	eor.w	r1, r1, r9
 8002142:	6001      	str	r1, [r0, #0]
 8002144:	4770      	bx	lr
 8002146:	bf00      	nop

08002148 <bit_test>:
 8002148:	b500      	push	{lr}
 800214a:	f7ff fd73 	bl	8001c34 <func_args>
 800214e:	f85d eb04 	ldr.w	lr, [sp], #4
 8002152:	2802      	cmp	r0, #2
 8002154:	f47f ab14 	bne.w	8001780 <syntax_error>
 8002158:	f85c 1b04 	ldr.w	r1, [ip], #4
 800215c:	f04f 0001 	mov.w	r0, #1
 8002160:	f001 011f 	and.w	r1, r1, #31
 8002164:	b121      	cbz	r1, 8002170 <bit_test+0x28>
 8002166:	ea4f 0040 	mov.w	r0, r0, lsl #1
 800216a:	f1a1 0101 	sub.w	r1, r1, #1
 800216e:	e7f9      	b.n	8002164 <bit_test+0x1c>
 8002170:	f85c 1b04 	ldr.w	r1, [ip], #4
 8002174:	6809      	ldr	r1, [r1, #0]
 8002176:	ea01 0100 	and.w	r1, r1, r0
 800217a:	b109      	cbz	r1, 8002180 <bit_test+0x38>
 800217c:	f04f 0101 	mov.w	r1, #1
 8002180:	f04f 000e 	mov.w	r0, #14
 8002184:	4770      	bx	lr
 8002186:	bf00      	nop

08002188 <bye>:
 8002188:	4770      	bx	lr
 800218a:	bf00      	nop

0800218c <char>:
 800218c:	b500      	push	{lr}
 800218e:	f7ff fd51 	bl	8001c34 <func_args>
 8002192:	f85d eb04 	ldr.w	lr, [sp], #4
 8002196:	2801      	cmp	r0, #1
 8002198:	f47f aaf2 	bne.w	8001780 <syntax_error>
 800219c:	f85c 1b04 	ldr.w	r1, [ip], #4
 80021a0:	f001 017f 	and.w	r1, r1, #127	; 0x7f
 80021a4:	f04f 0003 	mov.w	r0, #3
 80021a8:	4770      	bx	lr
 80021aa:	bf00      	nop

080021ac <const_cr2>:
 80021ac:	4770      	bx	lr
 80021ae:	bf00      	nop

080021b0 <const_cr1>:
 80021b0:	4770      	bx	lr
 80021b2:	bf00      	nop

080021b4 <data_line>:
 80021b4:	6c20      	ldr	r0, [r4, #64]	; 0x40
 80021b6:	f010 0f01 	tst.w	r0, #1
 80021ba:	d103      	bne.n	80021c4 <data_line+0x10>
 80021bc:	f04f 0007 	mov.w	r0, #7
 80021c0:	f7ff bae2 	b.w	8001788 <tb_error>
 80021c4:	b500      	push	{lr}
 80021c6:	f7ff fe1b 	bl	8001e00 <expression>
 80021ca:	f85d eb04 	ldr.w	lr, [sp], #4
 80021ce:	280e      	cmp	r0, #14
 80021d0:	f47f aad6 	bne.w	8001780 <syntax_error>
 80021d4:	4608      	mov	r0, r1
 80021d6:	b500      	push	{lr}
 80021d8:	f7fe ff36 	bl	8001048 <search_lineno>
 80021dc:	f85d eb04 	ldr.w	lr, [sp], #4
 80021e0:	2900      	cmp	r1, #0
 80021e2:	d003      	beq.n	80021ec <data_line+0x38>
 80021e4:	f04f 000a 	mov.w	r0, #10
 80021e8:	f7ff baca 	b.w	8001780 <syntax_error>
 80021ec:	78c1      	ldrb	r1, [r0, #3]
 80021ee:	290a      	cmp	r1, #10
 80021f0:	d1f8      	bne.n	80021e4 <data_line+0x30>
 80021f2:	7901      	ldrb	r1, [r0, #4]
 80021f4:	2910      	cmp	r1, #16
 80021f6:	d1f5      	bne.n	80021e4 <data_line+0x30>
 80021f8:	60e0      	str	r0, [r4, #12]
 80021fa:	7881      	ldrb	r1, [r0, #2]
 80021fc:	6161      	str	r1, [r4, #20]
 80021fe:	f04f 0105 	mov.w	r1, #5
 8002202:	6121      	str	r1, [r4, #16]
 8002204:	4770      	bx	lr
 8002206:	bf00      	nop

08002208 <read>:
 8002208:	6c20      	ldr	r0, [r4, #64]	; 0x40
 800220a:	f010 0f01 	tst.w	r0, #1
 800220e:	d103      	bne.n	8002218 <read+0x10>
 8002210:	f04f 0007 	mov.w	r0, #7
 8002214:	f7ff bab8 	b.w	8001788 <tb_error>
 8002218:	6960      	ldr	r0, [r4, #20]
 800221a:	68e1      	ldr	r1, [r4, #12]
 800221c:	6922      	ldr	r2, [r4, #16]
 800221e:	4282      	cmp	r2, r0
 8002220:	d00e      	beq.n	8002240 <seek_next>
 8002222:	5c88      	ldrb	r0, [r1, r2]
 8002224:	f102 0201 	add.w	r2, r2, #1
 8002228:	2800      	cmp	r0, #0
 800222a:	d009      	beq.n	8002240 <seek_next>
 800222c:	2808      	cmp	r0, #8
 800222e:	d0f8      	beq.n	8002222 <read+0x1a>
 8002230:	280e      	cmp	r0, #14
 8002232:	f47f aaa5 	bne.w	8001780 <syntax_error>
 8002236:	5889      	ldr	r1, [r1, r2]
 8002238:	f102 0204 	add.w	r2, r2, #4
 800223c:	6122      	str	r2, [r4, #16]
 800223e:	e012      	b.n	8002266 <seek_next+0x26>

08002240 <seek_next>:
 8002240:	7888      	ldrb	r0, [r1, #2]
 8002242:	4401      	add	r1, r0
 8002244:	78c8      	ldrb	r0, [r1, #3]
 8002246:	280a      	cmp	r0, #10
 8002248:	d109      	bne.n	800225e <seek_next+0x1e>
 800224a:	7908      	ldrb	r0, [r1, #4]
 800224c:	2810      	cmp	r0, #16
 800224e:	d106      	bne.n	800225e <seek_next+0x1e>
 8002250:	60e1      	str	r1, [r4, #12]
 8002252:	7888      	ldrb	r0, [r1, #2]
 8002254:	6160      	str	r0, [r4, #20]
 8002256:	f04f 0205 	mov.w	r2, #5
 800225a:	6122      	str	r2, [r4, #16]
 800225c:	e7e1      	b.n	8002222 <read+0x1a>
 800225e:	f04f 000c 	mov.w	r0, #12
 8002262:	f7ff ba91 	b.w	8001788 <tb_error>
 8002266:	4770      	bx	lr

08002268 <restore>:
 8002268:	6c20      	ldr	r0, [r4, #64]	; 0x40
 800226a:	f010 0f01 	tst.w	r0, #1
 800226e:	d103      	bne.n	8002278 <restore+0x10>
 8002270:	f04f 0007 	mov.w	r0, #7
 8002274:	f7ff ba88 	b.w	8001788 <tb_error>
 8002278:	6b21      	ldr	r1, [r4, #48]	; 0x30
 800227a:	6b60      	ldr	r0, [r4, #52]	; 0x34
 800227c:	d00f      	beq.n	800229e <no_data_line>
 800227e:	7908      	ldrb	r0, [r1, #4]
 8002280:	2810      	cmp	r0, #16
 8002282:	d109      	bne.n	8002298 <try_next_line>
 8002284:	78c8      	ldrb	r0, [r1, #3]
 8002286:	280a      	cmp	r0, #10
 8002288:	d106      	bne.n	8002298 <try_next_line>
 800228a:	60e1      	str	r1, [r4, #12]
 800228c:	7888      	ldrb	r0, [r1, #2]
 800228e:	6160      	str	r0, [r4, #20]
 8002290:	f04f 0005 	mov.w	r0, #5
 8002294:	6120      	str	r0, [r4, #16]
 8002296:	e007      	b.n	80022a8 <no_data_line+0xa>

08002298 <try_next_line>:
 8002298:	7888      	ldrb	r0, [r1, #2]
 800229a:	4401      	add	r1, r0
 800229c:	e7ed      	b.n	800227a <restore+0x12>

0800229e <no_data_line>:
 800229e:	ea80 0000 	eor.w	r0, r0, r0
 80022a2:	60e0      	str	r0, [r4, #12]
 80022a4:	6120      	str	r0, [r4, #16]
 80022a6:	6160      	str	r0, [r4, #20]
 80022a8:	4770      	bx	lr
 80022aa:	bf00      	nop

080022ac <const_ddr>:
 80022ac:	4770      	bx	lr
 80022ae:	bf00      	nop

080022b0 <dec_base>:
 80022b0:	f04f 000a 	mov.w	r0, #10
 80022b4:	61a0      	str	r0, [r4, #24]
 80022b6:	4770      	bx	lr

080022b8 <directory>:
 80022b8:	4770      	bx	lr
 80022ba:	bf00      	nop

080022bc <do_loop>:
 80022bc:	6860      	ldr	r0, [r4, #4]
 80022be:	e92c 0c01 	stmdb	ip!, {r0, sl, fp}
 80022c2:	4770      	bx	lr

080022c4 <digital_read>:
 80022c4:	4770      	bx	lr
 80022c6:	bf00      	nop

080022c8 <digital_write>:
 80022c8:	4770      	bx	lr
 80022ca:	bf00      	nop

080022cc <dump>:
 80022cc:	b404      	push	{r2}
 80022ce:	6c22      	ldr	r2, [r4, #64]	; 0x40
 80022d0:	f012 0f01 	tst.w	r2, #1
 80022d4:	d003      	beq.n	80022de <dump+0x12>
 80022d6:	f04f 0007 	mov.w	r0, #7
 80022da:	f7ff ba55 	b.w	8001788 <tb_error>
 80022de:	b500      	push	{lr}
 80022e0:	f7ff fcbe 	bl	8001c60 <arg_list>
 80022e4:	f85d eb04 	ldr.w	lr, [sp], #4
 80022e8:	2802      	cmp	r0, #2
 80022ea:	f47f aa49 	bne.w	8001780 <syntax_error>
 80022ee:	f85c 2b04 	ldr.w	r2, [ip], #4
 80022f2:	f85c 0b04 	ldr.w	r0, [ip], #4
 80022f6:	f04f 0110 	mov.w	r1, #16
 80022fa:	b500      	push	{lr}
 80022fc:	f7fe fe58 	bl	8000fb0 <prt_row>
 8002300:	f85d eb04 	ldr.w	lr, [sp], #4
 8002304:	3a10      	subs	r2, #16
 8002306:	d5f6      	bpl.n	80022f6 <dump+0x2a>
 8002308:	bc04      	pop	{r2}
 800230a:	4770      	bx	lr

0800230c <cmd_end>:
 800230c:	f7ff bbd4 	b.w	8001ab8 <warm_start>
 8002310:	4770      	bx	lr
 8002312:	bf00      	nop

08002314 <const_eeprom_base>:
 8002314:	4770      	bx	lr
 8002316:	bf00      	nop

08002318 <fcpu>:
 8002318:	4770      	bx	lr
 800231a:	bf00      	nop

0800231c <forget>:
 800231c:	4770      	bx	lr
 800231e:	bf00      	nop

08002320 <for>:
 8002320:	e92c 00e0 	stmdb	ip!, {r5, r6, r7}
 8002324:	f04f 0701 	mov.w	r7, #1
 8002328:	b500      	push	{lr}
 800232a:	f7ff fc0f 	bl	8001b4c <next_token>
 800232e:	f85d eb04 	ldr.w	lr, [sp], #4
 8002332:	2804      	cmp	r0, #4
 8002334:	f47f aa24 	bne.w	8001780 <syntax_error>
 8002338:	b402      	push	{r1}
 800233a:	b500      	push	{lr}
 800233c:	f000 f8ad 	bl	800249a <let_var>
 8002340:	f85d eb04 	ldr.w	lr, [sp], #4
 8002344:	bc20      	pop	{r5}
 8002346:	ea4f 0585 	mov.w	r5, r5, lsl #2
 800234a:	4425      	add	r5, r4
 800234c:	f105 0560 	add.w	r5, r5, #96	; 0x60
 8002350:	4770      	bx	lr
 8002352:	bf00      	nop

08002354 <to>:
 8002354:	b500      	push	{lr}
 8002356:	f7ff fd53 	bl	8001e00 <expression>
 800235a:	f85d eb04 	ldr.w	lr, [sp], #4
 800235e:	280e      	cmp	r0, #14
 8002360:	f47f aa0e 	bne.w	8001780 <syntax_error>
 8002364:	460e      	mov	r6, r1
 8002366:	6860      	ldr	r0, [r4, #4]
 8002368:	e92c 0c01 	stmdb	ip!, {r0, sl, fp}
 800236c:	4770      	bx	lr
 800236e:	bf00      	nop

08002370 <step>:
 8002370:	b500      	push	{lr}
 8002372:	f7ff fd45 	bl	8001e00 <expression>
 8002376:	f85d eb04 	ldr.w	lr, [sp], #4
 800237a:	280e      	cmp	r0, #14
 800237c:	f47f aa00 	bne.w	8001780 <syntax_error>
 8002380:	460f      	mov	r7, r1
 8002382:	6860      	ldr	r0, [r4, #4]
 8002384:	e88c 0c01 	stmia.w	ip, {r0, sl, fp}
 8002388:	4770      	bx	lr
 800238a:	bf00      	nop

0800238c <next>:
 800238c:	b500      	push	{lr}
 800238e:	f7ff fbdd 	bl	8001b4c <next_token>
 8002392:	f85d eb04 	ldr.w	lr, [sp], #4
 8002396:	2804      	cmp	r0, #4
 8002398:	f47f a9f2 	bne.w	8001780 <syntax_error>
 800239c:	ea4f 0181 	mov.w	r1, r1, lsl #2
 80023a0:	4421      	add	r1, r4
 80023a2:	f101 0160 	add.w	r1, r1, #96	; 0x60
 80023a6:	42a9      	cmp	r1, r5
 80023a8:	f47f a9ea 	bne.w	8001780 <syntax_error>
 80023ac:	6828      	ldr	r0, [r5, #0]
 80023ae:	4438      	add	r0, r7
 80023b0:	6028      	str	r0, [r5, #0]
 80023b2:	2f00      	cmp	r7, #0
 80023b4:	d402      	bmi.n	80023bc <next+0x30>
 80023b6:	42b0      	cmp	r0, r6
 80023b8:	dc02      	bgt.n	80023c0 <next+0x34>
 80023ba:	e007      	b.n	80023cc <next+0x40>
 80023bc:	42b0      	cmp	r0, r6
 80023be:	da05      	bge.n	80023cc <next+0x40>
 80023c0:	f04f 000c 	mov.w	r0, #12
 80023c4:	4484      	add	ip, r0
 80023c6:	e8bc 00e0 	ldmia.w	ip!, {r5, r6, r7}
 80023ca:	4770      	bx	lr
 80023cc:	e89c 0c01 	ldmia.w	ip, {r0, sl, fp}
 80023d0:	6060      	str	r0, [r4, #4]
 80023d2:	4770      	bx	lr

080023d4 <gosub>:
 80023d4:	b500      	push	{lr}
 80023d6:	f7ff fd13 	bl	8001e00 <expression>
 80023da:	f85d eb04 	ldr.w	lr, [sp], #4
 80023de:	280e      	cmp	r0, #14
 80023e0:	f47f a9ce 	bne.w	8001780 <syntax_error>
 80023e4:	4608      	mov	r0, r1
 80023e6:	b500      	push	{lr}
 80023e8:	f7fe fe2e 	bl	8001048 <search_lineno>
 80023ec:	f85d eb04 	ldr.w	lr, [sp], #4
 80023f0:	b119      	cbz	r1, 80023fa <gosub+0x26>
 80023f2:	f04f 000a 	mov.w	r0, #10
 80023f6:	f7ff b9c7 	b.w	8001788 <tb_error>
 80023fa:	6861      	ldr	r1, [r4, #4]
 80023fc:	e92c 0c02 	stmdb	ip!, {r1, sl, fp}
 8002400:	4683      	mov	fp, r0
 8002402:	f04f 0a03 	mov.w	sl, #3
 8002406:	f89b 0002 	ldrb.w	r0, [fp, #2]
 800240a:	6060      	str	r0, [r4, #4]
 800240c:	4770      	bx	lr
 800240e:	bf00      	nop

08002410 <return>:
 8002410:	e8bc 0c01 	ldmia.w	ip!, {r0, sl, fp}
 8002414:	6060      	str	r0, [r4, #4]
 8002416:	4770      	bx	lr

08002418 <goto>:
 8002418:	b500      	push	{lr}
 800241a:	f7ff fcf1 	bl	8001e00 <expression>
 800241e:	f85d eb04 	ldr.w	lr, [sp], #4
 8002422:	280e      	cmp	r0, #14
 8002424:	f47f a9ac 	bne.w	8001780 <syntax_error>
 8002428:	b159      	cbz	r1, 8002442 <goto+0x2a>
 800242a:	4608      	mov	r0, r1
 800242c:	b500      	push	{lr}
 800242e:	f7fe fe0b 	bl	8001048 <search_lineno>
 8002432:	f85d eb04 	ldr.w	lr, [sp], #4
 8002436:	b119      	cbz	r1, 8002440 <goto+0x28>
 8002438:	f04f 0005 	mov.w	r0, #5
 800243c:	f7ff b9a4 	b.w	8001788 <tb_error>
 8002440:	4683      	mov	fp, r0
 8002442:	f04f 0a03 	mov.w	sl, #3
 8002446:	4770      	bx	lr

08002448 <gpio>:
 8002448:	4770      	bx	lr
 800244a:	bf00      	nop

0800244c <hex_base>:
 800244c:	f04f 0010 	mov.w	r0, #16
 8002450:	61a0      	str	r0, [r4, #24]
 8002452:	4770      	bx	lr

08002454 <const_idr>:
 8002454:	4770      	bx	lr
 8002456:	bf00      	nop

08002458 <if>:
 8002458:	b500      	push	{lr}
 800245a:	f7ff fd05 	bl	8001e68 <relation>
 800245e:	f85d eb04 	ldr.w	lr, [sp], #4
 8002462:	b909      	cbnz	r1, 8002468 <if+0x10>
 8002464:	f8d4 a004 	ldr.w	sl, [r4, #4]
 8002468:	4770      	bx	lr
 800246a:	bf00      	nop

0800246c <then>:
 800246c:	4770      	bx	lr
 800246e:	bf00      	nop

08002470 <input_var>:
 8002470:	4770      	bx	lr
 8002472:	bf00      	nop

08002474 <invert>:
 8002474:	4770      	bx	lr
 8002476:	bf00      	nop

08002478 <enable_iwdg>:
 8002478:	4770      	bx	lr
 800247a:	bf00      	nop

0800247c <refresh_iwdg>:
 800247c:	4770      	bx	lr
 800247e:	bf00      	nop

08002480 <key>:
 8002480:	4770      	bx	lr
 8002482:	bf00      	nop

08002484 <let>:
 8002484:	b500      	push	{lr}
 8002486:	f7ff fb61 	bl	8001b4c <next_token>
 800248a:	f85d eb04 	ldr.w	lr, [sp], #4
 800248e:	2804      	cmp	r0, #4
 8002490:	d003      	beq.n	800249a <let_var>
 8002492:	2805      	cmp	r0, #5
 8002494:	d007      	beq.n	80024a6 <let_array>
 8002496:	f7ff b973 	b.w	8001780 <syntax_error>

0800249a <let_var>:
 800249a:	ea4f 0181 	mov.w	r1, r1, lsl #2
 800249e:	f104 0060 	add.w	r0, r4, #96	; 0x60
 80024a2:	4408      	add	r0, r1
 80024a4:	e01f      	b.n	80024e6 <let_array+0x40>

080024a6 <let_array>:
 80024a6:	f04f 0006 	mov.w	r0, #6
 80024aa:	b500      	push	{lr}
 80024ac:	f7ff fbb4 	bl	8001c18 <expect>
 80024b0:	f85d eb04 	ldr.w	lr, [sp], #4
 80024b4:	b500      	push	{lr}
 80024b6:	f7ff fca3 	bl	8001e00 <expression>
 80024ba:	f85d eb04 	ldr.w	lr, [sp], #4
 80024be:	280e      	cmp	r0, #14
 80024c0:	f47f a95e 	bne.w	8001780 <syntax_error>
 80024c4:	f84c 1d04 	str.w	r1, [ip, #-4]!
 80024c8:	f04f 0007 	mov.w	r0, #7
 80024cc:	b500      	push	{lr}
 80024ce:	f7ff fba3 	bl	8001c18 <expect>
 80024d2:	f85d eb04 	ldr.w	lr, [sp], #4
 80024d6:	f85c 1b04 	ldr.w	r1, [ip], #4
 80024da:	f8d4 00c8 	ldr.w	r0, [r4, #200]	; 0xc8
 80024de:	ea4f 0181 	mov.w	r1, r1, lsl #2
 80024e2:	eba0 0001 	sub.w	r0, r0, r1
 80024e6:	f84c 0d04 	str.w	r0, [ip, #-4]!
 80024ea:	f04f 0032 	mov.w	r0, #50	; 0x32
 80024ee:	b500      	push	{lr}
 80024f0:	f7ff fb92 	bl	8001c18 <expect>
 80024f4:	f85d eb04 	ldr.w	lr, [sp], #4
 80024f8:	b500      	push	{lr}
 80024fa:	f7ff fc81 	bl	8001e00 <expression>
 80024fe:	f85d eb04 	ldr.w	lr, [sp], #4
 8002502:	280e      	cmp	r0, #14
 8002504:	f47f a93c 	bne.w	8001780 <syntax_error>
 8002508:	f85c 0b04 	ldr.w	r0, [ip], #4
 800250c:	6001      	str	r1, [r0, #0]
 800250e:	4770      	bx	lr

08002510 <list>:
 8002510:	6c20      	ldr	r0, [r4, #64]	; 0x40
 8002512:	f010 0f01 	tst.w	r0, #1
 8002516:	d003      	beq.n	8002520 <list+0x10>
 8002518:	f04f 0007 	mov.w	r0, #7
 800251c:	f7ff b934 	b.w	8001788 <tb_error>
 8002520:	f8d4 8030 	ldr.w	r8, [r4, #48]	; 0x30
 8002524:	f8d4 9034 	ldr.w	r9, [r4, #52]	; 0x34
 8002528:	f8b8 2000 	ldrh.w	r2, [r8]
 800252c:	f44f 4300 	mov.w	r3, #32768	; 0x8000
 8002530:	b500      	push	{lr}
 8002532:	f7ff fb0b 	bl	8001b4c <next_token>
 8002536:	f85d eb04 	ldr.w	lr, [sp], #4
 800253a:	b1e8      	cbz	r0, 8002578 <list+0x68>
 800253c:	280e      	cmp	r0, #14
 800253e:	d106      	bne.n	800254e <list+0x3e>
 8002540:	460a      	mov	r2, r1
 8002542:	b500      	push	{lr}
 8002544:	f7ff fb02 	bl	8001b4c <next_token>
 8002548:	f85d eb04 	ldr.w	lr, [sp], #4
 800254c:	b160      	cbz	r0, 8002568 <list+0x58>
 800254e:	2811      	cmp	r0, #17
 8002550:	f47f a916 	bne.w	8001780 <syntax_error>
 8002554:	b500      	push	{lr}
 8002556:	f7ff faf9 	bl	8001b4c <next_token>
 800255a:	f85d eb04 	ldr.w	lr, [sp], #4
 800255e:	b118      	cbz	r0, 8002568 <list+0x58>
 8002560:	280e      	cmp	r0, #14
 8002562:	f47f a90d 	bne.w	8001780 <syntax_error>
 8002566:	460b      	mov	r3, r1
 8002568:	f8b8 0000 	ldrh.w	r0, [r8]
 800256c:	4290      	cmp	r0, r2
 800256e:	d503      	bpl.n	8002578 <list+0x68>
 8002570:	f898 0002 	ldrb.w	r0, [r8, #2]
 8002574:	4480      	add	r8, r0
 8002576:	e7f7      	b.n	8002568 <list+0x58>
 8002578:	45c8      	cmp	r8, r9
 800257a:	d51a      	bpl.n	80025b2 <list+0xa2>
 800257c:	4640      	mov	r0, r8
 800257e:	f8df 1036 	ldr.w	r1, [pc, #54]	; 80025b6 <out_buff>
 8002582:	b500      	push	{lr}
 8002584:	f7ff f80a 	bl	800159c <decompile_line>
 8002588:	f85d eb04 	ldr.w	lr, [sp], #4
 800258c:	b500      	push	{lr}
 800258e:	f7fe f965 	bl	800085c <uart_puts>
 8002592:	f85d eb04 	ldr.w	lr, [sp], #4
 8002596:	f04f 000d 	mov.w	r0, #13
 800259a:	b500      	push	{lr}
 800259c:	f7fe f84e 	bl	800063c <uart_putc>
 80025a0:	f85d eb04 	ldr.w	lr, [sp], #4
 80025a4:	f898 0002 	ldrb.w	r0, [r8, #2]
 80025a8:	4480      	add	r8, r0
 80025aa:	f898 0000 	ldrb.w	r0, [r8]
 80025ae:	4298      	cmp	r0, r3
 80025b0:	dde2      	ble.n	8002578 <list+0x68>
 80025b2:	f7ff ba81 	b.w	8001ab8 <warm_start>

080025b6 <out_buff>:
 80025b6:	20004e30 	andcs	r4, r0, r0, lsr lr
 80025ba:	bf00      	nop

080025bc <load>:
 80025bc:	4770      	bx	lr
 80025be:	bf00      	nop

080025c0 <log2>:
 80025c0:	4770      	bx	lr
 80025c2:	bf00      	nop

080025c4 <lshift>:
 80025c4:	4770      	bx	lr
 80025c6:	bf00      	nop

080025c8 <muldiv>:
 80025c8:	4770      	bx	lr
 80025ca:	bf00      	nop

080025cc <new>:
 80025cc:	6c20      	ldr	r0, [r4, #64]	; 0x40
 80025ce:	f010 0f01 	tst.w	r0, #1
 80025d2:	d003      	beq.n	80025dc <new+0x10>
 80025d4:	f04f 0007 	mov.w	r0, #7
 80025d8:	f7ff b8d6 	b.w	8001788 <tb_error>
 80025dc:	b500      	push	{lr}
 80025de:	f7ff fa29 	bl	8001a34 <clear_basic>
 80025e2:	f85d eb04 	ldr.w	lr, [sp], #4
 80025e6:	f7ff ba67 	b.w	8001ab8 <warm_start>
 80025ea:	bf00      	nop

080025ec <func_not>:
 80025ec:	b500      	push	{lr}
 80025ee:	f7ff fc3b 	bl	8001e68 <relation>
 80025f2:	f85d eb04 	ldr.w	lr, [sp], #4
 80025f6:	b111      	cbz	r1, 80025fe <func_not+0x12>
 80025f8:	ea81 0101 	eor.w	r1, r1, r1
 80025fc:	e001      	b.n	8002602 <func_not+0x16>
 80025fe:	f04f 31ff 	mov.w	r1, #4294967295	; 0xffffffff
 8002602:	4770      	bx	lr

08002604 <const_odr>:
 8002604:	4770      	bx	lr
 8002606:	bf00      	nop

08002608 <bit_or>:
 8002608:	b500      	push	{lr}
 800260a:	f7ff fb13 	bl	8001c34 <func_args>
 800260e:	f85d eb04 	ldr.w	lr, [sp], #4
 8002612:	2802      	cmp	r0, #2
 8002614:	f47f a8b4 	bne.w	8001780 <syntax_error>
 8002618:	f85c 0b04 	ldr.w	r0, [ip], #4
 800261c:	f85c 1b04 	ldr.w	r1, [ip], #4
 8002620:	ea41 0100 	orr.w	r1, r1, r0
 8002624:	f04f 000e 	mov.w	r0, #14
 8002628:	4770      	bx	lr
 800262a:	bf00      	nop

0800262c <pad_ref>:
 800262c:	4770      	bx	lr
 800262e:	bf00      	nop

08002630 <pause>:
 8002630:	b500      	push	{lr}
 8002632:	f7ff fbe5 	bl	8001e00 <expression>
 8002636:	f85d eb04 	ldr.w	lr, [sp], #4
 800263a:	280e      	cmp	r0, #14
 800263c:	f47f a8a0 	bne.w	8001780 <syntax_error>
 8002640:	69e0      	ldr	r0, [r4, #28]
 8002642:	4408      	add	r0, r1
 8002644:	69e1      	ldr	r1, [r4, #28]
 8002646:	4288      	cmp	r0, r1
 8002648:	d1fc      	bne.n	8002644 <pause+0x14>
 800264a:	4770      	bx	lr

0800264c <pin_mode>:
 800264c:	4770      	bx	lr
 800264e:	bf00      	nop

08002650 <peek>:
 8002650:	4770      	bx	lr
 8002652:	bf00      	nop

08002654 <const_input>:
 8002654:	4770      	bx	lr
 8002656:	bf00      	nop

08002658 <poke>:
 8002658:	4770      	bx	lr
 800265a:	bf00      	nop

0800265c <const_output>:
 800265c:	4770      	bx	lr
 800265e:	bf00      	nop

08002660 <print>:
 8002660:	f04f 38ff 	mov.w	r8, #4294967295	; 0xffffffff
 8002664:	b500      	push	{lr}
 8002666:	f7ff fbcb 	bl	8001e00 <expression>
 800266a:	f85d eb04 	ldr.w	lr, [sp], #4
 800266e:	280e      	cmp	r0, #14
 8002670:	d10c      	bne.n	800268c <print+0x2c>
 8002672:	4608      	mov	r0, r1
 8002674:	69a1      	ldr	r1, [r4, #24]
 8002676:	b500      	push	{lr}
 8002678:	f7fe f94c 	bl	8000914 <print_int>
 800267c:	f85d eb04 	ldr.w	lr, [sp], #4
 8002680:	b500      	push	{lr}
 8002682:	f7fe fc17 	bl	8000eb4 <tabulation>
 8002686:	f85d eb04 	ldr.w	lr, [sp], #4
 800268a:	e036      	b.n	80026fa <print+0x9a>
 800268c:	b500      	push	{lr}
 800268e:	f7ff fa5d 	bl	8001b4c <next_token>
 8002692:	f85d eb04 	ldr.w	lr, [sp], #4
 8002696:	2801      	cmp	r0, #1
 8002698:	dc04      	bgt.n	80026a4 <print+0x44>
 800269a:	f8d4 a000 	ldr.w	sl, [r4]
 800269e:	f8d4 b008 	ldr.w	fp, [r4, #8]
 80026a2:	e037      	b.n	8002714 <print_exit>
 80026a4:	2802      	cmp	r0, #2
 80026a6:	d106      	bne.n	80026b6 <print+0x56>
 80026a8:	4608      	mov	r0, r1
 80026aa:	b500      	push	{lr}
 80026ac:	f7fe f8d6 	bl	800085c <uart_puts>
 80026b0:	f85d eb04 	ldr.w	lr, [sp], #4
 80026b4:	e021      	b.n	80026fa <print+0x9a>
 80026b6:	280c      	cmp	r0, #12
 80026b8:	d105      	bne.n	80026c6 <print+0x66>
 80026ba:	4608      	mov	r0, r1
 80026bc:	b500      	push	{lr}
 80026be:	f7ff fa3f 	bl	8001b40 <execute>
 80026c2:	f85d eb04 	ldr.w	lr, [sp], #4
 80026c6:	2803      	cmp	r0, #3
 80026c8:	d106      	bne.n	80026d8 <print+0x78>
 80026ca:	4608      	mov	r0, r1
 80026cc:	b500      	push	{lr}
 80026ce:	f7fd ffb5 	bl	800063c <uart_putc>
 80026d2:	f85d eb04 	ldr.w	lr, [sp], #4
 80026d6:	e010      	b.n	80026fa <print+0x9a>
 80026d8:	2809      	cmp	r0, #9
 80026da:	d004      	beq.n	80026e6 <print+0x86>
 80026dc:	f8d4 a000 	ldr.w	sl, [r4]
 80026e0:	f8d4 b008 	ldr.w	fp, [r4, #8]
 80026e4:	e016      	b.n	8002714 <print_exit>
 80026e6:	b500      	push	{lr}
 80026e8:	f7ff fa30 	bl	8001b4c <next_token>
 80026ec:	f85d eb04 	ldr.w	lr, [sp], #4
 80026f0:	280e      	cmp	r0, #14
 80026f2:	f47f a845 	bne.w	8001780 <syntax_error>
 80026f6:	6461      	str	r1, [r4, #68]	; 0x44
 80026f8:	e7ff      	b.n	80026fa <print+0x9a>
 80026fa:	ea88 0808 	eor.w	r8, r8, r8
 80026fe:	b500      	push	{lr}
 8002700:	f7ff fa24 	bl	8001b4c <next_token>
 8002704:	f85d eb04 	ldr.w	lr, [sp], #4
 8002708:	2808      	cmp	r0, #8
 800270a:	d0a9      	beq.n	8002660 <print>
 800270c:	f8d4 a000 	ldr.w	sl, [r4]
 8002710:	f8d4 b008 	ldr.w	fp, [r4, #8]

08002714 <print_exit>:
 8002714:	ea18 0808 	ands.w	r8, r8, r8
 8002718:	d106      	bne.n	8002728 <print_exit+0x14>
 800271a:	f04f 000d 	mov.w	r0, #13
 800271e:	b500      	push	{lr}
 8002720:	f7fd ff8c 	bl	800063c <uart_putc>
 8002724:	f85d eb04 	ldr.w	lr, [sp], #4
 8002728:	4770      	bx	lr
 800272a:	bf00      	nop

0800272c <const_porta>:
 800272c:	4770      	bx	lr
 800272e:	bf00      	nop

08002730 <const_portb>:
 8002730:	4770      	bx	lr
 8002732:	bf00      	nop

08002734 <const_portc>:
 8002734:	4770      	bx	lr
 8002736:	bf00      	nop

08002738 <const_portd>:
 8002738:	4770      	bx	lr
 800273a:	bf00      	nop

0800273c <const_porte>:
 800273c:	4770      	bx	lr
 800273e:	bf00      	nop

08002740 <const_portf>:
 8002740:	4770      	bx	lr
 8002742:	bf00      	nop

08002744 <const_portg>:
 8002744:	4770      	bx	lr
 8002746:	bf00      	nop

08002748 <const_porth>:
 8002748:	4770      	bx	lr
 800274a:	bf00      	nop

0800274c <const_porti>:
 800274c:	4770      	bx	lr
 800274e:	bf00      	nop

08002750 <qkey>:
 8002750:	f04f 0100 	mov.w	r1, #0
 8002754:	b500      	push	{lr}
 8002756:	f7fd ff81 	bl	800065c <uart_qkey>
 800275a:	f85d eb04 	ldr.w	lr, [sp], #4
 800275e:	d001      	beq.n	8002764 <qkey+0x14>
 8002760:	f04f 31ff 	mov.w	r1, #4294967295	; 0xffffffff
 8002764:	f04f 000e 	mov.w	r0, #14
 8002768:	4770      	bx	lr
 800276a:	bf00      	nop

0800276c <random>:
 800276c:	b500      	push	{lr}
 800276e:	f7ff fa61 	bl	8001c34 <func_args>
 8002772:	f85d eb04 	ldr.w	lr, [sp], #4
 8002776:	2801      	cmp	r0, #1
 8002778:	f47f a802 	bne.w	8001780 <syntax_error>
 800277c:	6a60      	ldr	r0, [r4, #36]	; 0x24
 800277e:	ea4f 3140 	mov.w	r1, r0, lsl #13
 8002782:	ea81 0100 	eor.w	r1, r1, r0
 8002786:	ea4f 4051 	mov.w	r0, r1, lsr #17
 800278a:	ea81 0100 	eor.w	r1, r1, r0
 800278e:	ea4f 1041 	mov.w	r0, r1, lsl #5
 8002792:	ea81 0100 	eor.w	r1, r1, r0
 8002796:	6261      	str	r1, [r4, #36]	; 0x24
 8002798:	f85c 0b04 	ldr.w	r0, [ip], #4
 800279c:	fbb1 f2f0 	udiv	r2, r1, r0
 80027a0:	fb00 f202 	mul.w	r2, r0, r2
 80027a4:	eba1 0102 	sub.w	r1, r1, r2
 80027a8:	f04f 000e 	mov.w	r0, #14
 80027ac:	4770      	bx	lr
 80027ae:	bf00      	nop

080027b0 <rshift>:
 80027b0:	4770      	bx	lr
 80027b2:	bf00      	nop

080027b4 <run>:
 80027b4:	6c20      	ldr	r0, [r4, #64]	; 0x40
 80027b6:	f010 0f01 	tst.w	r0, #1
 80027ba:	d003      	beq.n	80027c4 <run+0x10>
 80027bc:	f04f 0007 	mov.w	r0, #7
 80027c0:	f7fe bfe2 	b.w	8001788 <tb_error>
 80027c4:	6b20      	ldr	r0, [r4, #48]	; 0x30
 80027c6:	6b61      	ldr	r1, [r4, #52]	; 0x34
 80027c8:	4288      	cmp	r0, r1
 80027ca:	d00d      	beq.n	80027e8 <run+0x34>
 80027cc:	7881      	ldrb	r1, [r0, #2]
 80027ce:	6061      	str	r1, [r4, #4]
 80027d0:	4683      	mov	fp, r0
 80027d2:	f04f 0a03 	mov.w	sl, #3
 80027d6:	ea80 0000 	eor.w	r0, r0, r0
 80027da:	60e0      	str	r0, [r4, #12]
 80027dc:	6120      	str	r0, [r4, #16]
 80027de:	6160      	str	r0, [r4, #20]
 80027e0:	6c20      	ldr	r0, [r4, #64]	; 0x40
 80027e2:	f040 0001 	orr.w	r0, r0, #1
 80027e6:	6420      	str	r0, [r4, #64]	; 0x40
 80027e8:	4770      	bx	lr
 80027ea:	bf00      	nop

080027ec <save>:
 80027ec:	4770      	bx	lr
 80027ee:	bf00      	nop

080027f0 <show>:
 80027f0:	4770      	bx	lr
 80027f2:	bf00      	nop

080027f4 <size>:
 80027f4:	4770      	bx	lr
 80027f6:	bf00      	nop

080027f8 <sleep>:
 80027f8:	4770      	bx	lr
 80027fa:	bf00      	nop

080027fc <spi_read>:
 80027fc:	4770      	bx	lr
 80027fe:	bf00      	nop

08002800 <spi_enable>:
 8002800:	4770      	bx	lr
 8002802:	bf00      	nop

08002804 <spi_select>:
 8002804:	4770      	bx	lr
 8002806:	bf00      	nop

08002808 <spi_write>:
 8002808:	4770      	bx	lr
 800280a:	bf00      	nop

0800280c <stop>:
 800280c:	4770      	bx	lr
 800280e:	bf00      	nop

08002810 <get_ticks>:
 8002810:	69e1      	ldr	r1, [r4, #28]
 8002812:	f04f 000e 	mov.w	r0, #14
 8002816:	4770      	bx	lr

08002818 <set_timer>:
 8002818:	b500      	push	{lr}
 800281a:	f7ff faf1 	bl	8001e00 <expression>
 800281e:	f85d eb04 	ldr.w	lr, [sp], #4
 8002822:	280e      	cmp	r0, #14
 8002824:	f47e afac 	bne.w	8001780 <syntax_error>
 8002828:	6221      	str	r1, [r4, #32]
 800282a:	4770      	bx	lr

0800282c <timeout>:
 800282c:	ea81 0101 	eor.w	r1, r1, r1
 8002830:	6a20      	ldr	r0, [r4, #32]
 8002832:	b908      	cbnz	r0, 8002838 <timeout+0xc>
 8002834:	ea6f 0101 	mvn.w	r1, r1
 8002838:	f04f 000e 	mov.w	r0, #14
 800283c:	4770      	bx	lr
 800283e:	bf00      	nop

08002840 <tone>:
 8002840:	4770      	bx	lr
 8002842:	bf00      	nop

08002844 <ubound>:
 8002844:	f8d4 10c8 	ldr.w	r1, [r4, #200]	; 0xc8
 8002848:	6b60      	ldr	r0, [r4, #52]	; 0x34
 800284a:	eba1 0100 	sub.w	r1, r1, r0
 800284e:	ea4f 0191 	mov.w	r1, r1, lsr #2
 8002852:	f04f 000e 	mov.w	r0, #14
 8002856:	4770      	bx	lr

08002858 <uflash>:
 8002858:	4770      	bx	lr
 800285a:	bf00      	nop

0800285c <until>:
 800285c:	b500      	push	{lr}
 800285e:	f7ff fb03 	bl	8001e68 <relation>
 8002862:	f85d eb04 	ldr.w	lr, [sp], #4
 8002866:	b111      	cbz	r1, 800286e <until+0x12>
 8002868:	f10c 0c0c 	add.w	ip, ip, #12
 800286c:	4770      	bx	lr
 800286e:	e89c 0c01 	ldmia.w	ip, {r0, sl, fp}
 8002872:	6060      	str	r0, [r4, #4]
 8002874:	4770      	bx	lr
 8002876:	bf00      	nop

08002878 <usr>:
 8002878:	4770      	bx	lr
 800287a:	bf00      	nop

0800287c <wait>:
 800287c:	4770      	bx	lr
 800287e:	bf00      	nop

08002880 <words>:
 8002880:	6c20      	ldr	r0, [r4, #64]	; 0x40
 8002882:	f010 0f01 	tst.w	r0, #1
 8002886:	d003      	beq.n	8002890 <words+0x10>
 8002888:	f04f 0007 	mov.w	r0, #7
 800288c:	f7fe bf7c 	b.w	8001788 <tb_error>
 8002890:	f8df 836c 	ldr.w	r8, [pc, #876]	; 8002c00 <receive+0x2ec>
 8002894:	ea89 0909 	eor.w	r9, r9, r9
 8002898:	4640      	mov	r0, r8
 800289a:	b500      	push	{lr}
 800289c:	f7fe fb24 	bl	8000ee8 <strlen>
 80028a0:	f85d eb04 	ldr.w	lr, [sp], #4
 80028a4:	b1f0      	cbz	r0, 80028e4 <words+0x64>
 80028a6:	4481      	add	r9, r0
 80028a8:	f1b9 0f50 	cmp.w	r9, #80	; 0x50
 80028ac:	d408      	bmi.n	80028c0 <words+0x40>
 80028ae:	ea89 0909 	eor.w	r9, r9, r9
 80028b2:	f04f 000d 	mov.w	r0, #13
 80028b6:	b500      	push	{lr}
 80028b8:	f7fd fec0 	bl	800063c <uart_putc>
 80028bc:	f85d eb04 	ldr.w	lr, [sp], #4
 80028c0:	4640      	mov	r0, r8
 80028c2:	b500      	push	{lr}
 80028c4:	f7fd ffca 	bl	800085c <uart_puts>
 80028c8:	f85d eb04 	ldr.w	lr, [sp], #4
 80028cc:	f04f 0020 	mov.w	r0, #32
 80028d0:	f109 0901 	add.w	r9, r9, #1
 80028d4:	b500      	push	{lr}
 80028d6:	f7fd feb1 	bl	800063c <uart_putc>
 80028da:	f85d eb04 	ldr.w	lr, [sp], #4
 80028de:	f858 8c0c 	ldr.w	r8, [r8, #-12]
 80028e2:	e7d9      	b.n	8002898 <words+0x18>
 80028e4:	4770      	bx	lr
 80028e6:	bf00      	nop

080028e8 <write>:
 80028e8:	4770      	bx	lr
 80028ea:	bf00      	nop

080028ec <bit_xor>:
 80028ec:	b500      	push	{lr}
 80028ee:	f7ff f9a1 	bl	8001c34 <func_args>
 80028f2:	f85d eb04 	ldr.w	lr, [sp], #4
 80028f6:	2802      	cmp	r0, #2
 80028f8:	f47e af42 	bne.w	8001780 <syntax_error>
 80028fc:	f85c 0b04 	ldr.w	r0, [ip], #4
 8002900:	f85c 1b04 	ldr.w	r1, [ip], #4
 8002904:	ea81 0100 	eor.w	r1, r1, r0
 8002908:	f04f 000e 	mov.w	r0, #14
 800290c:	4770      	bx	lr
 800290e:	bf00      	nop

08002910 <transmit>:
 8002910:	4770      	bx	lr
 8002912:	bf00      	nop

08002914 <receive>:
 8002914:	4770      	bx	lr
 8002916:	bf00      	nop
 8002918:	f3af 8000 	nop.w
 800291c:	f3af 8000 	nop.w
 8002920:	f3af 8000 	nop.w
 8002924:	f3af 8000 	nop.w
 8002928:	f3af 8000 	nop.w
 800292c:	f3af 8000 	nop.w
 8002930:	f3af 8000 	nop.w
 8002934:	f3af 8000 	nop.w
 8002938:	f3af 8000 	nop.w
 800293c:	f3af 8000 	nop.w
	...
 8002c00:	080035e8 	stmdaeq	r0, {r3, r5, r6, r7, r8, sl, ip, sp}
