
build/stm32-tbi.elf:     file format elf32-littlearm


Disassembly of section .isr_vector:

08000000 <isr_vectors>:
 8000000:	20005000 	andcs	r5, r0, r0
 8000004:	080001d9 	stmdaeq	r0, {r0, r3, r4, r6, r7, r8}
 8000008:	08000135 	stmdaeq	r0, {r0, r2, r4, r5, r8}
 800000c:	08000135 	stmdaeq	r0, {r0, r2, r4, r5, r8}
 8000010:	08000135 	stmdaeq	r0, {r0, r2, r4, r5, r8}
 8000014:	08000135 	stmdaeq	r0, {r0, r2, r4, r5, r8}
 8000018:	08000135 	stmdaeq	r0, {r0, r2, r4, r5, r8}
	...
 800002c:	08000135 	stmdaeq	r0, {r0, r2, r4, r5, r8}
 8000030:	08000135 	stmdaeq	r0, {r0, r2, r4, r5, r8}
 8000034:	00000000 	andeq	r0, r0, r0
 8000038:	08000135 	stmdaeq	r0, {r0, r2, r4, r5, r8}
 800003c:	08000161 	stmdaeq	r0, {r0, r5, r6, r8}

08000040 <irq0>:
 8000040:	08000135 	stmdaeq	r0, {r0, r2, r4, r5, r8}
 8000044:	08000135 	stmdaeq	r0, {r0, r2, r4, r5, r8}
 8000048:	08000135 	stmdaeq	r0, {r0, r2, r4, r5, r8}
 800004c:	08000135 	stmdaeq	r0, {r0, r2, r4, r5, r8}
 8000050:	08000135 	stmdaeq	r0, {r0, r2, r4, r5, r8}
 8000054:	08000135 	stmdaeq	r0, {r0, r2, r4, r5, r8}
 8000058:	08000135 	stmdaeq	r0, {r0, r2, r4, r5, r8}
 800005c:	08000135 	stmdaeq	r0, {r0, r2, r4, r5, r8}
 8000060:	08000135 	stmdaeq	r0, {r0, r2, r4, r5, r8}
 8000064:	08000135 	stmdaeq	r0, {r0, r2, r4, r5, r8}
 8000068:	08000135 	stmdaeq	r0, {r0, r2, r4, r5, r8}
 800006c:	08000135 	stmdaeq	r0, {r0, r2, r4, r5, r8}
 8000070:	08000135 	stmdaeq	r0, {r0, r2, r4, r5, r8}
 8000074:	08000135 	stmdaeq	r0, {r0, r2, r4, r5, r8}
 8000078:	08000135 	stmdaeq	r0, {r0, r2, r4, r5, r8}
 800007c:	08000135 	stmdaeq	r0, {r0, r2, r4, r5, r8}
 8000080:	08000135 	stmdaeq	r0, {r0, r2, r4, r5, r8}
 8000084:	08000135 	stmdaeq	r0, {r0, r2, r4, r5, r8}
 8000088:	08000135 	stmdaeq	r0, {r0, r2, r4, r5, r8}
 800008c:	08000135 	stmdaeq	r0, {r0, r2, r4, r5, r8}
 8000090:	08000135 	stmdaeq	r0, {r0, r2, r4, r5, r8}
 8000094:	08000135 	stmdaeq	r0, {r0, r2, r4, r5, r8}
 8000098:	08000135 	stmdaeq	r0, {r0, r2, r4, r5, r8}
 800009c:	08000135 	stmdaeq	r0, {r0, r2, r4, r5, r8}
 80000a0:	08000135 	stmdaeq	r0, {r0, r2, r4, r5, r8}
 80000a4:	08000135 	stmdaeq	r0, {r0, r2, r4, r5, r8}
 80000a8:	08000135 	stmdaeq	r0, {r0, r2, r4, r5, r8}
 80000ac:	08000135 	stmdaeq	r0, {r0, r2, r4, r5, r8}
 80000b0:	08000135 	stmdaeq	r0, {r0, r2, r4, r5, r8}
 80000b4:	08000135 	stmdaeq	r0, {r0, r2, r4, r5, r8}
 80000b8:	08000135 	stmdaeq	r0, {r0, r2, r4, r5, r8}
 80000bc:	08000135 	stmdaeq	r0, {r0, r2, r4, r5, r8}
 80000c0:	08000135 	stmdaeq	r0, {r0, r2, r4, r5, r8}
 80000c4:	08000135 	stmdaeq	r0, {r0, r2, r4, r5, r8}
 80000c8:	08000135 	stmdaeq	r0, {r0, r2, r4, r5, r8}
 80000cc:	08000135 	stmdaeq	r0, {r0, r2, r4, r5, r8}
 80000d0:	08000135 	stmdaeq	r0, {r0, r2, r4, r5, r8}
 80000d4:	08000175 	stmdaeq	r0, {r0, r2, r4, r5, r6, r8}
 80000d8:	08000135 	stmdaeq	r0, {r0, r2, r4, r5, r8}
 80000dc:	08000135 	stmdaeq	r0, {r0, r2, r4, r5, r8}
 80000e0:	08000135 	stmdaeq	r0, {r0, r2, r4, r5, r8}
 80000e4:	08000135 	stmdaeq	r0, {r0, r2, r4, r5, r8}
 80000e8:	08000135 	stmdaeq	r0, {r0, r2, r4, r5, r8}
 80000ec:	08000135 	stmdaeq	r0, {r0, r2, r4, r5, r8}
 80000f0:	08000135 	stmdaeq	r0, {r0, r2, r4, r5, r8}
 80000f4:	08000135 	stmdaeq	r0, {r0, r2, r4, r5, r8}
 80000f8:	08000135 	stmdaeq	r0, {r0, r2, r4, r5, r8}
 80000fc:	08000135 	stmdaeq	r0, {r0, r2, r4, r5, r8}
 8000100:	08000135 	stmdaeq	r0, {r0, r2, r4, r5, r8}
 8000104:	08000135 	stmdaeq	r0, {r0, r2, r4, r5, r8}
 8000108:	08000135 	stmdaeq	r0, {r0, r2, r4, r5, r8}
 800010c:	08000135 	stmdaeq	r0, {r0, r2, r4, r5, r8}
 8000110:	08000135 	stmdaeq	r0, {r0, r2, r4, r5, r8}
 8000114:	08000135 	stmdaeq	r0, {r0, r2, r4, r5, r8}
 8000118:	08000135 	stmdaeq	r0, {r0, r2, r4, r5, r8}
 800011c:	08000135 	stmdaeq	r0, {r0, r2, r4, r5, r8}
 8000120:	08000135 	stmdaeq	r0, {r0, r2, r4, r5, r8}
 8000124:	08000135 	stmdaeq	r0, {r0, r2, r4, r5, r8}
 8000128:	08000135 	stmdaeq	r0, {r0, r2, r4, r5, r8}
 800012c:	08000135 	stmdaeq	r0, {r0, r2, r4, r5, r8}

08000130 <vectors_size>:
 8000130:	00000130 	andeq	r0, r0, r0, lsr r1

Disassembly of section .text:

08000134 <default_handler>:
 8000134:	48ee      	ldr	r0, [pc, #952]	; (80004f0 <erase_error+0x10>)
 8000136:	b500      	push	{lr}
 8000138:	f000 fa10 	bl	800055c <uart_puts>
 800013c:	f85d eb04 	ldr.w	lr, [sp], #4
 8000140:	f44f 4000 	mov.w	r0, #32768	; 0x8000
 8000144:	3801      	subs	r0, #1
 8000146:	d1fd      	bne.n	8000144 <default_handler+0x10>
 8000148:	e034      	b.n	80001b4 <reset_mcu>
 800014a:	bf00      	nop

0800014c <exception_msg>:
 800014c:	6578650a 	ldrbvs	r6, [r8, #-1290]!	; 0xfffffaf6
 8000150:	6f697470 	svcvs	0x00697470
 8000154:	6572206e 	ldrbvs	r2, [r2, #-110]!	; 0xffffff92
 8000158:	746f6f62 	strbtvc	r6, [pc], #-3938	; 8000160 <systick_handler>
 800015c:	00000a21 	andeq	r0, r0, r1, lsr #20

08000160 <systick_handler>:
 8000160:	69e0      	ldr	r0, [r4, #28]
 8000162:	f100 0001 	add.w	r0, r0, #1
 8000166:	61e0      	str	r0, [r4, #28]
 8000168:	6a20      	ldr	r0, [r4, #32]
 800016a:	b110      	cbz	r0, 8000172 <systick_handler+0x12>
 800016c:	f1a0 0001 	sub.w	r0, r0, #1
 8000170:	6220      	str	r0, [r4, #32]
 8000172:	4770      	bx	lr

08000174 <uart_rx_handler>:
 8000174:	f44f 5060 	mov.w	r0, #14336	; 0x3800
 8000178:	f2c4 0001 	movt	r0, #16385	; 0x4001
 800017c:	6801      	ldr	r1, [r0, #0]
 800017e:	8882      	ldrh	r2, [r0, #4]
 8000180:	f011 0f20 	tst.w	r1, #32
 8000184:	d00b      	beq.n	800019e <uart_rx_handler+0x2a>
 8000186:	2a03      	cmp	r2, #3
 8000188:	f000 800a 	beq.w	80001a0 <user_reboot>
 800018c:	f104 0050 	add.w	r0, r4, #80	; 0x50
 8000190:	6ce1      	ldr	r1, [r4, #76]	; 0x4c
 8000192:	5442      	strb	r2, [r0, r1]
 8000194:	f101 0101 	add.w	r1, r1, #1
 8000198:	f001 010f 	and.w	r1, r1, #15
 800019c:	64e1      	str	r1, [r4, #76]	; 0x4c
 800019e:	4770      	bx	lr

080001a0 <user_reboot>:
 80001a0:	48d4      	ldr	r0, [pc, #848]	; (80004f4 <erase_error+0x14>)
 80001a2:	b500      	push	{lr}
 80001a4:	f000 f9da 	bl	800055c <uart_puts>
 80001a8:	f85d eb04 	ldr.w	lr, [sp], #4
 80001ac:	f44f 4000 	mov.w	r0, #32768	; 0x8000
 80001b0:	3801      	subs	r0, #1
 80001b2:	d1fd      	bne.n	80001b0 <user_reboot+0x10>

080001b4 <reset_mcu>:
 80001b4:	4803      	ldr	r0, [pc, #12]	; (80001c4 <scb_adr>)
 80001b6:	68c1      	ldr	r1, [r0, #12]
 80001b8:	f041 0104 	orr.w	r1, r1, #4
 80001bc:	f2c0 51fa 	movt	r1, #1530	; 0x5fa
 80001c0:	60c1      	str	r1, [r0, #12]
 80001c2:	e7fe      	b.n	80001c2 <reset_mcu+0xe>

080001c4 <scb_adr>:
 80001c4:	e000ed00 	and	lr, r0, r0, lsl #26

080001c8 <user_reboot_msg>:
 80001c8:	6573750a 	ldrbvs	r7, [r3, #-1290]!	; 0xfffffaf6
 80001cc:	65722072 	ldrbvs	r2, [r2, #-114]!	; 0xffffff8e
 80001d0:	746f6f62 	strbtvc	r6, [pc], #-3938	; 80001d8 <reset_handler>
 80001d4:	00000a21 	andeq	r0, r0, r1, lsr #20

080001d8 <reset_handler>:
 80001d8:	f44f 40a0 	mov.w	r0, #20480	; 0x5000
 80001dc:	f2c2 0000 	movt	r0, #8192	; 0x2000
 80001e0:	4685      	mov	sp, r0
 80001e2:	f000 f821 	bl	8000228 <remap>
 80001e6:	f000 f837 	bl	8000258 <init_devices>
 80001ea:	f000 f885 	bl	80002f8 <uart_init>
 80001ee:	f001 f86f 	bl	80012d0 <cold_start>
 80001f2:	f000 f801 	bl	80001f8 <test>
 80001f6:	e7fe      	b.n	80001f6 <reset_handler+0x1e>

080001f8 <test>:
 80001f8:	480a      	ldr	r0, [pc, #40]	; (8000224 <tib_addr>)
 80001fa:	f04f 0150 	mov.w	r1, #80	; 0x50
 80001fe:	b500      	push	{lr}
 8000200:	f000 fb32 	bl	8000868 <readln>
 8000204:	f85d eb04 	ldr.w	lr, [sp], #4
 8000208:	b500      	push	{lr}
 800020a:	f000 f9a7 	bl	800055c <uart_puts>
 800020e:	f85d eb04 	ldr.w	lr, [sp], #4
 8000212:	f04f 000d 	mov.w	r0, #13
 8000216:	b500      	push	{lr}
 8000218:	f000 f890 	bl	800033c <uart_putc>
 800021c:	f85d eb04 	ldr.w	lr, [sp], #4
 8000220:	e7ea      	b.n	80001f8 <test>
 8000222:	4770      	bx	lr

08000224 <tib_addr>:
 8000224:	20004e30 	andcs	r4, r0, r0, lsr lr

08000228 <remap>:
 8000228:	ea80 0000 	eor.w	r0, r0, r0
 800022c:	f04f 0100 	mov.w	r1, #0
 8000230:	f2c2 0100 	movt	r1, #8192	; 0x2000
 8000234:	f44f 7298 	mov.w	r2, #304	; 0x130
 8000238:	b500      	push	{lr}
 800023a:	f000 fc67 	bl	8000b0c <cmove>
 800023e:	f85d eb04 	ldr.w	lr, [sp], #4
 8000242:	f44f 406d 	mov.w	r0, #60672	; 0xed00
 8000246:	f2ce 0000 	movt	r0, #57344	; 0xe000
 800024a:	f04f 0100 	mov.w	r1, #0
 800024e:	f2c2 0100 	movt	r1, #8192	; 0x2000
 8000252:	6081      	str	r1, [r0, #8]
 8000254:	4770      	bx	lr
 8000256:	bf00      	nop

08000258 <init_devices>:
 8000258:	f44f 5000 	mov.w	r0, #8192	; 0x2000
 800025c:	f2c4 0002 	movt	r0, #16386	; 0x4002
 8000260:	f04f 0212 	mov.w	r2, #18
 8000264:	6002      	str	r2, [r0, #0]
 8000266:	f44f 5080 	mov.w	r0, #4096	; 0x1000
 800026a:	f2c4 0002 	movt	r0, #16386	; 0x4002
 800026e:	6801      	ldr	r1, [r0, #0]
 8000270:	f441 3180 	orr.w	r1, r1, #65536	; 0x10000
 8000274:	6001      	str	r1, [r0, #0]

08000276 <wait_hserdy>:
 8000276:	6801      	ldr	r1, [r0, #0]
 8000278:	f411 3f00 	tst.w	r1, #131072	; 0x20000
 800027c:	d0fb      	beq.n	8000276 <wait_hserdy>
 800027e:	f44f 6180 	mov.w	r1, #1024	; 0x400
 8000282:	f2c0 011d 	movt	r1, #29
 8000286:	6041      	str	r1, [r0, #4]
 8000288:	6801      	ldr	r1, [r0, #0]
 800028a:	f041 7180 	orr.w	r1, r1, #16777216	; 0x1000000
 800028e:	6001      	str	r1, [r0, #0]

08000290 <wait_pllrdy>:
 8000290:	6801      	ldr	r1, [r0, #0]
 8000292:	f011 7f00 	tst.w	r1, #33554432	; 0x2000000
 8000296:	d0fb      	beq.n	8000290 <wait_pllrdy>
 8000298:	6841      	ldr	r1, [r0, #4]
 800029a:	f64f 72fc 	movw	r2, #65532	; 0xfffc
 800029e:	f6cf 72ff 	movt	r2, #65535	; 0xffff
 80002a2:	ea01 0102 	and.w	r1, r1, r2
 80002a6:	f04f 0202 	mov.w	r2, #2
 80002aa:	ea41 0102 	orr.w	r1, r1, r2
 80002ae:	6041      	str	r1, [r0, #4]

080002b0 <wait_sws>:
 80002b0:	6841      	ldr	r1, [r0, #4]
 80002b2:	f011 0f08 	tst.w	r1, #8
 80002b6:	d0fb      	beq.n	80002b0 <wait_sws>
 80002b8:	f44f 5080 	mov.w	r0, #4096	; 0x1000
 80002bc:	f2c4 0002 	movt	r0, #16386	; 0x4002
 80002c0:	f244 0114 	movw	r1, #16404	; 0x4014
 80002c4:	6181      	str	r1, [r0, #24]
 80002c6:	f44f 5080 	mov.w	r0, #4096	; 0x1000
 80002ca:	f2c4 0001 	movt	r0, #16385	; 0x4001
 80002ce:	6841      	ldr	r1, [r0, #4]
 80002d0:	f46f 0270 	mvn.w	r2, #15728640	; 0xf00000
 80002d4:	ea01 0102 	and.w	r1, r1, r2
 80002d8:	f44f 02c0 	mov.w	r2, #6291456	; 0x600000
 80002dc:	ea41 0102 	orr.w	r1, r1, r2
 80002e0:	6041      	str	r1, [r0, #4]
 80002e2:	f24e 0010 	movw	r0, #57360	; 0xe010
 80002e6:	f2ce 0000 	movt	r0, #57344	; 0xe000
 80002ea:	f242 3128 	movw	r1, #9000	; 0x2328
 80002ee:	6041      	str	r1, [r0, #4]
 80002f0:	f04f 0103 	mov.w	r1, #3
 80002f4:	6001      	str	r1, [r0, #0]
 80002f6:	4770      	bx	lr

080002f8 <uart_init>:
 80002f8:	f44f 6000 	mov.w	r0, #2048	; 0x800
 80002fc:	f2c4 0001 	movt	r0, #16385	; 0x4001
 8000300:	6841      	ldr	r1, [r0, #4]
 8000302:	f06f 02f0 	mvn.w	r2, #240	; 0xf0
 8000306:	ea01 0102 	and.w	r1, r1, r2
 800030a:	f04f 02a0 	mov.w	r2, #160	; 0xa0
 800030e:	ea41 0102 	orr.w	r1, r1, r2
 8000312:	6041      	str	r1, [r0, #4]
 8000314:	f44f 5060 	mov.w	r0, #14336	; 0x3800
 8000318:	f2c4 0001 	movt	r0, #16385	; 0x4001
 800031c:	f240 2171 	movw	r1, #625	; 0x271
 8000320:	6081      	str	r1, [r0, #8]
 8000322:	f242 012c 	movw	r1, #8236	; 0x202c
 8000326:	60c1      	str	r1, [r0, #12]
 8000328:	f44f 4061 	mov.w	r0, #57600	; 0xe100
 800032c:	f2ce 0000 	movt	r0, #57344	; 0xe000
 8000330:	6841      	ldr	r1, [r0, #4]
 8000332:	f041 0120 	orr.w	r1, r1, #32
 8000336:	6041      	str	r1, [r0, #4]
 8000338:	4770      	bx	lr
 800033a:	bf00      	nop

0800033c <uart_putc>:
 800033c:	e92d 0300 	stmdb	sp!, {r8, r9}
 8000340:	f44f 5960 	mov.w	r9, #14336	; 0x3800
 8000344:	f2c4 0901 	movt	r9, #16385	; 0x4001
 8000348:	f8d9 8000 	ldr.w	r8, [r9]
 800034c:	f018 0880 	ands.w	r8, r8, #128	; 0x80
 8000350:	d0fa      	beq.n	8000348 <uart_putc+0xc>
 8000352:	f889 0004 	strb.w	r0, [r9, #4]
 8000356:	e8bd 0300 	ldmia.w	sp!, {r8, r9}
 800035a:	4770      	bx	lr

0800035c <uart_qkey>:
 800035c:	b402      	push	{r1}
 800035e:	6ca0      	ldr	r0, [r4, #72]	; 0x48
 8000360:	6ce1      	ldr	r1, [r4, #76]	; 0x4c
 8000362:	4048      	eors	r0, r1
 8000364:	bc02      	pop	{r1}
 8000366:	4770      	bx	lr

08000368 <uart_getc>:
 8000368:	e92d 0300 	stmdb	sp!, {r8, r9}
 800036c:	b500      	push	{lr}
 800036e:	f7ff fff5 	bl	800035c <uart_qkey>
 8000372:	f85d eb04 	ldr.w	lr, [sp], #4
 8000376:	d0f9      	beq.n	800036c <uart_getc+0x4>
 8000378:	f104 0850 	add.w	r8, r4, #80	; 0x50
 800037c:	f8d4 9048 	ldr.w	r9, [r4, #72]	; 0x48
 8000380:	f818 0009 	ldrb.w	r0, [r8, r9]
 8000384:	f109 0901 	add.w	r9, r9, #1
 8000388:	f009 090f 	and.w	r9, r9, #15
 800038c:	f8c4 9048 	str.w	r9, [r4, #72]	; 0x48
 8000390:	e8bd 0300 	ldmia.w	sp!, {r8, r9}
 8000394:	4770      	bx	lr
 8000396:	bf00      	nop

08000398 <unlock>:
 8000398:	b440      	push	{r6}
 800039a:	4000      	ands	r0, r0
 800039c:	d015      	beq.n	80003ca <lock>
 800039e:	f44f 5000 	mov.w	r0, #8192	; 0x2000
 80003a2:	f2c4 0002 	movt	r0, #16386	; 0x4002
 80003a6:	f04f 0634 	mov.w	r6, #52	; 0x34
 80003aa:	60c6      	str	r6, [r0, #12]
 80003ac:	6906      	ldr	r6, [r0, #16]
 80003ae:	f016 0f80 	tst.w	r6, #128	; 0x80
 80003b2:	d011      	beq.n	80003d8 <lock+0xe>
 80003b4:	f240 1623 	movw	r6, #291	; 0x123
 80003b8:	f2c4 5667 	movt	r6, #17767	; 0x4567
 80003bc:	6046      	str	r6, [r0, #4]
 80003be:	f648 16ab 	movw	r6, #35243	; 0x89ab
 80003c2:	f6cc 56ef 	movt	r6, #52719	; 0xcdef
 80003c6:	6046      	str	r6, [r0, #4]
 80003c8:	e006      	b.n	80003d8 <lock+0xe>

080003ca <lock>:
 80003ca:	f44f 5000 	mov.w	r0, #8192	; 0x2000
 80003ce:	f2c4 0002 	movt	r0, #16386	; 0x4002
 80003d2:	f04f 0680 	mov.w	r6, #128	; 0x80
 80003d6:	6106      	str	r6, [r0, #16]
 80003d8:	bc40      	pop	{r6}
 80003da:	4770      	bx	lr

080003dc <wait_busy>:
 80003dc:	b403      	push	{r0, r1}
 80003de:	f44f 5000 	mov.w	r0, #8192	; 0x2000
 80003e2:	f2c4 0002 	movt	r0, #16386	; 0x4002
 80003e6:	68c1      	ldr	r1, [r0, #12]
 80003e8:	f011 0101 	ands.w	r1, r1, #1
 80003ec:	d1fb      	bne.n	80003e6 <wait_busy+0xa>
 80003ee:	bc03      	pop	{r0, r1}
 80003f0:	4770      	bx	lr
 80003f2:	bf00      	nop

080003f4 <hword_write>:
 80003f4:	b4c0      	push	{r6, r7}
 80003f6:	f44f 5600 	mov.w	r6, #8192	; 0x2000
 80003fa:	f2c4 0602 	movt	r6, #16386	; 0x4002
 80003fe:	f04f 0701 	mov.w	r7, #1
 8000402:	6137      	str	r7, [r6, #16]
 8000404:	8008      	strh	r0, [r1, #0]
 8000406:	b500      	push	{lr}
 8000408:	f7ff ffe8 	bl	80003dc <wait_busy>
 800040c:	f85d eb04 	ldr.w	lr, [sp], #4
 8000410:	68f7      	ldr	r7, [r6, #12]
 8000412:	f017 0714 	ands.w	r7, r7, #20
 8000416:	d005      	beq.n	8000424 <hword_write+0x30>
 8000418:	4837      	ldr	r0, [pc, #220]	; (80004f8 <erase_error+0x18>)
 800041a:	b500      	push	{lr}
 800041c:	f000 f89e 	bl	800055c <uart_puts>
 8000420:	f85d eb04 	ldr.w	lr, [sp], #4
 8000424:	bcc0      	pop	{r6, r7}
 8000426:	4770      	bx	lr

08000428 <write_error>:
 8000428:	69727720 	ldmdbvs	r2!, {r5, r8, r9, sl, ip, sp, lr}^
 800042c:	65206574 	strvs	r6, [r0, #-1396]!	; 0xfffffa8c
 8000430:	726f7272 	rsbvc	r7, pc, #536870919	; 0x20000007
 8000434:	bf000021 	svclt	0x00000021

08000438 <flash_store>:
 8000438:	e92d 0300 	stmdb	sp!, {r8, r9}
 800043c:	4680      	mov	r8, r0
 800043e:	4689      	mov	r9, r1
 8000440:	f04f 0001 	mov.w	r0, #1
 8000444:	b500      	push	{lr}
 8000446:	f7ff ffa7 	bl	8000398 <unlock>
 800044a:	f85d eb04 	ldr.w	lr, [sp], #4
 800044e:	4640      	mov	r0, r8
 8000450:	4649      	mov	r1, r9
 8000452:	b500      	push	{lr}
 8000454:	f7ff ffce 	bl	80003f4 <hword_write>
 8000458:	f85d eb04 	ldr.w	lr, [sp], #4
 800045c:	ea4f 4018 	mov.w	r0, r8, lsr #16
 8000460:	f109 0102 	add.w	r1, r9, #2
 8000464:	b500      	push	{lr}
 8000466:	f7ff ffc5 	bl	80003f4 <hword_write>
 800046a:	f85d eb04 	ldr.w	lr, [sp], #4
 800046e:	ea80 0000 	eor.w	r0, r0, r0
 8000472:	b500      	push	{lr}
 8000474:	f7ff ff90 	bl	8000398 <unlock>
 8000478:	f85d eb04 	ldr.w	lr, [sp], #4
 800047c:	e8bd 0300 	ldmia.w	sp!, {r8, r9}
 8000480:	4770      	bx	lr
 8000482:	bf00      	nop

08000484 <erase_page>:
 8000484:	e92d 0300 	stmdb	sp!, {r8, r9}
 8000488:	4680      	mov	r8, r0
 800048a:	f04f 0001 	mov.w	r0, #1
 800048e:	b500      	push	{lr}
 8000490:	f7ff ff82 	bl	8000398 <unlock>
 8000494:	f85d eb04 	ldr.w	lr, [sp], #4
 8000498:	f44f 5000 	mov.w	r0, #8192	; 0x2000
 800049c:	f2c4 0002 	movt	r0, #16386	; 0x4002
 80004a0:	f04f 0902 	mov.w	r9, #2
 80004a4:	f8c0 9010 	str.w	r9, [r0, #16]
 80004a8:	f8c0 8014 	str.w	r8, [r0, #20]
 80004ac:	f049 0940 	orr.w	r9, r9, #64	; 0x40
 80004b0:	f8c0 9010 	str.w	r9, [r0, #16]
 80004b4:	f8d0 900c 	ldr.w	r9, [r0, #12]
 80004b8:	f019 0914 	ands.w	r9, r9, #20
 80004bc:	d006      	beq.n	80004cc <erase_page+0x48>
 80004be:	f8df 0020 	ldr.w	r0, [pc, #32]	; 80004e0 <erase_error>
 80004c2:	b500      	push	{lr}
 80004c4:	f000 f84a 	bl	800055c <uart_puts>
 80004c8:	f85d eb04 	ldr.w	lr, [sp], #4
 80004cc:	ea80 0000 	eor.w	r0, r0, r0
 80004d0:	b500      	push	{lr}
 80004d2:	f7ff ff61 	bl	8000398 <unlock>
 80004d6:	f85d eb04 	ldr.w	lr, [sp], #4
 80004da:	e8bd 0300 	ldmia.w	sp!, {r8, r9}
 80004de:	4770      	bx	lr

080004e0 <erase_error>:
 80004e0:	61726520 	cmnvs	r2, r0, lsr #10
 80004e4:	65206573 	strvs	r6, [r0, #-1395]!	; 0xfffffa8d
 80004e8:	726f7272 	rsbvc	r7, pc, #536870919	; 0x20000007
 80004ec:	00000d21 	andeq	r0, r0, r1, lsr #26
 80004f0:	0800014c 	stmdaeq	r0, {r2, r3, r6, r8}
 80004f4:	080001c8 	stmdaeq	r0, {r3, r6, r7, r8}
 80004f8:	08000428 	stmdaeq	r0, {r3, r5, sl}

080004fc <get_escape>:
 80004fc:	b404      	push	{r2}
 80004fe:	b500      	push	{lr}
 8000500:	f7ff ff32 	bl	8000368 <uart_getc>
 8000504:	f85d eb04 	ldr.w	lr, [sp], #4
 8000508:	285b      	cmp	r0, #91	; 0x5b
 800050a:	d003      	beq.n	8000514 <get_escape+0x18>
 800050c:	ea80 0000 	eor.w	r0, r0, r0
 8000510:	bc04      	pop	{r2}
 8000512:	4770      	bx	lr
 8000514:	b500      	push	{lr}
 8000516:	f7ff ff27 	bl	8000368 <uart_getc>
 800051a:	f85d eb04 	ldr.w	lr, [sp], #4
 800051e:	f8df 25d0 	ldr.w	r2, [pc, #1488]	; 8000af0 <readln_exit+0x1e>
 8000522:	7811      	ldrb	r1, [r2, #0]
 8000524:	4009      	ands	r1, r1
 8000526:	d0f1      	beq.n	800050c <get_escape+0x10>
 8000528:	4288      	cmp	r0, r1
 800052a:	d002      	beq.n	8000532 <get_escape+0x36>
 800052c:	f102 0202 	add.w	r2, r2, #2
 8000530:	e7f7      	b.n	8000522 <get_escape+0x26>
 8000532:	f102 0201 	add.w	r2, r2, #1
 8000536:	7810      	ldrb	r0, [r2, #0]
 8000538:	f1b0 0f84 	cmp.w	r0, #132	; 0x84
 800053c:	d106      	bne.n	800054c <get_escape+0x50>
 800053e:	b401      	push	{r0}
 8000540:	b500      	push	{lr}
 8000542:	f7ff ff11 	bl	8000368 <uart_getc>
 8000546:	f85d eb04 	ldr.w	lr, [sp], #4
 800054a:	bc01      	pop	{r0}
 800054c:	bc04      	pop	{r2}
 800054e:	4770      	bx	lr

08000550 <convert_table>:
 8000550:	80448143 	subhi	r8, r4, r3, asr #2
 8000554:	83468248 	movthi	r8, #25160	; 0x6248
 8000558:	00008433 	andeq	r8, r0, r3, lsr r4

0800055c <uart_puts>:
 800055c:	f84d 8d04 	str.w	r8, [sp, #-4]!
 8000560:	4680      	mov	r8, r0
 8000562:	f818 0b01 	ldrb.w	r0, [r8], #1
 8000566:	b128      	cbz	r0, 8000574 <uart_puts+0x18>
 8000568:	b500      	push	{lr}
 800056a:	f7ff fee7 	bl	800033c <uart_putc>
 800056e:	f85d eb04 	ldr.w	lr, [sp], #4
 8000572:	e7f6      	b.n	8000562 <uart_puts+0x6>
 8000574:	f85d 8b04 	ldr.w	r8, [sp], #4
 8000578:	4770      	bx	lr
 800057a:	bf00      	nop

0800057c <digit>:
 800057c:	f84d 8d04 	str.w	r8, [sp, #-4]!
 8000580:	b401      	push	{r0}
 8000582:	4688      	mov	r8, r1
 8000584:	fbb0 f0f8 	udiv	r0, r0, r8
 8000588:	4601      	mov	r1, r0
 800058a:	fb08 f000 	mul.w	r0, r8, r0
 800058e:	f85d 8b04 	ldr.w	r8, [sp], #4
 8000592:	eba8 0000 	sub.w	r0, r8, r0
 8000596:	280a      	cmp	r0, #10
 8000598:	d401      	bmi.n	800059e <digit+0x22>
 800059a:	f100 0007 	add.w	r0, r0, #7
 800059e:	f100 0030 	add.w	r0, r0, #48	; 0x30
 80005a2:	f85d 8b04 	ldr.w	r8, [sp], #4
 80005a6:	4770      	bx	lr

080005a8 <itoa>:
 80005a8:	e92d 0380 	stmdb	sp!, {r7, r8, r9}
 80005ac:	4607      	mov	r7, r0
 80005ae:	4688      	mov	r8, r1
 80005b0:	f8df 905a 	ldr.w	r9, [pc, #90]	; 800060e <pad>
 80005b4:	f109 0980 	add.w	r9, r9, #128	; 0x80
 80005b8:	ea80 0000 	eor.w	r0, r0, r0
 80005bc:	f809 0d01 	strb.w	r0, [r9, #-1]!
 80005c0:	f100 0020 	add.w	r0, r0, #32
 80005c4:	f809 0d01 	strb.w	r0, [r9, #-1]!
 80005c8:	ea80 0000 	eor.w	r0, r0, r0
 80005cc:	f1b8 0f0a 	cmp.w	r8, #10
 80005d0:	d104      	bne.n	80005dc <itoa+0x34>
 80005d2:	f017 4000 	ands.w	r0, r7, #2147483648	; 0x80000000
 80005d6:	d001      	beq.n	80005dc <itoa+0x34>
 80005d8:	f1c7 0700 	rsb	r7, r7, #0
 80005dc:	b401      	push	{r0}
 80005de:	4638      	mov	r0, r7
 80005e0:	4641      	mov	r1, r8
 80005e2:	b500      	push	{lr}
 80005e4:	f7ff ffca 	bl	800057c <digit>
 80005e8:	f85d eb04 	ldr.w	lr, [sp], #4
 80005ec:	f809 0d01 	strb.w	r0, [r9, #-1]!
 80005f0:	4009      	ands	r1, r1
 80005f2:	d001      	beq.n	80005f8 <itoa+0x50>
 80005f4:	460f      	mov	r7, r1
 80005f6:	e7f2      	b.n	80005de <itoa+0x36>
 80005f8:	bc01      	pop	{r0}
 80005fa:	4000      	ands	r0, r0
 80005fc:	d003      	beq.n	8000606 <itoa+0x5e>
 80005fe:	f04f 002d 	mov.w	r0, #45	; 0x2d
 8000602:	f809 0d01 	strb.w	r0, [r9, #-1]!
 8000606:	4648      	mov	r0, r9
 8000608:	e8bd 0380 	ldmia.w	sp!, {r7, r8, r9}
 800060c:	4770      	bx	lr

0800060e <pad>:
 800060e:	20004db0 			; <UNDEFINED> instruction: 0x20004db0
 8000612:	bf00      	nop

08000614 <print_int>:
 8000614:	b500      	push	{lr}
 8000616:	f7ff ffc7 	bl	80005a8 <itoa>
 800061a:	f85d eb04 	ldr.w	lr, [sp], #4
 800061e:	b500      	push	{lr}
 8000620:	f7ff ff9c 	bl	800055c <uart_puts>
 8000624:	f85d eb04 	ldr.w	lr, [sp], #4
 8000628:	4770      	bx	lr
 800062a:	bf00      	nop

0800062c <print_hex>:
 800062c:	b401      	push	{r0}
 800062e:	ea4f 1010 	mov.w	r0, r0, lsr #4
 8000632:	b500      	push	{lr}
 8000634:	f000 f81a 	bl	800066c <digit_to_char>
 8000638:	f85d eb04 	ldr.w	lr, [sp], #4
 800063c:	b500      	push	{lr}
 800063e:	f7ff fe7d 	bl	800033c <uart_putc>
 8000642:	f85d eb04 	ldr.w	lr, [sp], #4
 8000646:	bc01      	pop	{r0}
 8000648:	b500      	push	{lr}
 800064a:	f000 f80f 	bl	800066c <digit_to_char>
 800064e:	f85d eb04 	ldr.w	lr, [sp], #4
 8000652:	b500      	push	{lr}
 8000654:	f7ff fe72 	bl	800033c <uart_putc>
 8000658:	f85d eb04 	ldr.w	lr, [sp], #4
 800065c:	f04f 0020 	mov.w	r0, #32
 8000660:	b500      	push	{lr}
 8000662:	f7ff fe6b 	bl	800033c <uart_putc>
 8000666:	f85d eb04 	ldr.w	lr, [sp], #4
 800066a:	4770      	bx	lr

0800066c <digit_to_char>:
 800066c:	f000 000f 	and.w	r0, r0, #15
 8000670:	280a      	cmp	r0, #10
 8000672:	d401      	bmi.n	8000678 <digit_to_char+0xc>
 8000674:	f100 0007 	add.w	r0, r0, #7
 8000678:	f100 0030 	add.w	r0, r0, #48	; 0x30
 800067c:	4770      	bx	lr
 800067e:	bf00      	nop

08000680 <cursor_shape>:
 8000680:	f84d 8d04 	str.w	r8, [sp, #-4]!
 8000684:	b500      	push	{lr}
 8000686:	f000 f83b 	bl	8000700 <send_escape>
 800068a:	f85d eb04 	ldr.w	lr, [sp], #4
 800068e:	b500      	push	{lr}
 8000690:	f000 f848 	bl	8000724 <send_parameter>
 8000694:	f85d eb04 	ldr.w	lr, [sp], #4
 8000698:	f04f 0020 	mov.w	r0, #32
 800069c:	b500      	push	{lr}
 800069e:	f7ff fe4d 	bl	800033c <uart_putc>
 80006a2:	f85d eb04 	ldr.w	lr, [sp], #4
 80006a6:	f04f 0071 	mov.w	r0, #113	; 0x71
 80006aa:	b500      	push	{lr}
 80006ac:	f7ff fe46 	bl	800033c <uart_putc>
 80006b0:	f85d eb04 	ldr.w	lr, [sp], #4
 80006b4:	f85d 8b04 	ldr.w	r8, [sp], #4
 80006b8:	4770      	bx	lr
 80006ba:	bf00      	nop

080006bc <bksp>:
 80006bc:	f04f 0008 	mov.w	r0, #8
 80006c0:	b500      	push	{lr}
 80006c2:	f7ff fe3b 	bl	800033c <uart_putc>
 80006c6:	f85d eb04 	ldr.w	lr, [sp], #4
 80006ca:	f04f 0020 	mov.w	r0, #32
 80006ce:	b500      	push	{lr}
 80006d0:	f7ff fe34 	bl	800033c <uart_putc>
 80006d4:	f85d eb04 	ldr.w	lr, [sp], #4
 80006d8:	f04f 0008 	mov.w	r0, #8
 80006dc:	b500      	push	{lr}
 80006de:	f7ff fe2d 	bl	800033c <uart_putc>
 80006e2:	f85d eb04 	ldr.w	lr, [sp], #4
 80006e6:	4770      	bx	lr

080006e8 <delete_nchar>:
 80006e8:	b148      	cbz	r0, 80006fe <delete_nchar+0x16>
 80006ea:	b404      	push	{r2}
 80006ec:	4602      	mov	r2, r0
 80006ee:	b500      	push	{lr}
 80006f0:	f7ff ffe4 	bl	80006bc <bksp>
 80006f4:	f85d eb04 	ldr.w	lr, [sp], #4
 80006f8:	3a01      	subs	r2, #1
 80006fa:	d1f8      	bne.n	80006ee <delete_nchar+0x6>
 80006fc:	bc04      	pop	{r2}
 80006fe:	4770      	bx	lr

08000700 <send_escape>:
 8000700:	b401      	push	{r0}
 8000702:	f04f 001b 	mov.w	r0, #27
 8000706:	b500      	push	{lr}
 8000708:	f7ff fe18 	bl	800033c <uart_putc>
 800070c:	f85d eb04 	ldr.w	lr, [sp], #4
 8000710:	f04f 005b 	mov.w	r0, #91	; 0x5b
 8000714:	b500      	push	{lr}
 8000716:	f7ff fe11 	bl	800033c <uart_putc>
 800071a:	f85d eb04 	ldr.w	lr, [sp], #4
 800071e:	bc01      	pop	{r0}
 8000720:	4770      	bx	lr
 8000722:	bf00      	nop

08000724 <send_parameter>:
 8000724:	f84d 8d04 	str.w	r8, [sp, #-4]!
 8000728:	f04f 0800 	mov.w	r8, #0
 800072c:	f04f 010a 	mov.w	r1, #10
 8000730:	b500      	push	{lr}
 8000732:	f7ff ff23 	bl	800057c <digit>
 8000736:	f85d eb04 	ldr.w	lr, [sp], #4
 800073a:	f108 0801 	add.w	r8, r8, #1
 800073e:	b401      	push	{r0}
 8000740:	4608      	mov	r0, r1
 8000742:	4000      	ands	r0, r0
 8000744:	d1f2      	bne.n	800072c <send_parameter+0x8>
 8000746:	bc01      	pop	{r0}
 8000748:	b500      	push	{lr}
 800074a:	f7ff fdf7 	bl	800033c <uart_putc>
 800074e:	f85d eb04 	ldr.w	lr, [sp], #4
 8000752:	f1b8 0801 	subs.w	r8, r8, #1
 8000756:	d1f6      	bne.n	8000746 <send_parameter+0x22>
 8000758:	f85d 8b04 	ldr.w	r8, [sp], #4
 800075c:	4770      	bx	lr
 800075e:	bf00      	nop

08000760 <move_left>:
 8000760:	b500      	push	{lr}
 8000762:	f7ff ffcd 	bl	8000700 <send_escape>
 8000766:	f85d eb04 	ldr.w	lr, [sp], #4
 800076a:	b500      	push	{lr}
 800076c:	f7ff ffda 	bl	8000724 <send_parameter>
 8000770:	f85d eb04 	ldr.w	lr, [sp], #4
 8000774:	f04f 0044 	mov.w	r0, #68	; 0x44
 8000778:	b500      	push	{lr}
 800077a:	f7ff fddf 	bl	800033c <uart_putc>
 800077e:	f85d eb04 	ldr.w	lr, [sp], #4
 8000782:	4770      	bx	lr

08000784 <move_right>:
 8000784:	b500      	push	{lr}
 8000786:	f7ff ffbb 	bl	8000700 <send_escape>
 800078a:	f85d eb04 	ldr.w	lr, [sp], #4
 800078e:	b500      	push	{lr}
 8000790:	f7ff ffc8 	bl	8000724 <send_parameter>
 8000794:	f85d eb04 	ldr.w	lr, [sp], #4
 8000798:	f04f 0043 	mov.w	r0, #67	; 0x43
 800079c:	b500      	push	{lr}
 800079e:	f7ff fdcd 	bl	800033c <uart_putc>
 80007a2:	f85d eb04 	ldr.w	lr, [sp], #4
 80007a6:	4770      	bx	lr

080007a8 <spaces>:
 80007a8:	f84d 8d04 	str.w	r8, [sp, #-4]!
 80007ac:	b150      	cbz	r0, 80007c4 <spaces+0x1c>
 80007ae:	4680      	mov	r8, r0
 80007b0:	f04f 0020 	mov.w	r0, #32
 80007b4:	b500      	push	{lr}
 80007b6:	f7ff fdc1 	bl	800033c <uart_putc>
 80007ba:	f85d eb04 	ldr.w	lr, [sp], #4
 80007be:	f1b8 0801 	subs.w	r8, r8, #1
 80007c2:	d1f5      	bne.n	80007b0 <spaces+0x8>
 80007c4:	f85d 8b04 	ldr.w	r8, [sp], #4
 80007c8:	4770      	bx	lr
 80007ca:	bf00      	nop

080007cc <insert_char>:
 80007cc:	4770      	bx	lr
 80007ce:	bf00      	nop

080007d0 <delete_under>:
 80007d0:	4770      	bx	lr
 80007d2:	bf00      	nop

080007d4 <delete_line>:
 80007d4:	b401      	push	{r0}
 80007d6:	b500      	push	{lr}
 80007d8:	f7ff ff92 	bl	8000700 <send_escape>
 80007dc:	f85d eb04 	ldr.w	lr, [sp], #4
 80007e0:	f04f 0032 	mov.w	r0, #50	; 0x32
 80007e4:	b500      	push	{lr}
 80007e6:	f7ff fda9 	bl	800033c <uart_putc>
 80007ea:	f85d eb04 	ldr.w	lr, [sp], #4
 80007ee:	f04f 004b 	mov.w	r0, #75	; 0x4b
 80007f2:	b500      	push	{lr}
 80007f4:	f7ff fda2 	bl	800033c <uart_putc>
 80007f8:	f85d eb04 	ldr.w	lr, [sp], #4
 80007fc:	b500      	push	{lr}
 80007fe:	f000 f817 	bl	8000830 <cursor_home>
 8000802:	f85d eb04 	ldr.w	lr, [sp], #4
 8000806:	bc01      	pop	{r0}
 8000808:	4770      	bx	lr
 800080a:	bf00      	nop

0800080c <cursor_x>:
 800080c:	b500      	push	{lr}
 800080e:	f7ff ff77 	bl	8000700 <send_escape>
 8000812:	f85d eb04 	ldr.w	lr, [sp], #4
 8000816:	b500      	push	{lr}
 8000818:	f7ff ff84 	bl	8000724 <send_parameter>
 800081c:	f85d eb04 	ldr.w	lr, [sp], #4
 8000820:	f04f 0047 	mov.w	r0, #71	; 0x47
 8000824:	b500      	push	{lr}
 8000826:	f7ff fd89 	bl	800033c <uart_putc>
 800082a:	f85d eb04 	ldr.w	lr, [sp], #4
 800082e:	4770      	bx	lr

08000830 <cursor_home>:
 8000830:	b401      	push	{r0}
 8000832:	b500      	push	{lr}
 8000834:	f7ff ff64 	bl	8000700 <send_escape>
 8000838:	f85d eb04 	ldr.w	lr, [sp], #4
 800083c:	f04f 0047 	mov.w	r0, #71	; 0x47
 8000840:	b500      	push	{lr}
 8000842:	f7ff fd7b 	bl	800033c <uart_putc>
 8000846:	f85d eb04 	ldr.w	lr, [sp], #4
 800084a:	bc01      	pop	{r0}
 800084c:	4770      	bx	lr
 800084e:	bf00      	nop

08000850 <update_line>:
 8000850:	b500      	push	{lr}
 8000852:	f7ff ffbf 	bl	80007d4 <delete_line>
 8000856:	f85d eb04 	ldr.w	lr, [sp], #4
 800085a:	b500      	push	{lr}
 800085c:	f7ff fe7e 	bl	800055c <uart_puts>
 8000860:	f85d eb04 	ldr.w	lr, [sp], #4
 8000864:	4770      	bx	lr
 8000866:	bf00      	nop

08000868 <readln>:
 8000868:	e92d 0f80 	stmdb	sp!, {r7, r8, r9, sl, fp}
 800086c:	ea87 0707 	eor.w	r7, r7, r7
 8000870:	ea88 0808 	eor.w	r8, r8, r8
 8000874:	4683      	mov	fp, r0
 8000876:	f1a1 0901 	sub.w	r9, r1, #1
 800087a:	ea8a 0a0a 	eor.w	sl, sl, sl
 800087e:	ea80 0000 	eor.w	r0, r0, r0
 8000882:	f80b 0009 	strb.w	r0, [fp, r9]
 8000886:	b500      	push	{lr}
 8000888:	f7ff fefa 	bl	8000680 <cursor_shape>
 800088c:	f85d eb04 	ldr.w	lr, [sp], #4

08000890 <readln_loop>:
 8000890:	b500      	push	{lr}
 8000892:	f7ff fd69 	bl	8000368 <uart_getc>
 8000896:	f85d eb04 	ldr.w	lr, [sp], #4
 800089a:	280d      	cmp	r0, #13
 800089c:	d100      	bne.n	80008a0 <readln_loop+0x10>
 800089e:	e118      	b.n	8000ad2 <readln_exit>
 80008a0:	2808      	cmp	r0, #8
 80008a2:	d132      	bne.n	800090a <readln_loop+0x7a>
 80008a4:	403f      	ands	r7, r7
 80008a6:	d0f3      	beq.n	8000890 <readln_loop>
 80008a8:	4557      	cmp	r7, sl
 80008aa:	d024      	beq.n	80008f6 <readln_loop+0x66>
 80008ac:	eb0b 0007 	add.w	r0, fp, r7
 80008b0:	f1a0 0101 	sub.w	r1, r0, #1
 80008b4:	f84d 8d04 	str.w	r8, [sp, #-4]!
 80008b8:	ebaa 0807 	sub.w	r8, sl, r7
 80008bc:	b500      	push	{lr}
 80008be:	f000 f925 	bl	8000b0c <cmove>
 80008c2:	f85d eb04 	ldr.w	lr, [sp], #4
 80008c6:	f85d 8b04 	ldr.w	r8, [sp], #4
 80008ca:	f1aa 0a01 	sub.w	sl, sl, #1
 80008ce:	f1a7 0701 	sub.w	r7, r7, #1
 80008d2:	ea80 0000 	eor.w	r0, r0, r0
 80008d6:	f80b 000a 	strb.w	r0, [fp, sl]
 80008da:	4658      	mov	r0, fp
 80008dc:	b500      	push	{lr}
 80008de:	f7ff ffb7 	bl	8000850 <update_line>
 80008e2:	f85d eb04 	ldr.w	lr, [sp], #4
 80008e6:	f107 0001 	add.w	r0, r7, #1
 80008ea:	b500      	push	{lr}
 80008ec:	f7ff ff8e 	bl	800080c <cursor_x>
 80008f0:	f85d eb04 	ldr.w	lr, [sp], #4
 80008f4:	e7cc      	b.n	8000890 <readln_loop>
 80008f6:	b500      	push	{lr}
 80008f8:	f7ff fee0 	bl	80006bc <bksp>
 80008fc:	f85d eb04 	ldr.w	lr, [sp], #4
 8000900:	f1a7 0701 	sub.w	r7, r7, #1
 8000904:	f1aa 0a01 	sub.w	sl, sl, #1
 8000908:	e7c2      	b.n	8000890 <readln_loop>
 800090a:	2804      	cmp	r0, #4
 800090c:	d109      	bne.n	8000922 <readln_loop+0x92>
 800090e:	b500      	push	{lr}
 8000910:	f7ff ff60 	bl	80007d4 <delete_line>
 8000914:	f85d eb04 	ldr.w	lr, [sp], #4
 8000918:	ea87 0707 	eor.w	r7, r7, r7
 800091c:	ea8a 0a0a 	eor.w	sl, sl, sl
 8000920:	e7b6      	b.n	8000890 <readln_loop>
 8000922:	2812      	cmp	r0, #18
 8000924:	d111      	bne.n	800094a <readln_loop+0xba>
 8000926:	ea1a 0a0a 	ands.w	sl, sl, sl
 800092a:	d1b1      	bne.n	8000890 <readln_loop>
 800092c:	4658      	mov	r0, fp
 800092e:	b500      	push	{lr}
 8000930:	f000 f8e0 	bl	8000af4 <strlen>
 8000934:	f85d eb04 	ldr.w	lr, [sp], #4
 8000938:	4682      	mov	sl, r0
 800093a:	4607      	mov	r7, r0
 800093c:	4658      	mov	r0, fp
 800093e:	b500      	push	{lr}
 8000940:	f7ff fe0c 	bl	800055c <uart_puts>
 8000944:	f85d eb04 	ldr.w	lr, [sp], #4
 8000948:	e7a2      	b.n	8000890 <readln_loop>
 800094a:	280f      	cmp	r0, #15
 800094c:	d108      	bne.n	8000960 <readln_loop+0xd0>
 800094e:	f1c8 0805 	rsb	r8, r8, #5
 8000952:	4640      	mov	r0, r8
 8000954:	b500      	push	{lr}
 8000956:	f7ff fe93 	bl	8000680 <cursor_shape>
 800095a:	f85d eb04 	ldr.w	lr, [sp], #4
 800095e:	e797      	b.n	8000890 <readln_loop>
 8000960:	281b      	cmp	r0, #27
 8000962:	d160      	bne.n	8000a26 <character>
 8000964:	b500      	push	{lr}
 8000966:	f7ff fdc9 	bl	80004fc <get_escape>
 800096a:	f85d eb04 	ldr.w	lr, [sp], #4
 800096e:	2882      	cmp	r0, #130	; 0x82
 8000970:	d107      	bne.n	8000982 <try_end>
 8000972:	b500      	push	{lr}
 8000974:	f7ff ff5c 	bl	8000830 <cursor_home>
 8000978:	f85d eb04 	ldr.w	lr, [sp], #4
 800097c:	ea87 0707 	eor.w	r7, r7, r7
 8000980:	e786      	b.n	8000890 <readln_loop>

08000982 <try_end>:
 8000982:	2883      	cmp	r0, #131	; 0x83
 8000984:	d108      	bne.n	8000998 <try_left>
 8000986:	f10a 0001 	add.w	r0, sl, #1
 800098a:	b500      	push	{lr}
 800098c:	f7ff ff3e 	bl	800080c <cursor_x>
 8000990:	f85d eb04 	ldr.w	lr, [sp], #4
 8000994:	4657      	mov	r7, sl
 8000996:	e77b      	b.n	8000890 <readln_loop>

08000998 <try_left>:
 8000998:	2880      	cmp	r0, #128	; 0x80
 800099a:	d10c      	bne.n	80009b6 <try_right>
 800099c:	403f      	ands	r7, r7
 800099e:	f43f af77 	beq.w	8000890 <readln_loop>
 80009a2:	f04f 0001 	mov.w	r0, #1
 80009a6:	b500      	push	{lr}
 80009a8:	f7ff feda 	bl	8000760 <move_left>
 80009ac:	f85d eb04 	ldr.w	lr, [sp], #4
 80009b0:	f1a7 0701 	sub.w	r7, r7, #1
 80009b4:	e76c      	b.n	8000890 <readln_loop>

080009b6 <try_right>:
 80009b6:	2881      	cmp	r0, #129	; 0x81
 80009b8:	d10c      	bne.n	80009d4 <try_suprim>
 80009ba:	4557      	cmp	r7, sl
 80009bc:	f43f af68 	beq.w	8000890 <readln_loop>
 80009c0:	f107 0701 	add.w	r7, r7, #1
 80009c4:	f04f 0001 	mov.w	r0, #1
 80009c8:	b500      	push	{lr}
 80009ca:	f7ff fedb 	bl	8000784 <move_right>
 80009ce:	f85d eb04 	ldr.w	lr, [sp], #4
 80009d2:	e75d      	b.n	8000890 <readln_loop>

080009d4 <try_suprim>:
 80009d4:	2884      	cmp	r0, #132	; 0x84
 80009d6:	f47f af5b 	bne.w	8000890 <readln_loop>
 80009da:	4557      	cmp	r7, sl
 80009dc:	f43f af58 	beq.w	8000890 <readln_loop>
 80009e0:	eb07 010b 	add.w	r1, r7, fp
 80009e4:	f101 0001 	add.w	r0, r1, #1
 80009e8:	f84d 8d04 	str.w	r8, [sp, #-4]!
 80009ec:	ebaa 0807 	sub.w	r8, sl, r7
 80009f0:	b500      	push	{lr}
 80009f2:	f000 f88b 	bl	8000b0c <cmove>
 80009f6:	f85d eb04 	ldr.w	lr, [sp], #4
 80009fa:	f85d 8b04 	ldr.w	r8, [sp], #4
 80009fe:	f1aa 0a01 	sub.w	sl, sl, #1
 8000a02:	ea80 0000 	eor.w	r0, r0, r0
 8000a06:	f80b 000a 	strb.w	r0, [fp, sl]
 8000a0a:	4658      	mov	r0, fp
 8000a0c:	b500      	push	{lr}
 8000a0e:	f7ff ff1f 	bl	8000850 <update_line>
 8000a12:	f85d eb04 	ldr.w	lr, [sp], #4
 8000a16:	f107 0001 	add.w	r0, r7, #1
 8000a1a:	b500      	push	{lr}
 8000a1c:	f7ff fef6 	bl	800080c <cursor_x>
 8000a20:	f85d eb04 	ldr.w	lr, [sp], #4
 8000a24:	e734      	b.n	8000890 <readln_loop>

08000a26 <character>:
 8000a26:	4557      	cmp	r7, sl
 8000a28:	d042      	beq.n	8000ab0 <character+0x8a>
 8000a2a:	ea18 0808 	ands.w	r8, r8, r8
 8000a2e:	d029      	beq.n	8000a84 <character+0x5e>
 8000a30:	45d1      	cmp	r9, sl
 8000a32:	f43f af2d 	beq.w	8000890 <readln_loop>
 8000a36:	e92d 0101 	stmdb	sp!, {r0, r8}
 8000a3a:	eb0b 0007 	add.w	r0, fp, r7
 8000a3e:	f100 0101 	add.w	r1, r0, #1
 8000a42:	ebaa 0807 	sub.w	r8, sl, r7
 8000a46:	b500      	push	{lr}
 8000a48:	f000 f860 	bl	8000b0c <cmove>
 8000a4c:	f85d eb04 	ldr.w	lr, [sp], #4
 8000a50:	e8bd 0101 	ldmia.w	sp!, {r0, r8}
 8000a54:	f80b 0007 	strb.w	r0, [fp, r7]
 8000a58:	f107 0701 	add.w	r7, r7, #1
 8000a5c:	f10a 0a01 	add.w	sl, sl, #1
 8000a60:	ea80 0000 	eor.w	r0, r0, r0
 8000a64:	f80b 000a 	strb.w	r0, [fp, sl]
 8000a68:	4658      	mov	r0, fp
 8000a6a:	b500      	push	{lr}
 8000a6c:	f7ff fef0 	bl	8000850 <update_line>
 8000a70:	f85d eb04 	ldr.w	lr, [sp], #4
 8000a74:	f107 0001 	add.w	r0, r7, #1
 8000a78:	b500      	push	{lr}
 8000a7a:	f7ff fec7 	bl	800080c <cursor_x>
 8000a7e:	f85d eb04 	ldr.w	lr, [sp], #4
 8000a82:	e705      	b.n	8000890 <readln_loop>
 8000a84:	f80b 0007 	strb.w	r0, [fp, r7]
 8000a88:	f107 0701 	add.w	r7, r7, #1
 8000a8c:	ea80 0000 	eor.w	r0, r0, r0
 8000a90:	f80b 000a 	strb.w	r0, [fp, sl]
 8000a94:	4658      	mov	r0, fp
 8000a96:	b500      	push	{lr}
 8000a98:	f7ff feda 	bl	8000850 <update_line>
 8000a9c:	f85d eb04 	ldr.w	lr, [sp], #4
 8000aa0:	f107 0001 	add.w	r0, r7, #1
 8000aa4:	b500      	push	{lr}
 8000aa6:	f7ff feb1 	bl	800080c <cursor_x>
 8000aaa:	f85d eb04 	ldr.w	lr, [sp], #4
 8000aae:	e6ef      	b.n	8000890 <readln_loop>
 8000ab0:	45ca      	cmp	sl, r9
 8000ab2:	d400      	bmi.n	8000ab6 <character+0x90>
 8000ab4:	e6ec      	b.n	8000890 <readln_loop>
 8000ab6:	2820      	cmp	r0, #32
 8000ab8:	f53f aeea 	bmi.w	8000890 <readln_loop>
 8000abc:	f80b 0007 	strb.w	r0, [fp, r7]
 8000ac0:	b500      	push	{lr}
 8000ac2:	f7ff fc3b 	bl	800033c <uart_putc>
 8000ac6:	f85d eb04 	ldr.w	lr, [sp], #4
 8000aca:	f107 0701 	add.w	r7, r7, #1
 8000ace:	46ba      	mov	sl, r7
 8000ad0:	e6de      	b.n	8000890 <readln_loop>

08000ad2 <readln_exit>:
 8000ad2:	b500      	push	{lr}
 8000ad4:	f7ff fc32 	bl	800033c <uart_putc>
 8000ad8:	f85d eb04 	ldr.w	lr, [sp], #4
 8000adc:	ea80 0000 	eor.w	r0, r0, r0
 8000ae0:	f80b 000a 	strb.w	r0, [fp, sl]
 8000ae4:	4651      	mov	r1, sl
 8000ae6:	4658      	mov	r0, fp
 8000ae8:	e8bd 0f80 	ldmia.w	sp!, {r7, r8, r9, sl, fp}
 8000aec:	4770      	bx	lr
 8000aee:	05500000 	ldrbeq	r0, [r0, #-0]
 8000af2:	 	strlt	r0, [r6], #-2048	; 0xfffff800

08000af4 <strlen>:
 8000af4:	b406      	push	{r1, r2}
 8000af6:	ea81 0101 	eor.w	r1, r1, r1
 8000afa:	f810 2b01 	ldrb.w	r2, [r0], #1
 8000afe:	b112      	cbz	r2, 8000b06 <strlen+0x12>
 8000b00:	f101 0101 	add.w	r1, r1, #1
 8000b04:	e7f9      	b.n	8000afa <strlen+0x6>
 8000b06:	4608      	mov	r0, r1
 8000b08:	bc06      	pop	{r1, r2}
 8000b0a:	4770      	bx	lr

08000b0c <cmove>:
 8000b0c:	b408      	push	{r3}
 8000b0e:	4012      	ands	r2, r2
 8000b10:	d010      	beq.n	8000b34 <move_from_end+0x10>
 8000b12:	4288      	cmp	r0, r1
 8000b14:	d406      	bmi.n	8000b24 <move_from_end>

08000b16 <move_from_low>:
 8000b16:	f810 3b01 	ldrb.w	r3, [r0], #1
 8000b1a:	f801 3b01 	strb.w	r3, [r1], #1
 8000b1e:	3a01      	subs	r2, #1
 8000b20:	d1f9      	bne.n	8000b16 <move_from_low>
 8000b22:	e007      	b.n	8000b34 <move_from_end+0x10>

08000b24 <move_from_end>:
 8000b24:	4410      	add	r0, r2
 8000b26:	4411      	add	r1, r2
 8000b28:	f810 3d01 	ldrb.w	r3, [r0, #-1]!
 8000b2c:	f801 3d01 	strb.w	r3, [r1, #-1]!
 8000b30:	3a01      	subs	r2, #1
 8000b32:	d1f9      	bne.n	8000b28 <move_from_end+0x4>
 8000b34:	bc08      	pop	{r3}
 8000b36:	4770      	bx	lr

08000b38 <strcpy>:
 8000b38:	b407      	push	{r0, r1, r2}
 8000b3a:	f810 2b01 	ldrb.w	r2, [r0], #1
 8000b3e:	b112      	cbz	r2, 8000b46 <strcpy+0xe>
 8000b40:	f801 2b01 	strb.w	r2, [r1], #1
 8000b44:	e7f9      	b.n	8000b3a <strcpy+0x2>
 8000b46:	700a      	strb	r2, [r1, #0]
 8000b48:	bc07      	pop	{r0, r1, r2}
 8000b4a:	4770      	bx	lr

08000b4c <strcmp>:
 8000b4c:	b48c      	push	{r2, r3, r7}
 8000b4e:	4602      	mov	r2, r0
 8000b50:	f812 3b01 	ldrb.w	r3, [r2], #1
 8000b54:	f811 7b01 	ldrb.w	r7, [r1], #1
 8000b58:	b113      	cbz	r3, 8000b60 <strcmp+0x14>
 8000b5a:	b10f      	cbz	r7, 8000b60 <strcmp+0x14>
 8000b5c:	1bd8      	subs	r0, r3, r7
 8000b5e:	d0f7      	beq.n	8000b50 <strcmp+0x4>
 8000b60:	eba3 0007 	sub.w	r0, r3, r7
 8000b64:	bc8c      	pop	{r2, r3, r7}
 8000b66:	4770      	bx	lr

08000b68 <prt_tok>:
 8000b68:	b403      	push	{r0, r1}
 8000b6a:	4812      	ldr	r0, [pc, #72]	; (8000bb4 <tok_msg>)
 8000b6c:	b500      	push	{lr}
 8000b6e:	f7ff fcf5 	bl	800055c <uart_puts>
 8000b72:	f85d eb04 	ldr.w	lr, [sp], #4
 8000b76:	bc01      	pop	{r0}
 8000b78:	f04f 0110 	mov.w	r1, #16
 8000b7c:	b500      	push	{lr}
 8000b7e:	f7ff fd49 	bl	8000614 <print_int>
 8000b82:	f85d eb04 	ldr.w	lr, [sp], #4
 8000b86:	f04f 0020 	mov.w	r0, #32
 8000b8a:	b500      	push	{lr}
 8000b8c:	f7ff fbd6 	bl	800033c <uart_putc>
 8000b90:	f85d eb04 	ldr.w	lr, [sp], #4
 8000b94:	bc01      	pop	{r0}
 8000b96:	f04f 0110 	mov.w	r1, #16
 8000b9a:	b500      	push	{lr}
 8000b9c:	f7ff fd3a 	bl	8000614 <print_int>
 8000ba0:	f85d eb04 	ldr.w	lr, [sp], #4
 8000ba4:	f04f 000d 	mov.w	r0, #13
 8000ba8:	b500      	push	{lr}
 8000baa:	f7ff fbc7 	bl	800033c <uart_putc>
 8000bae:	f85d eb04 	ldr.w	lr, [sp], #4
 8000bb2:	4770      	bx	lr

08000bb4 <tok_msg>:
 8000bb4:	656b6f74 	strbvs	r6, [fp, #-3956]!	; 0xfffff08c
 8000bb8:	00203a6e 	eoreq	r3, r0, lr, ror #20

08000bbc <prt_row>:
 8000bbc:	b40f      	push	{r0, r1, r2, r3}
 8000bbe:	4602      	mov	r2, r0
 8000bc0:	460b      	mov	r3, r1
 8000bc2:	f04f 0110 	mov.w	r1, #16
 8000bc6:	b500      	push	{lr}
 8000bc8:	f7ff fd24 	bl	8000614 <print_int>
 8000bcc:	f85d eb04 	ldr.w	lr, [sp], #4
 8000bd0:	f04f 0003 	mov.w	r0, #3
 8000bd4:	b500      	push	{lr}
 8000bd6:	f7ff fde7 	bl	80007a8 <spaces>
 8000bda:	f85d eb04 	ldr.w	lr, [sp], #4
 8000bde:	f812 0b01 	ldrb.w	r0, [r2], #1
 8000be2:	b500      	push	{lr}
 8000be4:	f7ff fd22 	bl	800062c <print_hex>
 8000be8:	f85d eb04 	ldr.w	lr, [sp], #4
 8000bec:	3b01      	subs	r3, #1
 8000bee:	d1f6      	bne.n	8000bde <prt_row+0x22>
 8000bf0:	f04f 0002 	mov.w	r0, #2
 8000bf4:	b500      	push	{lr}
 8000bf6:	f7ff fdd7 	bl	80007a8 <spaces>
 8000bfa:	f85d eb04 	ldr.w	lr, [sp], #4
 8000bfe:	bc03      	pop	{r0, r1}
 8000c00:	b500      	push	{lr}
 8000c02:	f000 f80d 	bl	8000c20 <prt_chars>
 8000c06:	f85d eb04 	ldr.w	lr, [sp], #4
 8000c0a:	f04f 000d 	mov.w	r0, #13
 8000c0e:	b500      	push	{lr}
 8000c10:	f7ff fb94 	bl	800033c <uart_putc>
 8000c14:	f85d eb04 	ldr.w	lr, [sp], #4
 8000c18:	4610      	mov	r0, r2
 8000c1a:	bc0c      	pop	{r2, r3}
 8000c1c:	4770      	bx	lr
 8000c1e:	bf00      	nop

08000c20 <prt_chars>:
 8000c20:	b404      	push	{r2}
 8000c22:	4602      	mov	r2, r0
 8000c24:	f812 0b01 	ldrb.w	r0, [r2], #1
 8000c28:	2820      	cmp	r0, #32
 8000c2a:	d501      	bpl.n	8000c30 <prt_chars+0x10>
 8000c2c:	f04f 005f 	mov.w	r0, #95	; 0x5f
 8000c30:	b500      	push	{lr}
 8000c32:	f7ff fb83 	bl	800033c <uart_putc>
 8000c36:	f85d eb04 	ldr.w	lr, [sp], #4
 8000c3a:	3901      	subs	r1, #1
 8000c3c:	d1f2      	bne.n	8000c24 <prt_chars+0x4>
 8000c3e:	4610      	mov	r0, r2
 8000c40:	bc04      	pop	{r2}
 8000c42:	4770      	bx	lr

08000c44 <dump>:
 8000c44:	b404      	push	{r2}
 8000c46:	460a      	mov	r2, r1
 8000c48:	f04f 0110 	mov.w	r1, #16
 8000c4c:	b500      	push	{lr}
 8000c4e:	f7ff ffb5 	bl	8000bbc <prt_row>
 8000c52:	f85d eb04 	ldr.w	lr, [sp], #4
 8000c56:	3a10      	subs	r2, #16
 8000c58:	d5f6      	bpl.n	8000c48 <dump+0x4>
 8000c5a:	bc04      	pop	{r2}
 8000c5c:	4770      	bx	lr
 8000c5e:	bf00      	nop

08000c60 <search_lineno>:
 8000c60:	b40c      	push	{r2, r3}
 8000c62:	4603      	mov	r3, r0
 8000c64:	6b20      	ldr	r0, [r4, #48]	; 0x30
 8000c66:	6b62      	ldr	r2, [r4, #52]	; 0x34
 8000c68:	4290      	cmp	r0, r2
 8000c6a:	d005      	beq.n	8000c78 <search_lineno+0x18>
 8000c6c:	8801      	ldrh	r1, [r0, #0]
 8000c6e:	1ac9      	subs	r1, r1, r3
 8000c70:	d504      	bpl.n	8000c7c <search_lineno+0x1c>
 8000c72:	7881      	ldrb	r1, [r0, #2]
 8000c74:	4408      	add	r0, r1
 8000c76:	e7f7      	b.n	8000c68 <search_lineno+0x8>
 8000c78:	f04f 31ff 	mov.w	r1, #4294967295	; 0xffffffff
 8000c7c:	bc0c      	pop	{r2, r3}
 8000c7e:	4770      	bx	lr

08000c80 <delete_line>:
 8000c80:	e92d 0307 	stmdb	sp!, {r0, r1, r2, r8, r9}
 8000c84:	4601      	mov	r1, r0
 8000c86:	f891 8002 	ldrb.w	r8, [r1, #2]
 8000c8a:	4440      	add	r0, r8
 8000c8c:	f8d4 9034 	ldr.w	r9, [r4, #52]	; 0x34
 8000c90:	eba9 0200 	sub.w	r2, r9, r0
 8000c94:	b500      	push	{lr}
 8000c96:	f7ff ff39 	bl	8000b0c <cmove>
 8000c9a:	f85d eb04 	ldr.w	lr, [sp], #4
 8000c9e:	eba9 0908 	sub.w	r9, r9, r8
 8000ca2:	f8c4 8034 	str.w	r8, [r4, #52]	; 0x34
 8000ca6:	e8bd 0307 	ldmia.w	sp!, {r0, r1, r2, r8, r9}
 8000caa:	4770      	bx	lr

08000cac <create_gap>:
 8000cac:	e92d 0305 	stmdb	sp!, {r0, r2, r8, r9}
 8000cb0:	4688      	mov	r8, r1
 8000cb2:	4401      	add	r1, r0
 8000cb4:	f8d4 9034 	ldr.w	r9, [r4, #52]	; 0x34
 8000cb8:	eba9 0200 	sub.w	r2, r9, r0
 8000cbc:	b500      	push	{lr}
 8000cbe:	f7ff ff25 	bl	8000b0c <cmove>
 8000cc2:	f85d eb04 	ldr.w	lr, [sp], #4
 8000cc6:	44c1      	add	r9, r8
 8000cc8:	f8c4 9034 	str.w	r9, [r4, #52]	; 0x34
 8000ccc:	e8bd 0305 	ldmia.w	sp!, {r0, r2, r8, r9}
 8000cd0:	4770      	bx	lr
 8000cd2:	bf00      	nop

08000cd4 <insert_line>:
 8000cd4:	e92d 0302 	stmdb	sp!, {r1, r8, r9}
 8000cd8:	4680      	mov	r8, r0
 8000cda:	f8b8 0000 	ldrh.w	r0, [r8]
 8000cde:	b500      	push	{lr}
 8000ce0:	f7ff ffbe 	bl	8000c60 <search_lineno>
 8000ce4:	f85d eb04 	ldr.w	lr, [sp], #4
 8000ce8:	b949      	cbnz	r1, 8000cfe <insert_line+0x2a>
 8000cea:	b500      	push	{lr}
 8000cec:	f7ff ffc8 	bl	8000c80 <delete_line>
 8000cf0:	f85d eb04 	ldr.w	lr, [sp], #4
 8000cf4:	f898 9002 	ldrb.w	r9, [r8, #2]
 8000cf8:	f1b9 0f03 	cmp.w	r9, #3
 8000cfc:	d00d      	beq.n	8000d1a <insert_line+0x46>
 8000cfe:	f898 1002 	ldrb.w	r1, [r8, #2]
 8000d02:	b500      	push	{lr}
 8000d04:	f7ff ffd2 	bl	8000cac <create_gap>
 8000d08:	f85d eb04 	ldr.w	lr, [sp], #4
 8000d0c:	4641      	mov	r1, r8
 8000d0e:	788a      	ldrb	r2, [r1, #2]
 8000d10:	b500      	push	{lr}
 8000d12:	f7ff fefb 	bl	8000b0c <cmove>
 8000d16:	f85d eb04 	ldr.w	lr, [sp], #4
 8000d1a:	e8bd 0302 	ldmia.w	sp!, {r1, r8, r9}
 8000d1e:	4770      	bx	lr

08000d20 <compile>:
 8000d20:	e92d 030c 	stmdb	sp!, {r2, r3, r8, r9}
 8000d24:	f8df 879c 	ldr.w	r8, [pc, #1948]	; 80014c4 <tib>
 8000d28:	f8df 979c 	ldr.w	r9, [pc, #1948]	; 80014c8 <pad>
 8000d2c:	6c20      	ldr	r0, [r4, #64]	; 0x40
 8000d2e:	f040 0020 	orr.w	r0, r0, #32
 8000d32:	6420      	str	r0, [r4, #64]	; 0x40
 8000d34:	ea83 0303 	eor.w	r3, r3, r3
 8000d38:	f8a9 3000 	strh.w	r3, [r9]
 8000d3c:	f889 3002 	strb.w	r3, [r9, #2]
 8000d40:	b500      	push	{lr}
 8000d42:	f000 f835 	bl	8000db0 <comp_token>
 8000d46:	f85d eb04 	ldr.w	lr, [sp], #4
 8000d4a:	280f      	cmp	r0, #15
 8000d4c:	d107      	bne.n	8000d5e <compile+0x3e>
 8000d4e:	2901      	cmp	r1, #1
 8000d50:	d505      	bpl.n	8000d5e <compile+0x3e>
 8000d52:	f04f 000a 	mov.w	r0, #10
 8000d56:	6023      	str	r3, [r4, #0]
 8000d58:	f8c4 8008 	str.w	r8, [r4, #8]
 8000d5c:	e222      	b.n	80011a4 <tb_error>
 8000d5e:	f829 1b03 	strh.w	r1, [r9], #3
 8000d62:	45c1      	cmp	r9, r8
 8000d64:	db02      	blt.n	8000d6c <compile+0x4c>
 8000d66:	f04f 000f 	mov.w	r0, #15
 8000d6a:	e21b      	b.n	80011a4 <tb_error>
 8000d6c:	b500      	push	{lr}
 8000d6e:	f000 f81f 	bl	8000db0 <comp_token>
 8000d72:	f85d eb04 	ldr.w	lr, [sp], #4
 8000d76:	2800      	cmp	r0, #0
 8000d78:	d1f3      	bne.n	8000d62 <compile+0x42>
 8000d7a:	f8df 374c 	ldr.w	r3, [pc, #1868]	; 80014c8 <pad>
 8000d7e:	eba9 0903 	sub.w	r9, r9, r3
 8000d82:	f883 9002 	strb.w	r9, [r3, #2]
 8000d86:	f8b3 9000 	ldrh.w	r9, [r3]
 8000d8a:	f1b9 0f00 	cmp.w	r9, #0
 8000d8e:	d008      	beq.n	8000da2 <compile+0x82>
 8000d90:	4618      	mov	r0, r3
 8000d92:	b500      	push	{lr}
 8000d94:	f7ff ff9e 	bl	8000cd4 <insert_line>
 8000d98:	f85d eb04 	ldr.w	lr, [sp], #4
 8000d9c:	ea80 0000 	eor.w	r0, r0, r0
 8000da0:	e002      	b.n	8000da8 <compile+0x88>
 8000da2:	60a3      	str	r3, [r4, #8]
 8000da4:	f04f 30ff 	mov.w	r0, #4294967295	; 0xffffffff
 8000da8:	e8bd 030c 	ldmia.w	sp!, {r2, r3, r8, r9}
 8000dac:	4770      	bx	lr
 8000dae:	bf00      	nop

08000db0 <comp_token>:
 8000db0:	b440      	push	{r6}
 8000db2:	f818 0003 	ldrb.w	r0, [r8, r3]
 8000db6:	f000 80de 	beq.w	8000f76 <token_exit>
 8000dba:	f04f 0020 	mov.w	r0, #32
 8000dbe:	b500      	push	{lr}
 8000dc0:	f000 f964 	bl	800108c <skip>
 8000dc4:	f85d eb04 	ldr.w	lr, [sp], #4
 8000dc8:	f818 0003 	ldrb.w	r0, [r8, r3]
 8000dcc:	b900      	cbnz	r0, 8000dd0 <comp_token+0x20>
 8000dce:	e0d2      	b.n	8000f76 <token_exit>
 8000dd0:	f103 0301 	add.w	r3, r3, #1
 8000dd4:	b500      	push	{lr}
 8000dd6:	f000 f961 	bl	800109c <upper>
 8000dda:	f85d eb04 	ldr.w	lr, [sp], #4
 8000dde:	b500      	push	{lr}
 8000de0:	f000 f90a 	bl	8000ff8 <is_special>
 8000de4:	f85d eb04 	ldr.w	lr, [sp], #4
 8000de8:	f8df 66f0 	ldr.w	r6, [pc, #1776]	; 80014dc <relation+0x4>
 8000dec:	e8d6 f011 	tbh	[r6, r1, lsl #1]

08000df0 <tok_idx0>:
 8000df0:	e091      	b.n	8000f16 <try_other>

08000df2 <single>:
 8000df2:	4608      	mov	r0, r1
 8000df4:	e0bf      	b.n	8000f76 <token_exit>

08000df6 <binary_nbr>:
 8000df6:	ea86 0606 	eor.w	r6, r6, r6
 8000dfa:	f818 0003 	ldrb.w	r0, [r8, r3]
 8000dfe:	f103 0301 	add.w	r3, r3, #1
 8000e02:	b500      	push	{lr}
 8000e04:	f000 f970 	bl	80010e8 <is_bit>
 8000e08:	f85d eb04 	ldr.w	lr, [sp], #4
 8000e0c:	d000      	beq.n	8000e10 <binary_nbr+0x1a>
 8000e0e:	e1c5      	b.n	800119c <syntax_error>
 8000e10:	ea4f 0646 	mov.w	r6, r6, lsl #1
 8000e14:	ea46 0600 	orr.w	r6, r6, r0
 8000e18:	f818 0003 	ldrb.w	r0, [r8, r3]
 8000e1c:	f103 0301 	add.w	r3, r3, #1
 8000e20:	b500      	push	{lr}
 8000e22:	f000 f961 	bl	80010e8 <is_bit>
 8000e26:	f85d eb04 	ldr.w	lr, [sp], #4
 8000e2a:	d0f1      	beq.n	8000e10 <binary_nbr+0x1a>
 8000e2c:	f1a3 0301 	sub.w	r3, r3, #1
 8000e30:	f04f 000f 	mov.w	r0, #15
 8000e34:	4631      	mov	r1, r6
 8000e36:	f809 0b01 	strb.w	r0, [r9], #1
 8000e3a:	f849 1b04 	str.w	r1, [r9], #4
 8000e3e:	e09a      	b.n	8000f76 <token_exit>

08000e40 <hex_nbr>:
 8000e40:	ea86 0606 	eor.w	r6, r6, r6
 8000e44:	f818 0003 	ldrb.w	r0, [r8, r3]
 8000e48:	f103 0301 	add.w	r3, r3, #1
 8000e4c:	b500      	push	{lr}
 8000e4e:	f000 f939 	bl	80010c4 <is_hex>
 8000e52:	f85d eb04 	ldr.w	lr, [sp], #4
 8000e56:	d000      	beq.n	8000e5a <hex_nbr+0x1a>
 8000e58:	e1a0      	b.n	800119c <syntax_error>
 8000e5a:	ea4f 1606 	mov.w	r6, r6, lsl #4
 8000e5e:	4406      	add	r6, r0
 8000e60:	f818 0003 	ldrb.w	r0, [r8, r3]
 8000e64:	f103 0301 	add.w	r3, r3, #1
 8000e68:	b500      	push	{lr}
 8000e6a:	f000 f92b 	bl	80010c4 <is_hex>
 8000e6e:	f85d eb04 	ldr.w	lr, [sp], #4
 8000e72:	d0f2      	beq.n	8000e5a <hex_nbr+0x1a>
 8000e74:	f1a3 0301 	sub.w	r3, r3, #1
 8000e78:	f04f 000f 	mov.w	r0, #15
 8000e7c:	4631      	mov	r1, r6
 8000e7e:	f809 0b01 	strb.w	r0, [r9], #1
 8000e82:	f849 1b04 	str.w	r1, [r9], #4
 8000e86:	e076      	b.n	8000f76 <token_exit>

08000e88 <lt>:
 8000e88:	f04f 0134 	mov.w	r1, #52	; 0x34
 8000e8c:	f818 0003 	ldrb.w	r0, [r8, r3]
 8000e90:	283e      	cmp	r0, #62	; 0x3e
 8000e92:	d10b      	bne.n	8000eac <gt+0x12>
 8000e94:	f101 0101 	add.w	r1, r1, #1
 8000e98:	e00c      	b.n	8000eb4 <gt+0x1a>

08000e9a <gt>:
 8000e9a:	f04f 0131 	mov.w	r1, #49	; 0x31
 8000e9e:	f818 0003 	ldrb.w	r0, [r8, r3]
 8000ea2:	283c      	cmp	r0, #60	; 0x3c
 8000ea4:	d102      	bne.n	8000eac <gt+0x12>
 8000ea6:	f101 0101 	add.w	r1, r1, #1
 8000eaa:	e003      	b.n	8000eb4 <gt+0x1a>
 8000eac:	283d      	cmp	r0, #61	; 0x3d
 8000eae:	d103      	bne.n	8000eb8 <gt+0x1e>
 8000eb0:	f101 0102 	add.w	r1, r1, #2
 8000eb4:	f103 0301 	add.w	r3, r3, #1
 8000eb8:	f809 1b01 	strb.w	r1, [r9], #1
 8000ebc:	e05b      	b.n	8000f76 <token_exit>

08000ebe <bkslash>:
 8000ebe:	f818 1003 	ldrb.w	r1, [r8, r3]
 8000ec2:	f103 0301 	add.w	r3, r3, #1
 8000ec6:	f04f 0003 	mov.w	r0, #3
 8000eca:	e054      	b.n	8000f76 <token_exit>

08000ecc <prt_cmd>:
 8000ecc:	f04f 000b 	mov.w	r0, #11
 8000ed0:	f04f 013a 	mov.w	r1, #58	; 0x3a
 8000ed4:	e04f      	b.n	8000f76 <token_exit>

08000ed6 <quote>:
 8000ed6:	b500      	push	{lr}
 8000ed8:	f000 f8a2 	bl	8001020 <parse_quote>
 8000edc:	f85d eb04 	ldr.w	lr, [sp], #4
 8000ee0:	e049      	b.n	8000f76 <token_exit>

08000ee2 <tick>:
 8000ee2:	4648      	mov	r0, r9
 8000ee4:	eb08 0103 	add.w	r1, r8, r3
 8000ee8:	b500      	push	{lr}
 8000eea:	f7ff fe03 	bl	8000af4 <strlen>
 8000eee:	f85d eb04 	ldr.w	lr, [sp], #4
 8000ef2:	4602      	mov	r2, r0
 8000ef4:	4648      	mov	r0, r9
 8000ef6:	b404      	push	{r2}
 8000ef8:	b500      	push	{lr}
 8000efa:	f7ff fe07 	bl	8000b0c <cmove>
 8000efe:	f85d eb04 	ldr.w	lr, [sp], #4
 8000f02:	bc04      	pop	{r2}
 8000f04:	f102 0201 	add.w	r2, r2, #1
 8000f08:	4413      	add	r3, r2
 8000f0a:	4491      	add	r9, r2
 8000f0c:	f04f 000b 	mov.w	r0, #11
 8000f10:	f04f 0147 	mov.w	r1, #71	; 0x47
 8000f14:	e02f      	b.n	8000f76 <token_exit>

08000f16 <try_other>:
 8000f16:	b500      	push	{lr}
 8000f18:	f000 f8c8 	bl	80010ac <is_digit>
 8000f1c:	f85d eb04 	ldr.w	lr, [sp], #4
 8000f20:	d00e      	beq.n	8000f40 <decimal_nbr>
 8000f22:	b500      	push	{lr}
 8000f24:	f000 f8ee 	bl	8001104 <is_alpha>
 8000f28:	f85d eb04 	ldr.w	lr, [sp], #4
 8000f2c:	b901      	cbnz	r1, 8000f30 <try_other+0x1a>
 8000f2e:	e135      	b.n	800119c <syntax_error>
 8000f30:	b500      	push	{lr}
 8000f32:	f000 f90b 	bl	800114c <parse_keyword>
 8000f36:	f85d eb04 	ldr.w	lr, [sp], #4
 8000f3a:	2947      	cmp	r1, #71	; 0x47
 8000f3c:	d0d1      	beq.n	8000ee2 <tick>
 8000f3e:	e01a      	b.n	8000f76 <token_exit>

08000f40 <decimal_nbr>:
 8000f40:	f04f 020a 	mov.w	r2, #10
 8000f44:	ea86 0606 	eor.w	r6, r6, r6
 8000f48:	fb06 f602 	mul.w	r6, r6, r2
 8000f4c:	4406      	add	r6, r0
 8000f4e:	f818 0003 	ldrb.w	r0, [r8, r3]
 8000f52:	f103 0301 	add.w	r3, r3, #1
 8000f56:	b500      	push	{lr}
 8000f58:	f000 f8a8 	bl	80010ac <is_digit>
 8000f5c:	f85d eb04 	ldr.w	lr, [sp], #4
 8000f60:	d0f2      	beq.n	8000f48 <decimal_nbr+0x8>
 8000f62:	f1a3 0301 	sub.w	r3, r3, #1
 8000f66:	f04f 000f 	mov.w	r0, #15
 8000f6a:	4631      	mov	r1, r6
 8000f6c:	f809 0b01 	strb.w	r0, [r9], #1
 8000f70:	f849 1b04 	str.w	r1, [r9], #4
 8000f74:	e7ff      	b.n	8000f76 <token_exit>

08000f76 <token_exit>:
 8000f76:	bc40      	pop	{r6}
 8000f78:	4770      	bx	lr

08000f7a <char_list>:
 8000f7a:	28402c20 	stmdacs	r0, {r5, sl, fp, sp}^
 8000f7e:	2d233a29 	vstmdbcs	r3!, {s6-s46}
 8000f82:	252f2a2b 	strcs	r2, [pc, #-2603]!	; 800055f <uart_puts+0x3>
 8000f86:	5c3e3c3d 	ldcpl	12, cr3, [lr], #-244	; 0xffffff0c
 8000f8a:	2422273f 	strtcs	r2, [r2], #-1855	; 0xfffff8c1
 8000f8e:	 	stmdbeq	r0, {r1, r2, r5}

08000f90 <tok_single>:
 8000f90:	07060900 	streq	r0, [r6, -r0, lsl #18]
 8000f94:	110a0108 	tstne	sl, r8, lsl #2
 8000f98:	22212010 	eorcs	r2, r1, #16
 8000f9c:	 	andeq	r0, r0, r2, lsr r0

08000f9d <token_ofs>:
 8000f9d:	00000000 	andeq	r0, r0, r0
 8000fa1:	00000001 	andeq	r0, r0, r1
 8000fa5:	00000001 	andeq	r0, r0, r1
 8000fa9:	00000001 	andeq	r0, r0, r1
 8000fad:	00000001 	andeq	r0, r0, r1
 8000fb1:	00000001 	andeq	r0, r0, r1
 8000fb5:	00000001 	andeq	r0, r0, r1
 8000fb9:	00000001 	andeq	r0, r0, r1
 8000fbd:	00000001 	andeq	r0, r0, r1
 8000fc1:	00000001 	andeq	r0, r0, r1
 8000fc5:	00000001 	andeq	r0, r0, r1
 8000fc9:	00000001 	andeq	r0, r0, r1
 8000fcd:	00000001 	andeq	r0, r0, r1
 8000fd1:	00000001 	andeq	r0, r0, r1
 8000fd5:	0000004c 	andeq	r0, r0, ip, asr #32
 8000fd9:	00000055 	andeq	r0, r0, r5, asr r0
 8000fdd:	00000067 	andeq	r0, r0, r7, rrx
 8000fe1:	0000006e 	andeq	r0, r0, lr, rrx
 8000fe5:	00000079 	andeq	r0, r0, r9, ror r0
 8000fe9:	00000073 	andeq	r0, r0, r3, ror r0
 8000fed:	00000028 	andeq	r0, r0, r8, lsr #32
 8000ff1:	00000003 	andeq	r0, r0, r3
 8000ff5:	 	ldceq	0, cr0, [pc]	; 8000ffc <is_special+0x4>

08000ff8 <is_special>:
 8000ff8:	b40c      	push	{r2, r3}
 8000ffa:	f04f 0201 	mov.w	r2, #1
 8000ffe:	f8df 34e0 	ldr.w	r3, [pc, #1248]	; 80014e0 <relation+0x8>
 8001002:	5c99      	ldrb	r1, [r3, r2]
 8001004:	b151      	cbz	r1, 800101c <is_special+0x24>
 8001006:	4288      	cmp	r0, r1
 8001008:	d002      	beq.n	8001010 <is_special+0x18>
 800100a:	f102 0201 	add.w	r2, r2, #1
 800100e:	e7f8      	b.n	8001002 <is_special+0xa>
 8001010:	4611      	mov	r1, r2
 8001012:	293c      	cmp	r1, #60	; 0x3c
 8001014:	d502      	bpl.n	800101c <is_special+0x24>
 8001016:	f8df 24cc 	ldr.w	r2, [pc, #1228]	; 80014e4 <relation+0xc>
 800101a:	5851      	ldr	r1, [r2, r1]
 800101c:	bc0c      	pop	{r2, r3}
 800101e:	4770      	bx	lr

08001020 <parse_quote>:
 8001020:	f109 0901 	add.w	r9, r9, #1
 8001024:	f84d 9d04 	str.w	r9, [sp, #-4]!
 8001028:	f818 0003 	ldrb.w	r0, [r8, r3]
 800102c:	f103 0301 	add.w	r3, r3, #1
 8001030:	2822      	cmp	r0, #34	; 0x22
 8001032:	d00a      	beq.n	800104a <parse_quote+0x2a>
 8001034:	285c      	cmp	r0, #92	; 0x5c
 8001036:	d105      	bne.n	8001044 <parse_quote+0x24>
 8001038:	b500      	push	{lr}
 800103a:	f000 f80d 	bl	8001058 <get_escaped_char>
 800103e:	f85d eb04 	ldr.w	lr, [sp], #4
 8001042:	e7f1      	b.n	8001028 <parse_quote+0x8>
 8001044:	f809 0b01 	strb.w	r0, [r9], #1
 8001048:	e7ee      	b.n	8001028 <parse_quote+0x8>
 800104a:	f04f 0002 	mov.w	r0, #2
 800104e:	bc02      	pop	{r1}
 8001050:	f801 0c01 	strb.w	r0, [r1, #-1]
 8001054:	4770      	bx	lr
 8001056:	bf00      	nop

08001058 <get_escaped_char>:
 8001058:	f818 0003 	ldrb.w	r0, [r8, r3]
 800105c:	f103 0301 	add.w	r3, r3, #1
 8001060:	2822      	cmp	r0, #34	; 0x22
 8001062:	d102      	bne.n	800106a <get_escaped_char+0x12>
 8001064:	f809 0b01 	strb.w	r0, [r9], #1
 8001068:	e00b      	b.n	8001082 <get_escaped_char+0x2a>
 800106a:	f8df 147c 	ldr.w	r1, [pc, #1148]	; 80014e8 <relation+0x10>
 800106e:	f811 2b01 	ldrb.w	r2, [r1], #1
 8001072:	b122      	cbz	r2, 800107e <get_escaped_char+0x26>
 8001074:	4282      	cmp	r2, r0
 8001076:	d000      	beq.n	800107a <get_escaped_char+0x22>
 8001078:	e7f9      	b.n	800106e <get_escaped_char+0x16>
 800107a:	f102 0007 	add.w	r0, r2, #7
 800107e:	f809 0b01 	strb.w	r0, [r9], #1
 8001082:	4770      	bx	lr

08001084 <escaped>:
 8001084:	6e746261 	cdpvs	2, 7, cr6, cr4, cr1, {3}
 8001088:	00726676 	rsbseq	r6, r2, r6, ror r6

0800108c <skip>:
 800108c:	f818 1003 	ldrb.w	r1, [r8, r3]
 8001090:	f103 0301 	add.w	r3, r3, #1
 8001094:	4281      	cmp	r1, r0
 8001096:	d0f9      	beq.n	800108c <skip>
 8001098:	6023      	str	r3, [r4, #0]
 800109a:	4770      	bx	lr

0800109c <upper>:
 800109c:	2861      	cmp	r0, #97	; 0x61
 800109e:	db03      	blt.n	80010a8 <upper+0xc>
 80010a0:	287a      	cmp	r0, #122	; 0x7a
 80010a2:	dc01      	bgt.n	80010a8 <upper+0xc>
 80010a4:	f000 005f 	and.w	r0, r0, #95	; 0x5f
 80010a8:	4770      	bx	lr
 80010aa:	bf00      	nop

080010ac <is_digit>:
 80010ac:	b402      	push	{r1}
 80010ae:	ea81 0101 	eor.w	r1, r1, r1
 80010b2:	3830      	subs	r0, #48	; 0x30
 80010b4:	db03      	blt.n	80010be <is_digit+0x12>
 80010b6:	283a      	cmp	r0, #58	; 0x3a
 80010b8:	d401      	bmi.n	80010be <is_digit+0x12>
 80010ba:	f04f 31ff 	mov.w	r1, #4294967295	; 0xffffffff
 80010be:	4009      	ands	r1, r1
 80010c0:	bc02      	pop	{r1}
 80010c2:	4770      	bx	lr

080010c4 <is_hex>:
 80010c4:	b402      	push	{r1}
 80010c6:	f04f 31ff 	mov.w	r1, #4294967295	; 0xffffffff
 80010ca:	2841      	cmp	r0, #65	; 0x41
 80010cc:	d401      	bmi.n	80010d2 <is_hex+0xe>
 80010ce:	f1a0 0007 	sub.w	r0, r0, #7
 80010d2:	f1a0 0030 	sub.w	r0, r0, #48	; 0x30
 80010d6:	d401      	bmi.n	80010dc <is_hex+0x18>
 80010d8:	2810      	cmp	r0, #16
 80010da:	d401      	bmi.n	80010e0 <is_hex+0x1c>
 80010dc:	ea81 0101 	eor.w	r1, r1, r1
 80010e0:	4009      	ands	r1, r1
 80010e2:	bc02      	pop	{r1}
 80010e4:	4770      	bx	lr
 80010e6:	bf00      	nop

080010e8 <is_bit>:
 80010e8:	b402      	push	{r1}
 80010ea:	f04f 31ff 	mov.w	r1, #4294967295	; 0xffffffff
 80010ee:	f1a0 0030 	sub.w	r0, r0, #48	; 0x30
 80010f2:	d401      	bmi.n	80010f8 <is_bit+0x10>
 80010f4:	2902      	cmp	r1, #2
 80010f6:	d401      	bmi.n	80010fc <is_bit+0x14>
 80010f8:	ea81 0101 	eor.w	r1, r1, r1
 80010fc:	4009      	ands	r1, r1
 80010fe:	bc02      	pop	{r1}
 8001100:	4770      	bx	lr
 8001102:	bf00      	nop

08001104 <is_alpha>:
 8001104:	b402      	push	{r1}
 8001106:	f04f 31ff 	mov.w	r1, #4294967295	; 0xffffffff
 800110a:	2841      	cmp	r0, #65	; 0x41
 800110c:	db01      	blt.n	8001112 <is_alpha+0xe>
 800110e:	285b      	cmp	r0, #91	; 0x5b
 8001110:	d401      	bmi.n	8001116 <is_alpha+0x12>
 8001112:	ea81 0101 	eor.w	r1, r1, r1
 8001116:	4009      	ands	r1, r1
 8001118:	bc02      	pop	{r1}
 800111a:	4770      	bx	lr

0800111c <is_num>:
 800111c:	b402      	push	{r1}
 800111e:	f04f 31ff 	mov.w	r1, #4294967295	; 0xffffffff
 8001122:	2830      	cmp	r0, #48	; 0x30
 8001124:	db01      	blt.n	800112a <is_num+0xe>
 8001126:	283a      	cmp	r0, #58	; 0x3a
 8001128:	d401      	bmi.n	800112e <is_num+0x12>
 800112a:	ea81 0101 	eor.w	r1, r1, r1
 800112e:	4009      	ands	r1, r1
 8001130:	bc02      	pop	{r1}
 8001132:	4770      	bx	lr

08001134 <is_alnum>:
 8001134:	b500      	push	{lr}
 8001136:	f7ff ffe5 	bl	8001104 <is_alpha>
 800113a:	f85d eb04 	ldr.w	lr, [sp], #4
 800113e:	d004      	beq.n	800114a <is_alnum+0x16>
 8001140:	b500      	push	{lr}
 8001142:	f7ff ffeb 	bl	800111c <is_num>
 8001146:	f85d eb04 	ldr.w	lr, [sp], #4
 800114a:	4770      	bx	lr

0800114c <parse_keyword>:
 800114c:	f84d 9d04 	str.w	r9, [sp, #-4]!
 8001150:	f809 0b01 	strb.w	r0, [r9], #1
 8001154:	f818 0003 	ldrb.w	r0, [r8, r3]
 8001158:	f103 0301 	add.w	r3, r3, #1
 800115c:	b500      	push	{lr}
 800115e:	f7ff ffe9 	bl	8001134 <is_alnum>
 8001162:	f85d eb04 	ldr.w	lr, [sp], #4
 8001166:	d102      	bne.n	800116e <parse_keyword+0x22>
 8001168:	f809 0b01 	strb.w	r0, [r9], #1
 800116c:	e7f2      	b.n	8001154 <parse_keyword+0x8>
 800116e:	f1a3 0301 	sub.w	r3, r3, #1
 8001172:	ea80 0000 	eor.w	r0, r0, r0
 8001176:	f889 0000 	strb.w	r0, [r9]
 800117a:	9800      	ldr	r0, [sp, #0]
 800117c:	49db      	ldr	r1, [pc, #876]	; (80014ec <relation+0x14>)
 800117e:	b500      	push	{lr}
 8001180:	f000 f848 	bl	8001214 <search_dict>
 8001184:	f85d eb04 	ldr.w	lr, [sp], #4
 8001188:	b900      	cbnz	r0, 800118c <parse_keyword+0x40>
 800118a:	e007      	b.n	800119c <syntax_error>
 800118c:	f85d 9b04 	ldr.w	r9, [sp], #4
 8001190:	f809 0b01 	strb.w	r0, [r9], #1
 8001194:	f809 1b01 	strb.w	r1, [r9], #1
 8001198:	4770      	bx	lr
 800119a:	bf00      	nop

0800119c <syntax_error>:
 800119c:	f04f 0002 	mov.w	r0, #2
 80011a0:	e000      	b.n	80011a4 <tb_error>
 80011a2:	bf00      	nop

080011a4 <tb_error>:
 80011a4:	49d2      	ldr	r1, [pc, #840]	; (80014f0 <relation+0x18>)
 80011a6:	ea4f 0080 	mov.w	r0, r0, lsl #2
 80011aa:	4408      	add	r0, r1
 80011ac:	6800      	ldr	r0, [r0, #0]
 80011ae:	b500      	push	{lr}
 80011b0:	f7ff f9d4 	bl	800055c <uart_puts>
 80011b4:	f85d eb04 	ldr.w	lr, [sp], #4
 80011b8:	4857      	ldr	r0, [pc, #348]	; (8001318 <dstack_empty>)
 80011ba:	4685      	mov	sp, r0
 80011bc:	e186      	b.n	80014cc <warm_start>
 80011be:	4770      	bx	lr

080011c0 <err_msg>:
 80011c0:	00000000 	andeq	r0, r0, r0
 80011c4:	080015d0 	stmdaeq	r0, {r4, r6, r7, r8, sl, ip}
 80011c8:	080015dd 	stmdaeq	r0, {r0, r2, r3, r4, r6, r7, r8, sl, ip}
 80011cc:	080015eb 	stmdaeq	r0, {r0, r1, r3, r5, r6, r7, r8, sl, ip}
 80011d0:	08001604 	stmdaeq	r0, {r2, r9, sl, ip}
 80011d4:	08001613 	stmdaeq	r0, {r0, r1, r4, r9, sl, ip}
 80011d8:	08001629 	stmdaeq	r0, {r0, r3, r5, r9, sl, ip}
 80011dc:	0800163f 	stmdaeq	r0, {r0, r1, r2, r3, r4, r5, r9, sl, ip}
 80011e0:	08001659 	stmdaeq	r0, {r0, r3, r4, r6, r9, sl, ip}
 80011e4:	0800166a 	stmdaeq	r0, {r1, r3, r5, r6, r9, sl, ip}
 80011e8:	0800167b 	stmdaeq	r0, {r0, r1, r3, r4, r5, r6, r9, sl, ip}
 80011ec:	08001687 	stmdaeq	r0, {r0, r1, r2, r7, r9, sl, ip}
 80011f0:	080016ba 	stmdaeq	r0, {r1, r3, r4, r5, r7, r9, sl, ip}
 80011f4:	080016ca 	stmdaeq	r0, {r1, r3, r6, r7, r9, sl, ip}
 80011f8:	080016de 	stmdaeq	r0, {r1, r2, r3, r4, r6, r7, r9, sl, ip}
 80011fc:	080016f1 	stmdaeq	r0, {r0, r4, r5, r6, r7, r9, sl, ip}

08001200 <arg_list>:
 8001200:	f84d 8d04 	str.w	r8, [sp, #-4]!
 8001204:	f85d 8b04 	ldr.w	r8, [sp], #4
 8001208:	4770      	bx	lr
 800120a:	bf00      	nop

0800120c <func_args>:
 800120c:	4770      	bx	lr
 800120e:	bf00      	nop

08001210 <BTGL>:
 8001210:	4770      	bx	lr
 8001212:	bf00      	nop

08001214 <search_dict>:
 8001214:	b404      	push	{r2}
 8001216:	b403      	push	{r0, r1}
 8001218:	f811 0b01 	ldrb.w	r0, [r1], #1
 800121c:	4300      	orrs	r0, r0
 800121e:	d010      	beq.n	8001242 <search_dict+0x2e>
 8001220:	9800      	ldr	r0, [sp, #0]
 8001222:	b500      	push	{lr}
 8001224:	f7ff fc92 	bl	8000b4c <strcmp>
 8001228:	f85d eb04 	ldr.w	lr, [sp], #4
 800122c:	d004      	beq.n	8001238 <search_dict+0x24>
 800122e:	9901      	ldr	r1, [sp, #4]
 8001230:	f851 1c0c 	ldr.w	r1, [r1, #-12]
 8001234:	9101      	str	r1, [sp, #4]
 8001236:	e7ef      	b.n	8001218 <search_dict+0x4>
 8001238:	9901      	ldr	r1, [sp, #4]
 800123a:	f811 0c04 	ldrb.w	r0, [r1, #-4]
 800123e:	f851 1c08 	ldr.w	r1, [r1, #-8]
 8001242:	b002      	add	sp, #8
 8001244:	bc04      	pop	{r2}
 8001246:	4770      	bx	lr

08001248 <prt_version>:
 8001248:	48aa      	ldr	r0, [pc, #680]	; (80014f4 <relation+0x1c>)
 800124a:	b500      	push	{lr}
 800124c:	f7ff f986 	bl	800055c <uart_puts>
 8001250:	f85d eb04 	ldr.w	lr, [sp], #4
 8001254:	f89f 0076 	ldrb.w	r0, [pc, #118]	; 80012ce <version>
 8001258:	ea4f 1010 	mov.w	r0, r0, lsr #4
 800125c:	f100 0030 	add.w	r0, r0, #48	; 0x30
 8001260:	283a      	cmp	r0, #58	; 0x3a
 8001262:	d401      	bmi.n	8001268 <prt_version+0x20>
 8001264:	f100 0007 	add.w	r0, r0, #7
 8001268:	b500      	push	{lr}
 800126a:	f7ff f867 	bl	800033c <uart_putc>
 800126e:	f85d eb04 	ldr.w	lr, [sp], #4
 8001272:	f04f 002e 	mov.w	r0, #46	; 0x2e
 8001276:	b500      	push	{lr}
 8001278:	f7ff f860 	bl	800033c <uart_putc>
 800127c:	f85d eb04 	ldr.w	lr, [sp], #4
 8001280:	f89f 004a 	ldrb.w	r0, [pc, #74]	; 80012ce <version>
 8001284:	f000 000f 	and.w	r0, r0, #15
 8001288:	f100 0030 	add.w	r0, r0, #48	; 0x30
 800128c:	283a      	cmp	r0, #58	; 0x3a
 800128e:	d401      	bmi.n	8001294 <prt_version+0x4c>
 8001290:	f100 0007 	add.w	r0, r0, #7
 8001294:	b500      	push	{lr}
 8001296:	f7ff f851 	bl	800033c <uart_putc>
 800129a:	f85d eb04 	ldr.w	lr, [sp], #4
 800129e:	f04f 000d 	mov.w	r0, #13
 80012a2:	b500      	push	{lr}
 80012a4:	f7ff f84a 	bl	800033c <uart_putc>
 80012a8:	f85d eb04 	ldr.w	lr, [sp], #4
 80012ac:	4770      	bx	lr

080012ae <version_msg>:
 80012ae:	756c620a 	strbvc	r6, [ip, #-522]!	; 0xfffffdf6
 80012b2:	69702065 	ldmdbvs	r0!, {r0, r2, r5, r6, sp}^
 80012b6:	74206c6c 	strtvc	r6, [r0], #-3180	; 0xfffff394
 80012ba:	20796e69 	rsbscs	r6, r9, r9, ror #28
 80012be:	49534142 	ldmdbmi	r3, {r1, r6, r8, lr}^
 80012c2:	76202c43 	strtvc	r2, [r0], -r3, asr #24
 80012c6:	69737265 	ldmdbvs	r3!, {r0, r2, r5, r6, r9, ip, sp, lr}^
 80012ca:	00206e6f 	eoreq	r6, r0, pc, ror #28

080012ce <version>:
 80012ce:	 	strlt	r0, [pc], #-16	; 80012d6 <cold_start+0x6>

080012d0 <cold_start>:
 80012d0:	b40f      	push	{r0, r1, r2, r3}
 80012d2:	f8df c044 	ldr.w	ip, [pc, #68]	; 8001318 <dstack_empty>
 80012d6:	f04f 0400 	mov.w	r4, #0
 80012da:	f2c2 0400 	movt	r4, #8192	; 0x2000
 80012de:	480c      	ldr	r0, [pc, #48]	; (8001310 <src_addr>)
 80012e0:	490c      	ldr	r1, [pc, #48]	; (8001314 <dest_addr>)
 80012e2:	6809      	ldr	r1, [r1, #0]
 80012e4:	440c      	add	r4, r1
 80012e6:	4621      	mov	r1, r4
 80012e8:	f04f 02d0 	mov.w	r2, #208	; 0xd0
 80012ec:	b500      	push	{lr}
 80012ee:	f7ff fc0d 	bl	8000b0c <cmove>
 80012f2:	f85d eb04 	ldr.w	lr, [sp], #4
 80012f6:	b500      	push	{lr}
 80012f8:	f7ff ffa6 	bl	8001248 <prt_version>
 80012fc:	f85d eb04 	ldr.w	lr, [sp], #4
 8001300:	bc0f      	pop	{r0, r1, r2, r3}
 8001302:	4770      	bx	lr
 8001304:	b500      	push	{lr}
 8001306:	f000 f825 	bl	8001354 <warm_init>
 800130a:	f85d eb04 	ldr.w	lr, [sp], #4
 800130e:	e033      	b.n	8001378 <cmd_line>

08001310 <src_addr>:
 8001310:	08001500 	stmdaeq	r0, {r8, sl, ip}

08001314 <dest_addr>:
 8001314:	08000130 	stmdaeq	r0, {r4, r5, r8}

08001318 <dstack_empty>:
 8001318:	20004f00 	andcs	r4, r0, r0, lsl #30

0800131c <clear_vars>:
 800131c:	b407      	push	{r0, r1, r2}
 800131e:	ea80 0000 	eor.w	r0, r0, r0
 8001322:	f104 0160 	add.w	r1, r4, #96	; 0x60
 8001326:	f04f 021a 	mov.w	r2, #26
 800132a:	f841 0b04 	str.w	r0, [r1], #4
 800132e:	3a01      	subs	r2, #1
 8001330:	d1fb      	bne.n	800132a <clear_vars+0xe>
 8001332:	bc07      	pop	{r0, r1, r2}
 8001334:	4770      	bx	lr
 8001336:	bf00      	nop

08001338 <clear_basic>:
 8001338:	ea80 0000 	eor.w	r0, r0, r0
 800133c:	6060      	str	r0, [r4, #4]
 800133e:	6020      	str	r0, [r4, #0]
 8001340:	f104 00c8 	add.w	r0, r4, #200	; 0xc8
 8001344:	6320      	str	r0, [r4, #48]	; 0x30
 8001346:	6360      	str	r0, [r4, #52]	; 0x34
 8001348:	b500      	push	{lr}
 800134a:	f7ff ffe7 	bl	800131c <clear_vars>
 800134e:	f85d eb04 	ldr.w	lr, [sp], #4
 8001352:	4770      	bx	lr

08001354 <warm_init>:
 8001354:	f04f 0a00 	mov.w	sl, #0
 8001358:	f04f 0b00 	mov.w	fp, #0
 800135c:	ea80 0000 	eor.w	r0, r0, r0
 8001360:	60a0      	str	r0, [r4, #8]
 8001362:	6020      	str	r0, [r4, #0]
 8001364:	6060      	str	r0, [r4, #4]
 8001366:	6420      	str	r0, [r4, #64]	; 0x40
 8001368:	63a0      	str	r0, [r4, #56]	; 0x38
 800136a:	f04f 0004 	mov.w	r0, #4
 800136e:	6460      	str	r0, [r4, #68]	; 0x44
 8001370:	f04f 000a 	mov.w	r0, #10
 8001374:	61a0      	str	r0, [r4, #24]
 8001376:	4770      	bx	lr

08001378 <cmd_line>:
 8001378:	f04f 000d 	mov.w	r0, #13
 800137c:	b500      	push	{lr}
 800137e:	f7fe ffdd 	bl	800033c <uart_putc>
 8001382:	f85d eb04 	ldr.w	lr, [sp], #4
 8001386:	484f      	ldr	r0, [pc, #316]	; (80014c4 <tib>)
 8001388:	b500      	push	{lr}
 800138a:	f7ff fa6d 	bl	8000868 <readln>
 800138e:	f85d eb04 	ldr.w	lr, [sp], #4
 8001392:	4000      	ands	r0, r0
 8001394:	d0f7      	beq.n	8001386 <cmd_line+0xe>
 8001396:	b500      	push	{lr}
 8001398:	f7ff fcc2 	bl	8000d20 <compile>
 800139c:	f85d eb04 	ldr.w	lr, [sp], #4
 80013a0:	4000      	ands	r0, r0
 80013a2:	d0f0      	beq.n	8001386 <cmd_line+0xe>

080013a4 <interpreter>:
 80013a4:	f08a 0a03 	eor.w	sl, sl, #3
 80013a8:	f8d4 b008 	ldr.w	fp, [r4, #8]
 80013ac:	6860      	ldr	r0, [r4, #4]
 80013ae:	4582      	cmp	sl, r0
 80013b0:	d416      	bmi.n	80013e0 <interp_loop>

080013b2 <next_line>:
 80013b2:	6c20      	ldr	r0, [r4, #64]	; 0x40
 80013b4:	f010 0f02 	tst.w	r0, #2
 80013b8:	d0de      	beq.n	8001378 <cmd_line>
 80013ba:	f8d4 a000 	ldr.w	sl, [r4]
 80013be:	f8d4 b008 	ldr.w	fp, [r4, #8]
 80013c2:	eb0a 000b 	add.w	r0, sl, fp
 80013c6:	6b61      	ldr	r1, [r4, #52]	; 0x34
 80013c8:	4288      	cmp	r0, r1
 80013ca:	d405      	bmi.n	80013d8 <next_line+0x26>
 80013cc:	b500      	push	{lr}
 80013ce:	f000 f87d 	bl	80014cc <warm_start>
 80013d2:	f85d eb04 	ldr.w	lr, [sp], #4
 80013d6:	e7cf      	b.n	8001378 <cmd_line>
 80013d8:	f04f 0a03 	mov.w	sl, #3
 80013dc:	f8c4 a000 	str.w	sl, [r4]

080013e0 <interp_loop>:
 80013e0:	b500      	push	{lr}
 80013e2:	f000 f819 	bl	8001418 <next_token>
 80013e6:	f85d eb04 	ldr.w	lr, [sp], #4
 80013ea:	2800      	cmp	r0, #0
 80013ec:	d0e1      	beq.n	80013b2 <next_line>
 80013ee:	280b      	cmp	r0, #11
 80013f0:	d104      	bne.n	80013fc <interp_loop+0x1c>
 80013f2:	4841      	ldr	r0, [pc, #260]	; (80014f8 <relation+0x20>)
 80013f4:	f850 0021 	ldr.w	r0, [r0, r1, lsl #2]
 80013f8:	4700      	bx	r0
 80013fa:	e7f1      	b.n	80013e0 <interp_loop>
 80013fc:	2805      	cmp	r0, #5
 80013fe:	d102      	bne.n	8001406 <interp_loop+0x26>
 8001400:	f000 bf39 	b.w	8002276 <let_var>
 8001404:	e7ec      	b.n	80013e0 <interp_loop>
 8001406:	2806      	cmp	r0, #6
 8001408:	d102      	bne.n	8001410 <interp_loop+0x30>
 800140a:	f000 bf39 	b.w	8002280 <let_array>
 800140e:	e7e7      	b.n	80013e0 <interp_loop>
 8001410:	2801      	cmp	r0, #1
 8001412:	d0e5      	beq.n	80013e0 <interp_loop>
 8001414:	e6c2      	b.n	800119c <syntax_error>
 8001416:	bf00      	nop

08001418 <next_token>:
 8001418:	6860      	ldr	r0, [r4, #4]
 800141a:	4582      	cmp	sl, r0
 800141c:	d402      	bmi.n	8001424 <next_token+0xc>
 800141e:	ea80 0000 	eor.w	r0, r0, r0
 8001422:	e028      	b.n	8001476 <next_token+0x5e>
 8001424:	f8c4 a000 	str.w	sl, [r4]
 8001428:	f81b 000a 	ldrb.w	r0, [fp, sl]
 800142c:	f000 003f 	and.w	r0, r0, #63	; 0x3f
 8001430:	f108 0801 	add.w	r8, r8, #1
 8001434:	4931      	ldr	r1, [pc, #196]	; (80014fc <relation+0x24>)
 8001436:	e8d1 f000 	tbb	[r1, r0]
 800143a:	f819 1008 	ldrb.w	r1, [r9, r8]
 800143e:	f108 0801 	add.w	r8, r8, #1
 8001442:	e018      	b.n	8001476 <next_token+0x5e>
 8001444:	f839 1008 	ldrh.w	r1, [r9, r8]
 8001448:	f108 0802 	add.w	r8, r8, #2
 800144c:	e013      	b.n	8001476 <next_token+0x5e>
 800144e:	f859 1008 	ldr.w	r1, [r9, r8]
 8001452:	f108 0804 	add.w	r8, r8, #4
 8001456:	e00e      	b.n	8001476 <next_token+0x5e>
 8001458:	eb09 0108 	add.w	r1, r9, r8
 800145c:	4608      	mov	r0, r1
 800145e:	b500      	push	{lr}
 8001460:	f7ff fb48 	bl	8000af4 <strlen>
 8001464:	f85d eb04 	ldr.w	lr, [sp], #4
 8001468:	4480      	add	r8, r0
 800146a:	f108 0801 	add.w	r8, r8, #1
 800146e:	f04f 0002 	mov.w	r0, #2
 8001472:	e000      	b.n	8001476 <next_token+0x5e>
 8001474:	e692      	b.n	800119c <syntax_error>
 8001476:	f8c4 8000 	str.w	r8, [r4]
 800147a:	4770      	bx	lr

0800147c <tok_jmp>:
 800147c:	000f1e1e 	andeq	r1, pc, lr, lsl lr	; <UNPREDICTABLE>
 8001480:	1e1e0500 	cfmul32ne	mvfx0, mvfx14, mvfx0
 8001484:	00001e1e 	andeq	r1, r0, lr, lsl lr
 8001488:	1e0a0000 	cdpne	0, 0, cr0, cr10, cr0, {0}
 800148c:	1d1d1d1e 	ldcne	13, cr1, [sp, #-120]	; 0xffffff88
 8001490:	1d1d1d1d 	ldcne	13, cr1, [sp, #-116]	; 0xffffff8c
 8001494:	1d1d1d1d 	ldcne	13, cr1, [sp, #-116]	; 0xffffff8c
 8001498:	1d1d1d1d 	ldcne	13, cr1, [sp, #-116]	; 0xffffff8c
 800149c:	1e1e1e1d 	mrcne	14, 0, r1, cr14, cr13, {0}
 80014a0:	1d1d1d1d 	ldcne	13, cr1, [sp, #-116]	; 0xffffff8c
 80014a4:	1d1d1d1d 	ldcne	13, cr1, [sp, #-116]	; 0xffffff8c
 80014a8:	1d1d1d1d 	ldcne	13, cr1, [sp, #-116]	; 0xffffff8c
 80014ac:	1d1d1d1d 	ldcne	13, cr1, [sp, #-116]	; 0xffffff8c
 80014b0:	1d1d1d1d 	ldcne	13, cr1, [sp, #-116]	; 0xffffff8c
 80014b4:	1d1d1d1d 	ldcne	13, cr1, [sp, #-116]	; 0xffffff8c
 80014b8:	1d1d1d1d 	ldcne	13, cr1, [sp, #-116]	; 0xffffff8c
 80014bc:	1d1d1d1d 	ldcne	13, cr1, [sp, #-116]	; 0xffffff8c
 80014c0:	bf00001d 	svclt	0x0000001d

080014c4 <tib>:
 80014c4:	20004e30 	andcs	r4, r0, r0, lsr lr

080014c8 <pad>:
 80014c8:	20004db0 			; <UNDEFINED> instruction: 0x20004db0

080014cc <warm_start>:
 80014cc:	f85f c1b8 	ldr.w	ip, [pc, #-440]	; 8001318 <dstack_empty>
 80014d0:	e7fc      	b.n	80014cc <warm_start>
 80014d2:	bf00      	nop

080014d4 <get_array_element>:
 80014d4:	4770      	bx	lr
 80014d6:	bf00      	nop

080014d8 <relation>:
 80014d8:	4770      	bx	lr
 80014da:	0f9d0000 	svceq	0x009d0000
 80014de:	0f7a0800 	svceq	0x007a0800
 80014e2:	0f900800 	svceq	0x00900800
 80014e6:	10840800 	addne	r0, r4, r0, lsl #16
 80014ea:	1f890800 	svcne	0x00890800
 80014ee:	11c00800 	bicne	r0, r0, r0, lsl #16
 80014f2:	12ae0800 	adcne	r0, lr, #0, 16
 80014f6:	1f900800 	svcne	0x00900800
 80014fa:	147c0800 	ldrbtne	r0, [ip], #-2048	; 0xfffff800
 80014fe:	Address 0x00000000080014fe is out of bounds.


Disassembly of section .rodata:

08001500 <__data_start>:
	...
 800151c:	0000000a 	andeq	r0, r0, sl
	...
 8001528:	aa5555aa 	bge	9556bd8 <FLASH_HIDDEN_END+0x1536bd8>
 800152c:	08002400 	stmdaeq	r0, {sl, sp}
 8001530:	00000000 	andeq	r0, r0, r0
 8001534:	20000400 	andcs	r0, r0, r0, lsl #8
 8001538:	20000400 	andcs	r0, r0, r0, lsl #8
	...
 8001548:	00000004 	andeq	r0, r0, r4
	...

Disassembly of section .rodata.tb_error:

080015d0 <err_mem_full>:
 80015d0:	6f6d654d 	svcvs	0x006d654d
 80015d4:	66207972 			; <UNDEFINED> instruction: 0x66207972
 80015d8:	0a6c6c75 	beq	9b1c7b4 <FLASH_HIDDEN_END+0x1afc7b4>
	...

080015dd <err_syntax>:
 80015dd:	746e7973 	strbtvc	r7, [lr], #-2419	; 0xfffff68d
 80015e1:	65207861 	strvs	r7, [r0, #-2145]!	; 0xfffff79f
 80015e5:	726f7272 	rsbvc	r7, pc, #536870919	; 0x20000007
 80015e9:	 	cmnvs	sp, sl

080015eb <err_math_ovf>:
 80015eb:	6874616d 	ldmdavs	r4!, {r0, r2, r3, r5, r6, r8, sp, lr}^
 80015ef:	65706f20 	ldrbvs	r6, [r0, #-3872]!	; 0xfffff0e0
 80015f3:	69746172 	ldmdbvs	r4!, {r1, r4, r5, r6, r8, sp, lr}^
 80015f7:	6f206e6f 	svcvs	0x00206e6f
 80015fb:	66726576 			; <UNDEFINED> instruction: 0x66726576
 80015ff:	0a776f6c 	beq	9ddd3b7 <FLASH_HIDDEN_END+0x1dbd3b7>
	...

08001604 <err_div0>:
 8001604:	69766964 	ldmdbvs	r6!, {r2, r5, r6, r8, fp, sp, lr}^
 8001608:	6e6f6973 			; <UNDEFINED> instruction: 0x6e6f6973
 800160c:	20796220 	rsbscs	r6, r9, r0, lsr #4
 8001610:	 	stmdbvs	r0, {r4, r5, r9, fp}

08001613 <err_no_line>:
 8001613:	61766e69 	cmnvs	r6, r9, ror #28
 8001617:	2064696c 	rsbcs	r6, r4, ip, ror #18
 800161b:	656e696c 	strbvs	r6, [lr, #-2412]!	; 0xfffff694
 800161f:	6d756e20 	ldclvs	14, cr6, [r5, #-128]!	; 0xffffff80
 8001623:	2e726562 	cdpcs	5, 7, cr6, cr2, cr2, {3}
 8001627:	 	ldrbvc	r0, [r2, #-10]!

08001629 <err_run_only>:
 8001629:	206e7572 	rsbcs	r7, lr, r2, ror r5
 800162d:	656d6974 	strbvs	r6, [sp, #-2420]!	; 0xfffff68c
 8001631:	6c6e6f20 	stclvs	15, cr6, [lr], #-128	; 0xffffff80
 8001635:	73752079 	cmnvc	r5, #121	; 0x79
 8001639:	2e656761 	cdpcs	7, 6, cr6, cr5, cr1, {3}
 800163d:	 	svcvs	0x0063000a

0800163f <err_cmd_only>:
 800163f:	6d6d6f63 	stclvs	15, cr6, [sp, #-396]!	; 0xfffffe74
 8001643:	20646e61 	rsbcs	r6, r4, r1, ror #28
 8001647:	656e696c 	strbvs	r6, [lr, #-2412]!	; 0xfffff694
 800164b:	6c6e6f20 	stclvs	15, cr6, [lr], #-128	; 0xffffff80
 800164f:	73752079 	cmnvc	r5, #121	; 0x79
 8001653:	2e656761 	cdpcs	7, 6, cr6, cr5, cr1, {3}
 8001657:	 	strbvc	r0, [r4, #-10]!

08001659 <err_duplicate>:
 8001659:	6c707564 	cfldr64vs	mvdx7, [r0], #-400	; 0xfffffe70
 800165d:	74616369 	strbtvc	r6, [r1], #-873	; 0xfffffc97
 8001661:	616e2065 	cmnvs	lr, r5, rrx
 8001665:	0a2e656d 	beq	8b9ac21 <FLASH_HIDDEN_END+0xb7ac21>
	...

0800166a <err_not_file>:
 800166a:	656c6946 	strbvs	r6, [ip, #-2374]!	; 0xfffff6ba
 800166e:	746f6e20 	strbtvc	r6, [pc], #-3616	; 8001676 <err_not_file+0xc>
 8001672:	756f6620 	strbvc	r6, [pc, #-1568]!	; 800105a <get_escaped_char+0x2>
 8001676:	0a2e646e 	beq	8b9a836 <FLASH_HIDDEN_END+0xb7a836>
	...

0800167b <err_bad_value>:
 800167b:	20646162 	rsbcs	r6, r4, r2, ror #2
 800167f:	756c6176 	strbvc	r6, [ip, #-374]!	; 0xfffffe8a
 8001683:	000a2e65 	andeq	r2, sl, r5, ror #28

08001687 <err_no_access>:
 8001687:	656c6946 	strbvs	r6, [ip, #-2374]!	; 0xfffff6ba
 800168b:	206e6920 	rsbcs	r6, lr, r0, lsr #18
 800168f:	65747865 	ldrbvs	r7, [r4, #-2149]!	; 0xfffff79b
 8001693:	6465646e 	strbtvs	r6, [r5], #-1134	; 0xfffffb92
 8001697:	6d656d20 	stclvs	13, cr6, [r5, #-128]!	; 0xffffff80
 800169b:	2c79726f 	lfmcs	f7, 2, [r9], #-444	; 0xfffffe44
 800169f:	6e616320 	cdpvs	3, 6, cr6, cr1, cr0, {1}
 80016a3:	62207427 	eorvs	r7, r0, #654311424	; 0x27000000
 80016a7:	75722065 	ldrbvc	r2, [r2, #-101]!	; 0xffffff9b
 80016ab:	7266206e 	rsbvc	r2, r6, #110	; 0x6e
 80016af:	74206d6f 	strtvc	r6, [r0], #-3439	; 0xfffff291
 80016b3:	65726568 	ldrbvs	r6, [r2, #-1384]!	; 0xfffffa98
 80016b7:	 	vmlami.f32	s0, s0, s29

080016ba <err_no_data>:
 80016ba:	64206f4e 	strtvs	r6, [r0], #-3918	; 0xfffff0b2
 80016be:	20617461 	rsbcs	r7, r1, r1, ror #8
 80016c2:	6e756f66 	cdpvs	15, 7, cr6, cr5, cr6, {3}
 80016c6:	000a2e64 	andeq	r2, sl, r4, ror #28

080016ca <err_no_prog>:
 80016ca:	70206f4e 	eorvc	r6, r0, lr, asr #30
 80016ce:	72676f72 	rsbvc	r6, r7, #456	; 0x1c8
 80016d2:	69206d61 	stmdbvs	r0!, {r0, r5, r6, r8, sl, fp, sp, lr}
 80016d6:	4152206e 	cmpmi	r2, lr, rrx
 80016da:	000a214d 	andeq	r2, sl, sp, asr #2

080016de <err_no_fspace>:
 80016de:	656c6946 	strbvs	r6, [ip, #-2374]!	; 0xfffff6ba
 80016e2:	73797320 	cmnvc	r9, #32, 6	; 0x80000000
 80016e6:	206d6574 	rsbcs	r6, sp, r4, ror r5
 80016ea:	6c6c7566 	cfstr64vs	mvdx7, [ip], #-408	; 0xfffffe68
 80016ee:	 	andmi	r0, r0, #188416	; 0x2e000

080016f1 <err_buf_full>:
 80016f1:	66667542 	strbtvs	r7, [r6], -r2, asr #10
 80016f5:	66207265 	strtvs	r7, [r0], -r5, ror #4
 80016f9:	0a6c6c75 	beq	9b1c8d5 <FLASH_HIDDEN_END+0x1afc8d5>
	...

080016fe <rt_msg>:
 80016fe:	6e75720a 	cdpvs	2, 7, cr7, cr5, cr10, {0}
 8001702:	6d697420 	cfstrdvs	mvd7, [r9, #-128]!	; 0xffffff80
 8001706:	72652065 	rsbvc	r2, r5, #101	; 0x65
 800170a:	2c726f72 	ldclcs	15, cr6, [r2], #-456	; 0xfffffe38
 800170e:	 	movwvs	r0, #40992	; 0xa020

08001710 <comp_msg>:
 8001710:	6d6f630a 	stclvs	3, cr6, [pc, #-40]!	; 80016f0 <err_no_fspace+0x12>
 8001714:	656c6970 	strbvs	r6, [ip, #-2416]!	; 0xfffff690
 8001718:	72726520 	rsbsvc	r6, r2, #32, 10	; 0x8000000
 800171c:	202c726f 	eorcs	r7, ip, pc, ror #4
	...

08001721 <tk_id>:
 8001721:	7473616c 	ldrbtvc	r6, [r3], #-364	; 0xfffffe94
 8001725:	6b6f7420 	blvs	9bde7ad <FLASH_HIDDEN_END+0x1bbe7ad>
 8001729:	69206e65 	stmdbvs	r0!, {r0, r2, r5, r6, r9, sl, fp, sp, lr}
 800172d:	00203a64 	eoreq	r3, r0, r4, ror #20

Disassembly of section .rodata.dictionary:

08001800 <kword_end>:
 8001800:	0800180c 	stmdaeq	r0, {r2, r3, fp, ip}
	...
 8001810:	0800180c 	stmdaeq	r0, {r2, r3, fp, ip}
 8001814:	00000064 	andeq	r0, r0, r4, rrx
 8001818:	0000000b 	andeq	r0, r0, fp
 800181c:	4d525458 	cfldrdmi	mvd5, [r2, #-352]	; 0xfffffea0
 8001820:	00000054 	andeq	r0, r0, r4, asr r0
 8001824:	0800181c 	stmdaeq	r0, {r2, r3, r4, fp, ip}
 8001828:	00000065 	andeq	r0, r0, r5, rrx
 800182c:	0000000b 	andeq	r0, r0, fp
 8001830:	56435258 			; <UNDEFINED> instruction: 0x56435258
 8001834:	00000000 	andeq	r0, r0, r0
 8001838:	08001830 	stmdaeq	r0, {r4, r5, fp, ip}
 800183c:	00000063 	andeq	r0, r0, r3, rrx
 8001840:	0000000c 	andeq	r0, r0, ip
 8001844:	00524f58 	subseq	r4, r2, r8, asr pc
 8001848:	08001844 	stmdaeq	r0, {r2, r6, fp, ip}
 800184c:	00000062 	andeq	r0, r0, r2, rrx
 8001850:	0000000b 	andeq	r0, r0, fp
 8001854:	54495257 	strbpl	r5, [r9], #-599	; 0xfffffda9
 8001858:	00000045 	andeq	r0, r0, r5, asr #32
 800185c:	08001854 	stmdaeq	r0, {r2, r4, r6, fp, ip}
 8001860:	00000061 	andeq	r0, r0, r1, rrx
 8001864:	0000000b 	andeq	r0, r0, fp
 8001868:	44524f57 	ldrbmi	r4, [r2], #-3927	; 0xfffff0a9
 800186c:	00000053 	andeq	r0, r0, r3, asr r0
 8001870:	08001868 	stmdaeq	r0, {r3, r5, r6, fp, ip}
 8001874:	00000060 	andeq	r0, r0, r0, rrx
 8001878:	0000000b 	andeq	r0, r0, fp
 800187c:	54494157 	strbpl	r4, [r9], #-343	; 0xfffffea9
 8001880:	00000000 	andeq	r0, r0, r0
 8001884:	0800187c 	stmdaeq	r0, {r2, r3, r4, r5, r6, fp, ip}
 8001888:	0000005f 	andeq	r0, r0, pc, asr r0
 800188c:	0000000c 	andeq	r0, r0, ip
 8001890:	00525355 	subseq	r5, r2, r5, asr r3
 8001894:	08001890 	stmdaeq	r0, {r4, r7, fp, ip}
 8001898:	0000005e 	andeq	r0, r0, lr, asr r0
 800189c:	0000000b 	andeq	r0, r0, fp
 80018a0:	49544e55 	ldmdbmi	r4, {r0, r2, r4, r6, r9, sl, fp, lr}^
 80018a4:	0000004c 	andeq	r0, r0, ip, asr #32
 80018a8:	080018a0 	stmdaeq	r0, {r5, r7, fp, ip}
 80018ac:	0000005d 	andeq	r0, r0, sp, asr r0
 80018b0:	0000000c 	andeq	r0, r0, ip
 80018b4:	414c4655 	cmpmi	ip, r5, asr r6
 80018b8:	00004853 	andeq	r4, r0, r3, asr r8
 80018bc:	080018b4 	stmdaeq	r0, {r2, r4, r5, r7, fp, ip}
 80018c0:	0000005c 	andeq	r0, r0, ip, asr r0
 80018c4:	0000000c 	andeq	r0, r0, ip
 80018c8:	554f4255 	strbpl	r4, [pc, #-597]	; 800167b <err_bad_value>
 80018cc:	0000444e 	andeq	r4, r0, lr, asr #8
 80018d0:	080018c8 	stmdaeq	r0, {r3, r6, r7, fp, ip}
 80018d4:	0000005b 	andeq	r0, r0, fp, asr r0
 80018d8:	0000000b 	andeq	r0, r0, fp
 80018dc:	454e4f54 	strbmi	r4, [lr, #-3924]	; 0xfffff0ac
 80018e0:	00000000 	andeq	r0, r0, r0
 80018e4:	080018dc 	stmdaeq	r0, {r2, r3, r4, r6, r7, fp, ip}
 80018e8:	0000005a 	andeq	r0, r0, sl, asr r0
 80018ec:	0000000b 	andeq	r0, r0, fp
 80018f0:	00004f54 	andeq	r4, r0, r4, asr pc
 80018f4:	080018f0 	stmdaeq	r0, {r4, r5, r6, r7, fp, ip}
 80018f8:	00000058 	andeq	r0, r0, r8, asr r0
 80018fc:	0000000b 	andeq	r0, r0, fp
 8001900:	454d4954 	strbmi	r4, [sp, #-2388]	; 0xfffff6ac
 8001904:	00000052 	andeq	r0, r0, r2, asr r0
 8001908:	08001900 	stmdaeq	r0, {r8, fp, ip}
 800190c:	00000059 	andeq	r0, r0, r9, asr r0
 8001910:	0000000c 	andeq	r0, r0, ip
 8001914:	454d4954 	strbmi	r4, [sp, #-2388]	; 0xfffff6ac
 8001918:	0054554f 	subseq	r5, r4, pc, asr #10
 800191c:	08001914 	stmdaeq	r0, {r2, r4, r8, fp, ip}
 8001920:	00000057 	andeq	r0, r0, r7, asr r0
 8001924:	0000000c 	andeq	r0, r0, ip
 8001928:	4b434954 	blmi	90d3e80 <FLASH_HIDDEN_END+0x10b3e80>
 800192c:	00000053 	andeq	r0, r0, r3, asr r0
 8001930:	08001928 	stmdaeq	r0, {r3, r5, r8, fp, ip}
 8001934:	00000056 	andeq	r0, r0, r6, asr r0
 8001938:	0000000b 	andeq	r0, r0, fp
 800193c:	504f5453 	subpl	r5, pc, r3, asr r4	; <UNPREDICTABLE>
 8001940:	00000000 	andeq	r0, r0, r0
 8001944:	0800193c 	stmdaeq	r0, {r2, r3, r4, r5, r8, fp, ip}
 8001948:	00000055 	andeq	r0, r0, r5, asr r0
 800194c:	0000000b 	andeq	r0, r0, fp
 8001950:	50455453 	subpl	r5, r5, r3, asr r4
 8001954:	00000000 	andeq	r0, r0, r0
 8001958:	08001950 	stmdaeq	r0, {r4, r6, r8, fp, ip}
 800195c:	00000054 	andeq	r0, r0, r4, asr r0
 8001960:	0000000b 	andeq	r0, r0, fp
 8001964:	57495053 	smlsldpl	r5, r9, r3, r0
 8001968:	00000052 	andeq	r0, r0, r2, asr r0
 800196c:	08001964 	stmdaeq	r0, {r2, r5, r6, r8, fp, ip}
 8001970:	00000053 	andeq	r0, r0, r3, asr r0
 8001974:	0000000b 	andeq	r0, r0, fp
 8001978:	53495053 	movtpl	r5, #36947	; 0x9053
 800197c:	00004c45 	andeq	r4, r0, r5, asr #24
 8001980:	08001978 	stmdaeq	r0, {r3, r4, r5, r6, r8, fp, ip}
 8001984:	00000051 	andeq	r0, r0, r1, asr r0
 8001988:	0000000c 	andeq	r0, r0, ip
 800198c:	52495053 	subpl	r5, r9, #83	; 0x53
 8001990:	00000044 	andeq	r0, r0, r4, asr #32
 8001994:	0800198c 	stmdaeq	r0, {r2, r3, r7, r8, fp, ip}
 8001998:	00000052 	andeq	r0, r0, r2, asr r0
 800199c:	0000000b 	andeq	r0, r0, fp
 80019a0:	45495053 	strbmi	r5, [r9, #-83]	; 0xffffffad
 80019a4:	0000004e 	andeq	r0, r0, lr, asr #32
 80019a8:	080019a0 	stmdaeq	r0, {r5, r7, r8, fp, ip}
 80019ac:	00000050 	andeq	r0, r0, r0, asr r0
 80019b0:	0000000b 	andeq	r0, r0, fp
 80019b4:	45454c53 	strbmi	r4, [r5, #-3155]	; 0xfffff3ad
 80019b8:	00000050 	andeq	r0, r0, r0, asr r0
 80019bc:	080019b4 	stmdaeq	r0, {r2, r4, r5, r7, r8, fp, ip}
 80019c0:	0000004f 	andeq	r0, r0, pc, asr #32
 80019c4:	0000000c 	andeq	r0, r0, ip
 80019c8:	455a4953 	ldrbmi	r4, [sl, #-2387]	; 0xfffff6ad
 80019cc:	00000000 	andeq	r0, r0, r0
 80019d0:	080019c8 	stmdaeq	r0, {r3, r6, r7, r8, fp, ip}
 80019d4:	0000004e 	andeq	r0, r0, lr, asr #32
 80019d8:	0000000b 	andeq	r0, r0, fp
 80019dc:	574f4853 	smlsldpl	r4, pc, r3, r8	; <UNPREDICTABLE>
 80019e0:	00000000 	andeq	r0, r0, r0
 80019e4:	080019dc 	stmdaeq	r0, {r2, r3, r4, r6, r7, r8, fp, ip}
 80019e8:	0000004d 	andeq	r0, r0, sp, asr #32
 80019ec:	0000000b 	andeq	r0, r0, fp
 80019f0:	45564153 	ldrbmi	r4, [r6, #-339]	; 0xfffffead
 80019f4:	00000000 	andeq	r0, r0, r0
 80019f8:	080019f0 	stmdaeq	r0, {r4, r5, r6, r7, r8, fp, ip}
 80019fc:	0000004c 	andeq	r0, r0, ip, asr #32
 8001a00:	0000000b 	andeq	r0, r0, fp
 8001a04:	004e5552 	subeq	r5, lr, r2, asr r5
 8001a08:	08001a04 	stmdaeq	r0, {r2, r9, fp, ip}
 8001a0c:	0000004b 	andeq	r0, r0, fp, asr #32
 8001a10:	0000000c 	andeq	r0, r0, ip
 8001a14:	49485352 	stmdbmi	r8, {r1, r4, r6, r8, r9, ip, lr}^
 8001a18:	00005446 	andeq	r5, r0, r6, asr #8
 8001a1c:	08001a14 	stmdaeq	r0, {r2, r4, r9, fp, ip}
 8001a20:	0000004a 	andeq	r0, r0, sl, asr #32
 8001a24:	0000000c 	andeq	r0, r0, ip
 8001a28:	00444e52 	subeq	r4, r4, r2, asr lr
 8001a2c:	08001a28 	stmdaeq	r0, {r3, r5, r9, fp, ip}
 8001a30:	00000049 	andeq	r0, r0, r9, asr #32
 8001a34:	0000000b 	andeq	r0, r0, fp
 8001a38:	55544552 	ldrbpl	r4, [r4, #-1362]	; 0xfffffaae
 8001a3c:	00004e52 	andeq	r4, r0, r2, asr lr
 8001a40:	08001a38 	stmdaeq	r0, {r3, r4, r5, r9, fp, ip}
 8001a44:	00000048 	andeq	r0, r0, r8, asr #32
 8001a48:	0000000b 	andeq	r0, r0, fp
 8001a4c:	54534552 	ldrbpl	r4, [r3], #-1362	; 0xfffffaae
 8001a50:	0045524f 	subeq	r5, r5, pc, asr #4
 8001a54:	08001a4c 	stmdaeq	r0, {r2, r3, r6, r9, fp, ip}
 8001a58:	00000047 	andeq	r0, r0, r7, asr #32
 8001a5c:	0000000b 	andeq	r0, r0, fp
 8001a60:	414d4552 	cmpmi	sp, r2, asr r5
 8001a64:	00004b52 	andeq	r4, r0, r2, asr fp
 8001a68:	08001a60 	stmdaeq	r0, {r5, r6, r9, fp, ip}
 8001a6c:	00000046 	andeq	r0, r0, r6, asr #32
 8001a70:	0000000b 	andeq	r0, r0, fp
 8001a74:	4f424552 	svcmi	0x00424552
 8001a78:	0000544f 	andeq	r5, r0, pc, asr #8
 8001a7c:	08001a74 	stmdaeq	r0, {r2, r4, r5, r6, r9, fp, ip}
 8001a80:	00000045 	andeq	r0, r0, r5, asr #32
 8001a84:	0000000c 	andeq	r0, r0, ip
 8001a88:	44414552 	strbmi	r4, [r1], #-1362	; 0xfffffaae
 8001a8c:	00000000 	andeq	r0, r0, r0
 8001a90:	08001a88 	stmdaeq	r0, {r3, r7, r9, fp, ip}
 8001a94:	00000044 	andeq	r0, r0, r4, asr #32
 8001a98:	0000000c 	andeq	r0, r0, ip
 8001a9c:	59454b51 	stmdbpl	r5, {r0, r4, r6, r8, r9, fp, lr}^
 8001aa0:	00000000 	andeq	r0, r0, r0
 8001aa4:	08001a9c 	stmdaeq	r0, {r2, r3, r4, r7, r9, fp, ip}
 8001aa8:	00000043 	andeq	r0, r0, r3, asr #32
 8001aac:	0000000c 	andeq	r0, r0, ip
 8001ab0:	49545250 	ldmdbmi	r4, {r4, r6, r9, ip, lr}^
 8001ab4:	00000000 	andeq	r0, r0, r0
 8001ab8:	08001ab0 	stmdaeq	r0, {r4, r5, r7, r9, fp, ip}
 8001abc:	00000042 	andeq	r0, r0, r2, asr #32
 8001ac0:	0000000c 	andeq	r0, r0, ip
 8001ac4:	48545250 	ldmdami	r4, {r4, r6, r9, ip, lr}^
 8001ac8:	00000000 	andeq	r0, r0, r0
 8001acc:	08001ac4 	stmdaeq	r0, {r2, r6, r7, r9, fp, ip}
 8001ad0:	00000041 	andeq	r0, r0, r1, asr #32
 8001ad4:	0000000c 	andeq	r0, r0, ip
 8001ad8:	47545250 			; <UNDEFINED> instruction: 0x47545250
 8001adc:	00000000 	andeq	r0, r0, r0
 8001ae0:	08001ad8 	stmdaeq	r0, {r3, r4, r6, r7, r9, fp, ip}
 8001ae4:	00000040 	andeq	r0, r0, r0, asr #32
 8001ae8:	0000000c 	andeq	r0, r0, ip
 8001aec:	46545250 			; <UNDEFINED> instruction: 0x46545250
 8001af0:	00000000 	andeq	r0, r0, r0
 8001af4:	08001aec 	stmdaeq	r0, {r2, r3, r5, r6, r7, r9, fp, ip}
 8001af8:	0000003f 	andeq	r0, r0, pc, lsr r0
 8001afc:	0000000c 	andeq	r0, r0, ip
 8001b00:	45545250 	ldrbmi	r5, [r4, #-592]	; 0xfffffdb0
 8001b04:	00000000 	andeq	r0, r0, r0
 8001b08:	08001b00 	stmdaeq	r0, {r8, r9, fp, ip}
 8001b0c:	0000003e 	andeq	r0, r0, lr, lsr r0
 8001b10:	0000000c 	andeq	r0, r0, ip
 8001b14:	44545250 	ldrbmi	r5, [r4], #-592	; 0xfffffdb0
 8001b18:	00000000 	andeq	r0, r0, r0
 8001b1c:	08001b14 	stmdaeq	r0, {r2, r4, r8, r9, fp, ip}
 8001b20:	0000003d 	andeq	r0, r0, sp, lsr r0
 8001b24:	0000000c 	andeq	r0, r0, ip
 8001b28:	43545250 	cmpmi	r4, #80, 4
 8001b2c:	00000000 	andeq	r0, r0, r0
 8001b30:	08001b28 	stmdaeq	r0, {r3, r5, r8, r9, fp, ip}
 8001b34:	0000003c 	andeq	r0, r0, ip, lsr r0
 8001b38:	0000000c 	andeq	r0, r0, ip
 8001b3c:	42545250 	subsmi	r5, r4, #80, 4
 8001b40:	00000000 	andeq	r0, r0, r0
 8001b44:	08001b3c 	stmdaeq	r0, {r2, r3, r4, r5, r8, r9, fp, ip}
 8001b48:	0000003b 	andeq	r0, r0, fp, lsr r0
 8001b4c:	0000000c 	andeq	r0, r0, ip
 8001b50:	41545250 	cmpmi	r4, r0, asr r2
 8001b54:	00000000 	andeq	r0, r0, r0
 8001b58:	08001b50 	stmdaeq	r0, {r4, r6, r8, r9, fp, ip}
 8001b5c:	0000003a 	andeq	r0, r0, sl, lsr r0
 8001b60:	0000000b 	andeq	r0, r0, fp
 8001b64:	4e495250 	mcrmi	2, 2, r5, cr9, cr0, {2}
 8001b68:	00000054 	andeq	r0, r0, r4, asr r0
 8001b6c:	08001b64 	stmdaeq	r0, {r2, r5, r6, r8, r9, fp, ip}
 8001b70:	00000039 	andeq	r0, r0, r9, lsr r0
 8001b74:	0000000c 	andeq	r0, r0, ip
 8001b78:	54554f50 	ldrbpl	r4, [r5], #-3920	; 0xfffff0b0
 8001b7c:	00000000 	andeq	r0, r0, r0
 8001b80:	08001b78 	stmdaeq	r0, {r3, r4, r5, r6, r8, r9, fp, ip}
 8001b84:	00000038 	andeq	r0, r0, r8, lsr r0
 8001b88:	0000000b 	andeq	r0, r0, fp
 8001b8c:	454b4f50 	strbmi	r4, [fp, #-3920]	; 0xfffff0b0
 8001b90:	00000000 	andeq	r0, r0, r0
 8001b94:	08001b8c 	stmdaeq	r0, {r2, r3, r7, r8, r9, fp, ip}
 8001b98:	00000035 	andeq	r0, r0, r5, lsr r0
 8001b9c:	0000000b 	andeq	r0, r0, fp
 8001ba0:	444f4d50 	strbmi	r4, [pc], #-3408	; 8001ba8 <kword_end+0x3a8>
 8001ba4:	00000045 	andeq	r0, r0, r5, asr #32
 8001ba8:	08001ba0 	stmdaeq	r0, {r5, r7, r8, r9, fp, ip}
 8001bac:	00000037 	andeq	r0, r0, r7, lsr r0
 8001bb0:	0000000c 	andeq	r0, r0, ip
 8001bb4:	504e4950 	subpl	r4, lr, r0, asr r9
 8001bb8:	00000000 	andeq	r0, r0, r0
 8001bbc:	08001bb4 	stmdaeq	r0, {r2, r4, r5, r7, r8, r9, fp, ip}
 8001bc0:	00000036 	andeq	r0, r0, r6, lsr r0
 8001bc4:	0000000c 	andeq	r0, r0, ip
 8001bc8:	4b454550 	blmi	9153110 <FLASH_HIDDEN_END+0x1133110>
 8001bcc:	00000000 	andeq	r0, r0, r0
 8001bd0:	08001bc8 	stmdaeq	r0, {r3, r6, r7, r8, r9, fp, ip}
 8001bd4:	00000034 	andeq	r0, r0, r4, lsr r0
 8001bd8:	0000000b 	andeq	r0, r0, fp
 8001bdc:	53554150 	cmppl	r5, #80, 2
 8001be0:	00000045 	andeq	r0, r0, r5, asr #32
 8001be4:	08001bdc 	stmdaeq	r0, {r2, r3, r4, r6, r7, r8, r9, fp, ip}
 8001be8:	00000033 	andeq	r0, r0, r3, lsr r0
 8001bec:	0000000c 	andeq	r0, r0, ip
 8001bf0:	00444150 	subeq	r4, r4, r0, asr r1
 8001bf4:	08001bf0 	stmdaeq	r0, {r4, r5, r6, r7, r8, r9, fp, ip}
 8001bf8:	00000032 	andeq	r0, r0, r2, lsr r0
 8001bfc:	0000000c 	andeq	r0, r0, ip
 8001c00:	0000524f 	andeq	r5, r0, pc, asr #4
 8001c04:	08001c00 	stmdaeq	r0, {sl, fp, ip}
 8001c08:	00000031 	andeq	r0, r0, r1, lsr r0
 8001c0c:	0000000c 	andeq	r0, r0, ip
 8001c10:	0052444f 	subseq	r4, r2, pc, asr #8
 8001c14:	08001c10 	stmdaeq	r0, {r4, sl, fp, ip}
 8001c18:	00000030 	andeq	r0, r0, r0, lsr r0
 8001c1c:	0000000c 	andeq	r0, r0, ip
 8001c20:	00544f4e 	subseq	r4, r4, lr, asr #30
 8001c24:	08001c20 	stmdaeq	r0, {r5, sl, fp, ip}
 8001c28:	0000002e 	andeq	r0, r0, lr, lsr #32
 8001c2c:	0000000b 	andeq	r0, r0, fp
 8001c30:	5458454e 	ldrbpl	r4, [r8], #-1358	; 0xfffffab2
 8001c34:	00000000 	andeq	r0, r0, r0
 8001c38:	08001c30 	stmdaeq	r0, {r4, r5, sl, fp, ip}
 8001c3c:	0000002f 	andeq	r0, r0, pc, lsr #32
 8001c40:	0000000b 	andeq	r0, r0, fp
 8001c44:	0057454e 	subseq	r4, r7, lr, asr #10
 8001c48:	08001c44 	stmdaeq	r0, {r2, r6, sl, fp, ip}
 8001c4c:	0000002d 	andeq	r0, r0, sp, lsr #32
 8001c50:	0000000c 	andeq	r0, r0, ip
 8001c54:	444c554d 	strbmi	r5, [ip], #-1357	; 0xfffffab3
 8001c58:	00005649 	andeq	r5, r0, r9, asr #12
 8001c5c:	08001c54 	stmdaeq	r0, {r2, r4, r6, sl, fp, ip}
 8001c60:	0000002c 	andeq	r0, r0, ip, lsr #32
 8001c64:	0000000c 	andeq	r0, r0, ip
 8001c68:	4948534c 	stmdbmi	r8, {r2, r3, r6, r8, r9, ip, lr}^
 8001c6c:	00005446 	andeq	r5, r0, r6, asr #8
 8001c70:	08001c68 	stmdaeq	r0, {r3, r5, r6, sl, fp, ip}
 8001c74:	0000002b 	andeq	r0, r0, fp, lsr #32
 8001c78:	0000000c 	andeq	r0, r0, ip
 8001c7c:	00474f4c 	subeq	r4, r7, ip, asr #30
 8001c80:	08001c7c 	stmdaeq	r0, {r2, r3, r4, r5, r6, sl, fp, ip}
 8001c84:	0000002a 	andeq	r0, r0, sl, lsr #32
 8001c88:	0000000b 	andeq	r0, r0, fp
 8001c8c:	44414f4c 	strbmi	r4, [r1], #-3916	; 0xfffff0b4
 8001c90:	00000000 	andeq	r0, r0, r0
 8001c94:	08001c8c 	stmdaeq	r0, {r2, r3, r7, sl, fp, ip}
 8001c98:	00000029 	andeq	r0, r0, r9, lsr #32
 8001c9c:	0000000b 	andeq	r0, r0, fp
 8001ca0:	5453494c 	ldrbpl	r4, [r3], #-2380	; 0xfffff6b4
 8001ca4:	00000000 	andeq	r0, r0, r0
 8001ca8:	08001ca0 	stmdaeq	r0, {r5, r7, sl, fp, ip}
 8001cac:	00000028 	andeq	r0, r0, r8, lsr #32
 8001cb0:	0000000b 	andeq	r0, r0, fp
 8001cb4:	0054454c 	subseq	r4, r4, ip, asr #10
 8001cb8:	08001cb4 	stmdaeq	r0, {r2, r4, r5, r7, sl, fp, ip}
 8001cbc:	00000027 	andeq	r0, r0, r7, lsr #32
 8001cc0:	0000000c 	andeq	r0, r0, ip
 8001cc4:	0059454b 	subseq	r4, r9, fp, asr #10
 8001cc8:	08001cc4 	stmdaeq	r0, {r2, r6, r7, sl, fp, ip}
 8001ccc:	00000026 	andeq	r0, r0, r6, lsr #32
 8001cd0:	0000000b 	andeq	r0, r0, fp
 8001cd4:	47445749 	strbmi	r5, [r4, -r9, asr #14]
 8001cd8:	00464552 	subeq	r4, r6, r2, asr r5
 8001cdc:	08001cd4 	stmdaeq	r0, {r2, r4, r6, r7, sl, fp, ip}
 8001ce0:	00000025 	andeq	r0, r0, r5, lsr #32
 8001ce4:	0000000b 	andeq	r0, r0, fp
 8001ce8:	47445749 	strbmi	r5, [r4, -r9, asr #14]
 8001cec:	00004e45 	andeq	r4, r0, r5, asr #28
 8001cf0:	08001ce8 	stmdaeq	r0, {r3, r5, r6, r7, sl, fp, ip}
 8001cf4:	00000024 	andeq	r0, r0, r4, lsr #32
 8001cf8:	0000000c 	andeq	r0, r0, ip
 8001cfc:	45564e49 	ldrbmi	r4, [r6, #-3657]	; 0xfffff1b7
 8001d00:	00005452 	andeq	r5, r0, r2, asr r4
 8001d04:	08001cfc 	stmdaeq	r0, {r2, r3, r4, r5, r6, r7, sl, fp, ip}
 8001d08:	00000023 	andeq	r0, r0, r3, lsr #32
 8001d0c:	0000000b 	andeq	r0, r0, fp
 8001d10:	55504e49 	ldrbpl	r4, [r0, #-3657]	; 0xfffff1b7
 8001d14:	00000054 	andeq	r0, r0, r4, asr r0
 8001d18:	08001d10 	stmdaeq	r0, {r4, r8, sl, fp, ip}
 8001d1c:	00000022 	andeq	r0, r0, r2, lsr #32
 8001d20:	0000000b 	andeq	r0, r0, fp
 8001d24:	00004649 	andeq	r4, r0, r9, asr #12
 8001d28:	08001d24 	stmdaeq	r0, {r2, r5, r8, sl, fp, ip}
 8001d2c:	00000021 	andeq	r0, r0, r1, lsr #32
 8001d30:	0000000c 	andeq	r0, r0, ip
 8001d34:	00524449 	subseq	r4, r2, r9, asr #8
 8001d38:	08001d34 	stmdaeq	r0, {r2, r4, r5, r8, sl, fp, ip}
 8001d3c:	00000020 	andeq	r0, r0, r0, lsr #32
 8001d40:	0000000b 	andeq	r0, r0, fp
 8001d44:	00584548 	subseq	r4, r8, r8, asr #10
 8001d48:	08001d44 	stmdaeq	r0, {r2, r6, r8, sl, fp, ip}
 8001d4c:	0000001f 	andeq	r0, r0, pc, lsl r0
 8001d50:	0000000c 	andeq	r0, r0, ip
 8001d54:	4f495047 	svcmi	0x00495047
 8001d58:	00000000 	andeq	r0, r0, r0
 8001d5c:	08001d54 	stmdaeq	r0, {r2, r4, r6, r8, sl, fp, ip}
 8001d60:	0000001e 	andeq	r0, r0, lr, lsl r0
 8001d64:	0000000b 	andeq	r0, r0, fp
 8001d68:	4f544f47 	svcmi	0x00544f47
 8001d6c:	00000000 	andeq	r0, r0, r0
 8001d70:	08001d68 	stmdaeq	r0, {r3, r5, r6, r8, sl, fp, ip}
 8001d74:	0000001d 	andeq	r0, r0, sp, lsl r0
 8001d78:	0000000b 	andeq	r0, r0, fp
 8001d7c:	55534f47 	ldrbpl	r4, [r3, #-3911]	; 0xfffff0b9
 8001d80:	00000042 	andeq	r0, r0, r2, asr #32
 8001d84:	08001d7c 	stmdaeq	r0, {r2, r3, r4, r5, r6, r8, sl, fp, ip}
 8001d88:	0000001c 	andeq	r0, r0, ip, lsl r0
 8001d8c:	0000000b 	andeq	r0, r0, fp
 8001d90:	47524f46 	ldrbmi	r4, [r2, -r6, asr #30]
 8001d94:	00005445 	andeq	r5, r0, r5, asr #8
 8001d98:	08001d90 	stmdaeq	r0, {r4, r7, r8, sl, fp, ip}
 8001d9c:	0000001b 	andeq	r0, r0, fp, lsl r0
 8001da0:	0000000b 	andeq	r0, r0, fp
 8001da4:	00524f46 	subseq	r4, r2, r6, asr #30
 8001da8:	08001da4 	stmdaeq	r0, {r2, r5, r7, r8, sl, fp, ip}
 8001dac:	0000001a 	andeq	r0, r0, sl, lsl r0
 8001db0:	0000000b 	andeq	r0, r0, fp
 8001db4:	55504346 	ldrbpl	r4, [r0, #-838]	; 0xfffffcba
 8001db8:	00000000 	andeq	r0, r0, r0
 8001dbc:	08001db4 	stmdaeq	r0, {r2, r4, r5, r7, r8, sl, fp, ip}
 8001dc0:	00000018 	andeq	r0, r0, r8, lsl r0
 8001dc4:	0000000b 	andeq	r0, r0, fp
 8001dc8:	00444e45 	subeq	r4, r4, r5, asr #28
 8001dcc:	08001dc8 	stmdaeq	r0, {r3, r6, r7, r8, sl, fp, ip}
 8001dd0:	00000019 	andeq	r0, r0, r9, lsl r0
 8001dd4:	0000000c 	andeq	r0, r0, ip
 8001dd8:	52504545 	subspl	r4, r0, #289406976	; 0x11400000
 8001ddc:	00004d4f 	andeq	r4, r0, pc, asr #26
 8001de0:	08001dd8 	stmdaeq	r0, {r3, r4, r6, r7, r8, sl, fp, ip}
 8001de4:	00000017 	andeq	r0, r0, r7, lsl r0
 8001de8:	0000000b 	andeq	r0, r0, fp
 8001dec:	49525744 	ldmdbmi	r2, {r2, r6, r8, r9, sl, ip, lr}^
 8001df0:	00004554 	andeq	r4, r0, r4, asr r5
 8001df4:	08001dec 	stmdaeq	r0, {r2, r3, r5, r6, r7, r8, sl, fp, ip}
 8001df8:	00000016 	andeq	r0, r0, r6, lsl r0
 8001dfc:	0000000c 	andeq	r0, r0, ip
 8001e00:	41455244 	cmpmi	r5, r4, asr #4
 8001e04:	00000044 	andeq	r0, r0, r4, asr #32
 8001e08:	08001e00 	stmdaeq	r0, {r9, sl, fp, ip}
 8001e0c:	00000015 	andeq	r0, r0, r5, lsl r0
 8001e10:	0000000b 	andeq	r0, r0, fp
 8001e14:	00004f44 	andeq	r4, r0, r4, asr #30
 8001e18:	08001e14 	stmdaeq	r0, {r2, r4, r9, sl, fp, ip}
 8001e1c:	00000014 	andeq	r0, r0, r4, lsl r0
 8001e20:	0000000b 	andeq	r0, r0, fp
 8001e24:	00524944 	subseq	r4, r2, r4, asr #18
 8001e28:	08001e24 	stmdaeq	r0, {r2, r5, r9, sl, fp, ip}
 8001e2c:	00000013 	andeq	r0, r0, r3, lsl r0
 8001e30:	0000000b 	andeq	r0, r0, fp
 8001e34:	00434544 	subeq	r4, r3, r4, asr #10
 8001e38:	08001e34 	stmdaeq	r0, {r2, r4, r5, r9, sl, fp, ip}
 8001e3c:	00000012 	andeq	r0, r0, r2, lsl r0
 8001e40:	0000000c 	andeq	r0, r0, ip
 8001e44:	00524444 	subseq	r4, r2, r4, asr #8
 8001e48:	08001e44 	stmdaeq	r0, {r2, r6, r9, sl, fp, ip}
 8001e4c:	00000011 	andeq	r0, r0, r1, lsl r0
 8001e50:	0000000b 	andeq	r0, r0, fp
 8001e54:	41544144 	cmpmi	r4, r4, asr #2
 8001e58:	00004e4c 	andeq	r4, r0, ip, asr #28
 8001e5c:	08001e54 	stmdaeq	r0, {r2, r4, r6, r9, sl, fp, ip}
 8001e60:	00000010 	andeq	r0, r0, r0, lsl r0
 8001e64:	0000000b 	andeq	r0, r0, fp
 8001e68:	41544144 	cmpmi	r4, r4, asr #2
 8001e6c:	00000000 	andeq	r0, r0, r0
 8001e70:	08001e68 	stmdaeq	r0, {r3, r5, r6, r9, sl, fp, ip}
 8001e74:	0000000f 	andeq	r0, r0, pc
 8001e78:	0000000c 	andeq	r0, r0, ip
 8001e7c:	004c5243 	subeq	r5, ip, r3, asr #4
 8001e80:	08001e7c 	stmdaeq	r0, {r2, r3, r4, r5, r6, r9, sl, fp, ip}
 8001e84:	0000000e 	andeq	r0, r0, lr
 8001e88:	0000000c 	andeq	r0, r0, ip
 8001e8c:	00485243 	subeq	r5, r8, r3, asr #4
 8001e90:	08001e8c 	stmdaeq	r0, {r2, r3, r7, r9, sl, fp, ip}
 8001e94:	0000000d 	andeq	r0, r0, sp
 8001e98:	0000000d 	andeq	r0, r0, sp
 8001e9c:	52414843 	subpl	r4, r1, #4390912	; 0x430000
 8001ea0:	00000000 	andeq	r0, r0, r0
 8001ea4:	08001e9c 	stmdaeq	r0, {r2, r3, r4, r7, r9, sl, fp, ip}
 8001ea8:	0000000c 	andeq	r0, r0, ip
 8001eac:	0000000b 	andeq	r0, r0, fp
 8001eb0:	00455942 	subeq	r5, r5, r2, asr #18
 8001eb4:	08001eb0 	stmdaeq	r0, {r4, r5, r7, r9, sl, fp, ip}
 8001eb8:	0000000b 	andeq	r0, r0, fp
 8001ebc:	0000000b 	andeq	r0, r0, fp
 8001ec0:	474f5442 	strbmi	r5, [pc, -r2, asr #8]
 8001ec4:	0000004c 	andeq	r0, r0, ip, asr #32
 8001ec8:	08001ec0 	stmdaeq	r0, {r6, r7, r9, sl, fp, ip}
 8001ecc:	0000000a 	andeq	r0, r0, sl
 8001ed0:	0000000c 	andeq	r0, r0, ip
 8001ed4:	53455442 	movtpl	r5, #21570	; 0x5442
 8001ed8:	00000054 	andeq	r0, r0, r4, asr r0
 8001edc:	08001ed4 	stmdaeq	r0, {r2, r4, r6, r7, r9, sl, fp, ip}
 8001ee0:	00000009 	andeq	r0, r0, r9
 8001ee4:	0000000b 	andeq	r0, r0, fp
 8001ee8:	54455342 	strbpl	r5, [r5], #-834	; 0xfffffcbe
 8001eec:	00000000 	andeq	r0, r0, r0
 8001ef0:	08001ee8 	stmdaeq	r0, {r3, r5, r6, r7, r9, sl, fp, ip}
 8001ef4:	00000008 	andeq	r0, r0, r8
 8001ef8:	0000000b 	andeq	r0, r0, fp
 8001efc:	53455242 	movtpl	r5, #21058	; 0x5242
 8001f00:	00000000 	andeq	r0, r0, r0
 8001f04:	08001efc 	stmdaeq	r0, {r2, r3, r4, r5, r6, r7, r9, sl, fp, ip}
 8001f08:	00000007 	andeq	r0, r0, r7
 8001f0c:	0000000c 	andeq	r0, r0, ip
 8001f10:	00544942 	subseq	r4, r4, r2, asr #18
 8001f14:	08001f10 	stmdaeq	r0, {r4, r8, r9, sl, fp, ip}
 8001f18:	00000006 	andeq	r0, r0, r6
 8001f1c:	0000000b 	andeq	r0, r0, fp
 8001f20:	00555741 	subseq	r5, r5, r1, asr #14
 8001f24:	08001f20 	stmdaeq	r0, {r5, r8, r9, sl, fp, ip}
 8001f28:	00000005 	andeq	r0, r0, r5
 8001f2c:	0000000b 	andeq	r0, r0, fp
 8001f30:	4f545541 	svcmi	0x00545541
 8001f34:	004e5552 	subeq	r5, lr, r2, asr r5
 8001f38:	08001f30 	stmdaeq	r0, {r4, r5, r8, r9, sl, fp, ip}
 8001f3c:	00000004 	andeq	r0, r0, r4
 8001f40:	0000000c 	andeq	r0, r0, ip
 8001f44:	00435341 	subeq	r5, r3, r1, asr #6
 8001f48:	08001f44 	stmdaeq	r0, {r2, r6, r8, r9, sl, fp, ip}
 8001f4c:	00000003 	andeq	r0, r0, r3
 8001f50:	0000000c 	andeq	r0, r0, ip
 8001f54:	00444e41 	subeq	r4, r4, r1, asr #28
 8001f58:	08001f54 	stmdaeq	r0, {r2, r4, r6, r8, r9, sl, fp, ip}
 8001f5c:	00000002 	andeq	r0, r0, r2
 8001f60:	0000000c 	andeq	r0, r0, ip
 8001f64:	52434441 	subpl	r4, r3, #1090519040	; 0x41000000
 8001f68:	00444145 	subeq	r4, r4, r5, asr #2
 8001f6c:	08001f64 	stmdaeq	r0, {r2, r5, r6, r8, r9, sl, fp, ip}
 8001f70:	00000001 	andeq	r0, r0, r1
 8001f74:	0000000b 	andeq	r0, r0, fp
 8001f78:	4f434441 	svcmi	0x00434441
 8001f7c:	0000004e 	andeq	r0, r0, lr, asr #32

08001f80 <first_link>:
 8001f80:	08001f78 	stmdaeq	r0, {r3, r4, r5, r6, r8, r9, sl, fp, ip}
 8001f84:	00000000 	andeq	r0, r0, r0
 8001f88:	 	movtpl	r4, #8460	; 0x210c

08001f89 <LINK>:
 8001f89:	00534241 	subseq	r4, r3, r1, asr #4
 8001f8d:	 	stccs	0, cr0, [r0, #-0]

08001f90 <fn_table>:
 8001f90:	0800212d 	stmdaeq	r0, {r0, r2, r3, r5, r8, sp}
 8001f94:	08002155 	stmdaeq	r0, {r0, r2, r4, r6, r8, sp}
 8001f98:	08002159 	stmdaeq	r0, {r0, r3, r4, r6, r8, sp}
 8001f9c:	0800215d 	stmdaeq	r0, {r0, r2, r3, r4, r6, r8, sp}
 8001fa0:	08002161 	stmdaeq	r0, {r0, r5, r6, r8, sp}
 8001fa4:	08002165 	stmdaeq	r0, {r0, r2, r5, r6, r8, sp}
 8001fa8:	08002169 	stmdaeq	r0, {r0, r3, r5, r6, r8, sp}
 8001fac:	0800216d 	stmdaeq	r0, {r0, r2, r3, r5, r6, r8, sp}
 8001fb0:	08002171 	stmdaeq	r0, {r0, r4, r5, r6, r8, sp}
 8001fb4:	0800219d 	stmdaeq	r0, {r0, r2, r3, r4, r7, r8, sp}
 8001fb8:	080021ed 	stmdaeq	r0, {r0, r2, r3, r5, r6, r7, r8, sp}
 8001fbc:	080021c5 	stmdaeq	r0, {r0, r2, r6, r7, r8, sp}
 8001fc0:	080021f1 	stmdaeq	r0, {r0, r4, r5, r6, r7, r8, sp}
 8001fc4:	080021f5 	stmdaeq	r0, {r0, r2, r4, r5, r6, r7, r8, sp}
 8001fc8:	080021f9 	stmdaeq	r0, {r0, r3, r4, r5, r6, r7, r8, sp}
 8001fcc:	080021fd 	stmdaeq	r0, {r0, r2, r3, r4, r5, r6, r7, r8, sp}
 8001fd0:	08002201 	stmdaeq	r0, {r0, r9, sp}
 8001fd4:	08002205 	stmdaeq	r0, {r0, r2, r9, sp}
 8001fd8:	08002209 	stmdaeq	r0, {r0, r3, r9, sp}
 8001fdc:	0800220d 	stmdaeq	r0, {r0, r2, r3, r9, sp}
 8001fe0:	08002211 	stmdaeq	r0, {r0, r4, r9, sp}
 8001fe4:	08002215 	stmdaeq	r0, {r0, r2, r4, r9, sp}
 8001fe8:	08002219 	stmdaeq	r0, {r0, r3, r4, r9, sp}
 8001fec:	0800221d 	stmdaeq	r0, {r0, r2, r3, r4, r9, sp}
 8001ff0:	08002221 	stmdaeq	r0, {r0, r5, r9, sp}
 8001ff4:	08002225 	stmdaeq	r0, {r0, r2, r5, r9, sp}
 8001ff8:	08002229 	stmdaeq	r0, {r0, r3, r5, r9, sp}
 8001ffc:	0800222d 	stmdaeq	r0, {r0, r2, r3, r5, r9, sp}
 8002000:	08002231 	stmdaeq	r0, {r0, r4, r5, r9, sp}
 8002004:	08002235 	stmdaeq	r0, {r0, r2, r4, r5, r9, sp}
 8002008:	08002239 	stmdaeq	r0, {r0, r3, r4, r5, r9, sp}
 800200c:	0800223d 	stmdaeq	r0, {r0, r2, r3, r4, r5, r9, sp}
 8002010:	08002241 	stmdaeq	r0, {r0, r6, r9, sp}
 8002014:	08002245 	stmdaeq	r0, {r0, r2, r6, r9, sp}
 8002018:	08002249 	stmdaeq	r0, {r0, r3, r6, r9, sp}
 800201c:	0800224d 	stmdaeq	r0, {r0, r2, r3, r6, r9, sp}
 8002020:	08002251 	stmdaeq	r0, {r0, r4, r6, r9, sp}
 8002024:	08002255 	stmdaeq	r0, {r0, r2, r4, r6, r9, sp}
 8002028:	08002259 	stmdaeq	r0, {r0, r3, r4, r6, r9, sp}
 800202c:	0800225d 	stmdaeq	r0, {r0, r2, r3, r4, r6, r9, sp}
 8002030:	08002261 	stmdaeq	r0, {r0, r5, r6, r9, sp}
 8002034:	080022b9 	stmdaeq	r0, {r0, r3, r4, r5, r7, r9, sp}
 8002038:	080022bd 	stmdaeq	r0, {r0, r2, r3, r4, r5, r7, r9, sp}
 800203c:	080022c1 	stmdaeq	r0, {r0, r6, r7, r9, sp}
 8002040:	080022c5 	stmdaeq	r0, {r0, r2, r6, r7, r9, sp}
 8002044:	080022c9 	stmdaeq	r0, {r0, r3, r6, r7, r9, sp}
 8002048:	080022cd 	stmdaeq	r0, {r0, r2, r3, r6, r7, r9, sp}
 800204c:	080022d1 	stmdaeq	r0, {r0, r4, r6, r7, r9, sp}
 8002050:	080022d5 	stmdaeq	r0, {r0, r2, r4, r6, r7, r9, sp}
 8002054:	080022d9 	stmdaeq	r0, {r0, r3, r4, r6, r7, r9, sp}
 8002058:	080022dd 	stmdaeq	r0, {r0, r2, r3, r4, r6, r7, r9, sp}
 800205c:	080022e1 	stmdaeq	r0, {r0, r5, r6, r7, r9, sp}
 8002060:	080022e5 	stmdaeq	r0, {r0, r2, r5, r6, r7, r9, sp}
 8002064:	080022e9 	stmdaeq	r0, {r0, r3, r5, r6, r7, r9, sp}
 8002068:	080022ed 	stmdaeq	r0, {r0, r2, r3, r5, r6, r7, r9, sp}
 800206c:	080022f1 	stmdaeq	r0, {r0, r4, r5, r6, r7, r9, sp}
 8002070:	080022f5 	stmdaeq	r0, {r0, r2, r4, r5, r6, r7, r9, sp}
 8002074:	080022f9 	stmdaeq	r0, {r0, r3, r4, r5, r6, r7, r9, sp}
 8002078:	080022fd 	stmdaeq	r0, {r0, r2, r3, r4, r5, r6, r7, r9, sp}
 800207c:	08002301 	stmdaeq	r0, {r0, r8, r9, sp}
 8002080:	08002305 	stmdaeq	r0, {r0, r2, r8, r9, sp}
 8002084:	08002309 	stmdaeq	r0, {r0, r3, r8, r9, sp}
 8002088:	0800230d 	stmdaeq	r0, {r0, r2, r3, r8, r9, sp}
 800208c:	08002311 	stmdaeq	r0, {r0, r4, r8, r9, sp}
 8002090:	08002315 	stmdaeq	r0, {r0, r2, r4, r8, r9, sp}
 8002094:	08002319 	stmdaeq	r0, {r0, r3, r4, r8, r9, sp}
 8002098:	0800231d 	stmdaeq	r0, {r0, r2, r3, r4, r8, r9, sp}
 800209c:	08002321 	stmdaeq	r0, {r0, r5, r8, r9, sp}
 80020a0:	08002325 	stmdaeq	r0, {r0, r2, r5, r8, r9, sp}
 80020a4:	08002329 	stmdaeq	r0, {r0, r3, r5, r8, r9, sp}
 80020a8:	080012d1 	stmdaeq	r0, {r0, r4, r6, r7, r9, ip}
 80020ac:	0800232d 	stmdaeq	r0, {r0, r2, r3, r5, r8, r9, sp}
 80020b0:	08002331 	stmdaeq	r0, {r0, r4, r5, r8, r9, sp}
 80020b4:	08002335 	stmdaeq	r0, {r0, r2, r4, r5, r8, r9, sp}
 80020b8:	08002339 	stmdaeq	r0, {r0, r3, r4, r5, r8, r9, sp}
 80020bc:	0800233d 	stmdaeq	r0, {r0, r2, r3, r4, r5, r8, r9, sp}
 80020c0:	08002341 	stmdaeq	r0, {r0, r6, r8, r9, sp}
 80020c4:	08002345 	stmdaeq	r0, {r0, r2, r6, r8, r9, sp}
 80020c8:	08002349 	stmdaeq	r0, {r0, r3, r6, r8, r9, sp}
 80020cc:	0800234d 	stmdaeq	r0, {r0, r2, r3, r6, r8, r9, sp}
 80020d0:	08002351 	stmdaeq	r0, {r0, r4, r6, r8, r9, sp}
 80020d4:	08002355 	stmdaeq	r0, {r0, r2, r4, r6, r8, r9, sp}
 80020d8:	08002359 	stmdaeq	r0, {r0, r3, r4, r6, r8, r9, sp}
 80020dc:	0800235d 	stmdaeq	r0, {r0, r2, r3, r4, r6, r8, r9, sp}
 80020e0:	08002361 	stmdaeq	r0, {r0, r5, r6, r8, r9, sp}
 80020e4:	08002365 	stmdaeq	r0, {r0, r2, r5, r6, r8, r9, sp}
 80020e8:	08002369 	stmdaeq	r0, {r0, r3, r5, r6, r8, r9, sp}
 80020ec:	0800236d 	stmdaeq	r0, {r0, r2, r3, r5, r6, r8, r9, sp}
 80020f0:	08002371 	stmdaeq	r0, {r0, r4, r5, r6, r8, r9, sp}
 80020f4:	08002375 	stmdaeq	r0, {r0, r2, r4, r5, r6, r8, r9, sp}
 80020f8:	08002379 	stmdaeq	r0, {r0, r3, r4, r5, r6, r8, r9, sp}
 80020fc:	0800237d 	stmdaeq	r0, {r0, r2, r3, r4, r5, r6, r8, r9, sp}
 8002100:	08002381 	stmdaeq	r0, {r0, r7, r8, r9, sp}
 8002104:	08002385 	stmdaeq	r0, {r0, r2, r7, r8, r9, sp}
 8002108:	08002389 	stmdaeq	r0, {r0, r3, r7, r8, r9, sp}
 800210c:	0800238d 	stmdaeq	r0, {r0, r2, r3, r7, r8, r9, sp}
 8002110:	08002391 	stmdaeq	r0, {r0, r4, r7, r8, r9, sp}
 8002114:	08002395 	stmdaeq	r0, {r0, r2, r4, r7, r8, r9, sp}
 8002118:	08002399 	stmdaeq	r0, {r0, r3, r4, r7, r8, r9, sp}
 800211c:	0800239d 	stmdaeq	r0, {r0, r2, r3, r4, r7, r8, r9, sp}
 8002120:	080023a1 	stmdaeq	r0, {r0, r5, r7, r8, r9, sp}
 8002124:	080023a5 	stmdaeq	r0, {r0, r2, r5, r7, r8, r9, sp}
 8002128:	00000000 	andeq	r0, r0, r0

0800212c <abs>:
 800212c:	b500      	push	{lr}
 800212e:	f7ff f867 	bl	8001200 <arg_list>
 8002132:	f85d eb04 	ldr.w	lr, [sp], #4
 8002136:	2801      	cmp	r0, #1
 8002138:	d001      	beq.n	800213e <abs+0x12>
 800213a:	f7ff b82f 	b.w	800119c <syntax_error>
 800213e:	f85c 1b04 	ldr.w	r1, [ip], #4
 8002142:	f011 4f00 	tst.w	r1, #2147483648	; 0x80000000
 8002146:	d001      	beq.n	800214c <abs+0x20>
 8002148:	f1c1 0100 	rsb	r1, r1, #0
 800214c:	f04f 000f 	mov.w	r0, #15
 8002150:	4770      	bx	lr
	...

08002154 <power_adc>:
 8002154:	4770      	bx	lr
	...

08002158 <analog_read>:
 8002158:	4770      	bx	lr
	...

0800215c <bit_and>:
 800215c:	4770      	bx	lr
	...

08002160 <ascii>:
 8002160:	4770      	bx	lr
	...

08002164 <autorun>:
 8002164:	4770      	bx	lr
	...

08002168 <awu>:
 8002168:	4770      	bx	lr
	...

0800216c <bitmask>:
 800216c:	4770      	bx	lr
	...

08002170 <bit_reset>:
 8002170:	b500      	push	{lr}
 8002172:	f7ff f845 	bl	8001200 <arg_list>
 8002176:	f85d eb04 	ldr.w	lr, [sp], #4
 800217a:	2802      	cmp	r0, #2
 800217c:	d001      	beq.n	8002182 <bit_reset+0x12>
 800217e:	f7ff b80d 	b.w	800119c <syntax_error>
 8002182:	f85c 1b04 	ldr.w	r1, [ip], #4
 8002186:	f85c 0b04 	ldr.w	r0, [ip], #4
 800218a:	f8d0 9000 	ldr.w	r9, [r0]
 800218e:	f081 31ff 	eor.w	r1, r1, #4294967295	; 0xffffffff
 8002192:	ea01 0109 	and.w	r1, r1, r9
 8002196:	6001      	str	r1, [r0, #0]
 8002198:	f7ff b922 	b.w	80013e0 <interp_loop>

0800219c <bit_set>:
 800219c:	b500      	push	{lr}
 800219e:	f7ff f82f 	bl	8001200 <arg_list>
 80021a2:	f85d eb04 	ldr.w	lr, [sp], #4
 80021a6:	2802      	cmp	r0, #2
 80021a8:	d001      	beq.n	80021ae <bit_set+0x12>
 80021aa:	f7fe bff7 	b.w	800119c <syntax_error>
 80021ae:	f85c 1b04 	ldr.w	r1, [ip], #4
 80021b2:	f85c 0b04 	ldr.w	r0, [ip], #4
 80021b6:	f8d0 9000 	ldr.w	r9, [r0]
 80021ba:	ea41 0109 	orr.w	r1, r1, r9
 80021be:	6001      	str	r1, [r0, #0]
 80021c0:	f7ff b90e 	b.w	80013e0 <interp_loop>

080021c4 <bit_toggle>:
 80021c4:	b500      	push	{lr}
 80021c6:	f7ff f81b 	bl	8001200 <arg_list>
 80021ca:	f85d eb04 	ldr.w	lr, [sp], #4
 80021ce:	2802      	cmp	r0, #2
 80021d0:	d001      	beq.n	80021d6 <bit_toggle+0x12>
 80021d2:	f7fe bfe3 	b.w	800119c <syntax_error>
 80021d6:	f85c 1b04 	ldr.w	r1, [ip], #4
 80021da:	f85c 0b04 	ldr.w	r0, [ip], #4
 80021de:	f8d0 9000 	ldr.w	r9, [r0]
 80021e2:	ea81 0109 	eor.w	r1, r1, r9
 80021e6:	6001      	str	r1, [r0, #0]
 80021e8:	f7ff b8fa 	b.w	80013e0 <interp_loop>

080021ec <bit_test>:
 80021ec:	f7ff b8f8 	b.w	80013e0 <interp_loop>

080021f0 <bye>:
 80021f0:	f7ff b8f6 	b.w	80013e0 <interp_loop>

080021f4 <char>:
 80021f4:	f7ff b8f4 	b.w	80013e0 <interp_loop>

080021f8 <const_cr2>:
 80021f8:	f7ff b8f2 	b.w	80013e0 <interp_loop>

080021fc <const_cr1>:
 80021fc:	f7ff b8f0 	b.w	80013e0 <interp_loop>

08002200 <data>:
 8002200:	f7ff b8ee 	b.w	80013e0 <interp_loop>

08002204 <data_line>:
 8002204:	f7ff b8ec 	b.w	80013e0 <interp_loop>

08002208 <const_ddr>:
 8002208:	f7ff b8ea 	b.w	80013e0 <interp_loop>

0800220c <dec_base>:
 800220c:	f7ff b8e8 	b.w	80013e0 <interp_loop>

08002210 <directory>:
 8002210:	f7ff b8e6 	b.w	80013e0 <interp_loop>

08002214 <do_loop>:
 8002214:	f7ff b8e4 	b.w	80013e0 <interp_loop>

08002218 <digital_read>:
 8002218:	f7ff b8e2 	b.w	80013e0 <interp_loop>

0800221c <digital_write>:
 800221c:	f7ff b8e0 	b.w	80013e0 <interp_loop>

08002220 <cmd_end>:
 8002220:	f7ff b8de 	b.w	80013e0 <interp_loop>

08002224 <const_eeprom_base>:
 8002224:	f7ff b8dc 	b.w	80013e0 <interp_loop>

08002228 <fcpu>:
 8002228:	f7ff b8da 	b.w	80013e0 <interp_loop>

0800222c <for>:
 800222c:	f7ff b8d8 	b.w	80013e0 <interp_loop>

08002230 <forget>:
 8002230:	f7ff b8d6 	b.w	80013e0 <interp_loop>

08002234 <gosub>:
 8002234:	f7ff b8d4 	b.w	80013e0 <interp_loop>

08002238 <goto>:
 8002238:	f7ff b8d2 	b.w	80013e0 <interp_loop>

0800223c <gpio>:
 800223c:	f7ff b8d0 	b.w	80013e0 <interp_loop>

08002240 <hex_base>:
 8002240:	f7ff b8ce 	b.w	80013e0 <interp_loop>

08002244 <const_idr>:
 8002244:	f7ff b8cc 	b.w	80013e0 <interp_loop>

08002248 <if>:
 8002248:	f7ff b8ca 	b.w	80013e0 <interp_loop>

0800224c <input_var>:
 800224c:	f7ff b8c8 	b.w	80013e0 <interp_loop>

08002250 <invert>:
 8002250:	f7ff b8c6 	b.w	80013e0 <interp_loop>

08002254 <enable_iwdg>:
 8002254:	f7ff b8c4 	b.w	80013e0 <interp_loop>

08002258 <refresh_iwdg>:
 8002258:	f7ff b8c2 	b.w	80013e0 <interp_loop>

0800225c <key>:
 800225c:	f7ff b8c0 	b.w	80013e0 <interp_loop>

08002260 <let>:
 8002260:	b500      	push	{lr}
 8002262:	f7ff f8d9 	bl	8001418 <next_token>
 8002266:	f85d eb04 	ldr.w	lr, [sp], #4
 800226a:	2805      	cmp	r0, #5
 800226c:	d003      	beq.n	8002276 <let_var>
 800226e:	2806      	cmp	r0, #6
 8002270:	d006      	beq.n	8002280 <let_array>
 8002272:	f7fe bf93 	b.w	800119c <syntax_error>

08002276 <let_var>:
 8002276:	b500      	push	{lr}
 8002278:	f7ff f92c 	bl	80014d4 <get_array_element>
 800227c:	f85d eb04 	ldr.w	lr, [sp], #4

08002280 <let_array>:
 8002280:	f84c 0d04 	str.w	r0, [ip, #-4]!
 8002284:	b500      	push	{lr}
 8002286:	f7ff f8c7 	bl	8001418 <next_token>
 800228a:	f85d eb04 	ldr.w	lr, [sp], #4
 800228e:	2832      	cmp	r0, #50	; 0x32
 8002290:	d001      	beq.n	8002296 <let_array+0x16>
 8002292:	f7fe bf83 	b.w	800119c <syntax_error>
 8002296:	b500      	push	{lr}
 8002298:	f7ff f91e 	bl	80014d8 <relation>
 800229c:	f85d eb04 	ldr.w	lr, [sp], #4
 80022a0:	280f      	cmp	r0, #15
 80022a2:	d001      	beq.n	80022a8 <let_array+0x28>
 80022a4:	f7fe bf7a 	b.w	800119c <syntax_error>
 80022a8:	f85c 0b04 	ldr.w	r0, [ip], #4
 80022ac:	6001      	str	r1, [r0, #0]
 80022ae:	f04f 0000 	mov.w	r0, #0
 80022b2:	f7ff b895 	b.w	80013e0 <interp_loop>
	...

080022b8 <list>:
 80022b8:	f7ff b892 	b.w	80013e0 <interp_loop>

080022bc <load>:
 80022bc:	f7ff b890 	b.w	80013e0 <interp_loop>

080022c0 <log2>:
 80022c0:	f7ff b88e 	b.w	80013e0 <interp_loop>

080022c4 <lshift>:
 80022c4:	f7ff b88c 	b.w	80013e0 <interp_loop>

080022c8 <muldiv>:
 80022c8:	f7ff b88a 	b.w	80013e0 <interp_loop>

080022cc <next>:
 80022cc:	f7ff b888 	b.w	80013e0 <interp_loop>

080022d0 <new>:
 80022d0:	f7ff b886 	b.w	80013e0 <interp_loop>

080022d4 <func_not>:
 80022d4:	f7ff b884 	b.w	80013e0 <interp_loop>

080022d8 <const_odr>:
 80022d8:	f7ff b882 	b.w	80013e0 <interp_loop>

080022dc <bit_or>:
 80022dc:	f7ff b880 	b.w	80013e0 <interp_loop>

080022e0 <pad_ref>:
 80022e0:	f7ff b87e 	b.w	80013e0 <interp_loop>

080022e4 <pause>:
 80022e4:	f7ff b87c 	b.w	80013e0 <interp_loop>

080022e8 <pin_mode>:
 80022e8:	f7ff b87a 	b.w	80013e0 <interp_loop>

080022ec <peek>:
 80022ec:	f7ff b878 	b.w	80013e0 <interp_loop>

080022f0 <const_input>:
 80022f0:	f7ff b876 	b.w	80013e0 <interp_loop>

080022f4 <poke>:
 80022f4:	f7ff b874 	b.w	80013e0 <interp_loop>

080022f8 <const_output>:
 80022f8:	f7ff b872 	b.w	80013e0 <interp_loop>

080022fc <print>:
 80022fc:	f7ff b870 	b.w	80013e0 <interp_loop>

08002300 <const_porta>:
 8002300:	f7ff b86e 	b.w	80013e0 <interp_loop>

08002304 <const_portb>:
 8002304:	f7ff b86c 	b.w	80013e0 <interp_loop>

08002308 <const_portc>:
 8002308:	f7ff b86a 	b.w	80013e0 <interp_loop>

0800230c <const_portd>:
 800230c:	f7ff b868 	b.w	80013e0 <interp_loop>

08002310 <const_porte>:
 8002310:	f7ff b866 	b.w	80013e0 <interp_loop>

08002314 <const_portf>:
 8002314:	f7ff b864 	b.w	80013e0 <interp_loop>

08002318 <const_portg>:
 8002318:	f7ff b862 	b.w	80013e0 <interp_loop>

0800231c <const_porth>:
 800231c:	f7ff b860 	b.w	80013e0 <interp_loop>

08002320 <const_porti>:
 8002320:	f7ff b85e 	b.w	80013e0 <interp_loop>

08002324 <qkey>:
 8002324:	f7ff b85c 	b.w	80013e0 <interp_loop>

08002328 <read>:
 8002328:	f7ff b85a 	b.w	80013e0 <interp_loop>

0800232c <remark>:
 800232c:	f7ff b858 	b.w	80013e0 <interp_loop>

08002330 <restore>:
 8002330:	f7ff b856 	b.w	80013e0 <interp_loop>

08002334 <return>:
 8002334:	f7ff b854 	b.w	80013e0 <interp_loop>

08002338 <random>:
 8002338:	f7ff b852 	b.w	80013e0 <interp_loop>

0800233c <rshift>:
 800233c:	f7ff b850 	b.w	80013e0 <interp_loop>

08002340 <run>:
 8002340:	f7ff b84e 	b.w	80013e0 <interp_loop>

08002344 <save>:
 8002344:	f7ff b84c 	b.w	80013e0 <interp_loop>

08002348 <show>:
 8002348:	f7ff b84a 	b.w	80013e0 <interp_loop>

0800234c <size>:
 800234c:	f7ff b848 	b.w	80013e0 <interp_loop>

08002350 <sleep>:
 8002350:	f7ff b846 	b.w	80013e0 <interp_loop>

08002354 <spi_read>:
 8002354:	f7ff b844 	b.w	80013e0 <interp_loop>

08002358 <spi_enable>:
 8002358:	f7ff b842 	b.w	80013e0 <interp_loop>

0800235c <spi_select>:
 800235c:	f7ff b840 	b.w	80013e0 <interp_loop>

08002360 <spi_write>:
 8002360:	f7ff b83e 	b.w	80013e0 <interp_loop>

08002364 <step>:
 8002364:	f7ff b83c 	b.w	80013e0 <interp_loop>

08002368 <stop>:
 8002368:	f7ff b83a 	b.w	80013e0 <interp_loop>

0800236c <get_ticks>:
 800236c:	f7ff b838 	b.w	80013e0 <interp_loop>

08002370 <set_timer>:
 8002370:	f7ff b836 	b.w	80013e0 <interp_loop>

08002374 <timeout>:
 8002374:	f7ff b834 	b.w	80013e0 <interp_loop>

08002378 <to>:
 8002378:	f7ff b832 	b.w	80013e0 <interp_loop>

0800237c <tone>:
 800237c:	f7ff b830 	b.w	80013e0 <interp_loop>

08002380 <ubound>:
 8002380:	f7ff b82e 	b.w	80013e0 <interp_loop>

08002384 <uflash>:
 8002384:	f7ff b82c 	b.w	80013e0 <interp_loop>

08002388 <until>:
 8002388:	f7ff b82a 	b.w	80013e0 <interp_loop>

0800238c <usr>:
 800238c:	f7ff b828 	b.w	80013e0 <interp_loop>

08002390 <wait>:
 8002390:	f7ff b826 	b.w	80013e0 <interp_loop>

08002394 <words>:
 8002394:	f7ff b824 	b.w	80013e0 <interp_loop>

08002398 <write>:
 8002398:	f7ff b822 	b.w	80013e0 <interp_loop>

0800239c <bit_xor>:
 800239c:	f7ff b820 	b.w	80013e0 <interp_loop>

080023a0 <transmit>:
 80023a0:	f7ff b81e 	b.w	80013e0 <interp_loop>

080023a4 <receive>:
 80023a4:	f7ff b81c 	b.w	80013e0 <interp_loop>
	...

Disassembly of section .ARM.attributes:

00000000 <.ARM.attributes>:
   0:	00002041 	andeq	r2, r0, r1, asr #32
   4:	61656100 	cmnvs	r5, r0, lsl #2
   8:	01006962 	tsteq	r0, r2, ror #18
   c:	00000016 	andeq	r0, r0, r6, lsl r0
  10:	726f4305 	rsbvc	r4, pc, #335544320	; 0x14000000
  14:	2d786574 	cfldr64cs	mvdx6, [r8, #-464]!	; 0xfffffe30
  18:	0600334d 	streq	r3, [r0], -sp, asr #6
  1c:	094d070a 	stmdbeq	sp, {r1, r3, r8, r9, sl}^
  20:	Address 0x0000000000000020 is out of bounds.


Disassembly of section .debug_line:

00000000 <.debug_line>:
   0:	0000013a 	andeq	r0, r0, sl, lsr r1
   4:	00220003 	eoreq	r0, r2, r3
   8:	01020000 	mrseq	r0, (UNDEF: 2)
   c:	000d0efb 	strdeq	r0, [sp], -fp
  10:	01010101 	tsteq	r1, r1, lsl #2
  14:	01000000 	mrseq	r0, (UNDEF: 0)
  18:	00010000 	andeq	r0, r1, r0
  1c:	336d7473 	cmncc	sp, #1929379840	; 0x73000000
  20:	62742d32 	rsbsvs	r2, r4, #3200	; 0xc80
  24:	00732e69 	rsbseq	r2, r3, r9, ror #28
  28:	00000000 	andeq	r0, r0, r0
  2c:	34020500 	strcc	r0, [r2], #-1280	; 0xfffffb00
  30:	03080001 	movweq	r0, #32769	; 0x8001
  34:	21010194 			; <UNDEFINED> instruction: 0x21010194
  38:	21212f5a 			; <UNDEFINED> instruction: 0x21212f5a
  3c:	21ba0903 			; <UNDEFINED> instruction: 0x21ba0903
  40:	2121212f 			; <UNDEFINED> instruction: 0x2121212f
  44:	4b26222f 	blmi	988908 <FLASH_HIDDEN_SIZE+0x978908>
  48:	212f2121 			; <UNDEFINED> instruction: 0x212f2121
  4c:	212f2f21 			; <UNDEFINED> instruction: 0x212f2f21
  50:	222f2f21 	eorcs	r2, pc, #33, 30	; 0x84
  54:	2f5a2123 	svccs	0x005a2123
  58:	21212221 			; <UNDEFINED> instruction: 0x21212221
  5c:	03212f2f 			; <UNDEFINED> instruction: 0x03212f2f
  60:	214bac0c 	cmpcs	fp, ip, lsl #24
  64:	2f2f2f2f 	svccs	0x002f2f2f
  68:	2020032f 	eorcs	r0, r0, pc, lsr #6
  6c:	59592f21 	ldmdbpl	r9, {r0, r5, r8, r9, sl, fp, sp}^
  70:	0321592f 			; <UNDEFINED> instruction: 0x0321592f
  74:	4b2f3c0e 	blmi	bcf0b4 <FLASH_HIDDEN_SIZE+0xbbf0b4>
  78:	4b4b5a2f 	blmi	12d693c <FLASH_HIDDEN_SIZE+0x12c693c>
  7c:	2f4b3421 	svccs	0x004b3421
  80:	2f214b23 	svccs	0x00214b23
  84:	032f2123 			; <UNDEFINED> instruction: 0x032f2123
  88:	2f2f2009 	svccs	0x002f2009
  8c:	232f2122 			; <UNDEFINED> instruction: 0x232f2122
  90:	21222f21 			; <UNDEFINED> instruction: 0x21222f21
  94:	2f2f2f4b 	svccs	0x002f2f4b
  98:	242f2123 	strtcs	r2, [pc], #-291	; a0 <NVIC_ICER2+0x18>
  9c:	4b232f4b 	blmi	8cbdd0 <FLASH_HIDDEN_SIZE+0x8bbdd0>
  a0:	2f2f2f21 	svccs	0x002f2f21
  a4:	2f4b232f 	svccs	0x004b232f
  a8:	27212f21 	strcs	r2, [r1, -r1, lsr #30]!
  ac:	2f2f214b 	svccs	0x002f214b
  b0:	4c212f2f 	stcmi	15, cr2, [r1], #-188	; 0xffffff44
  b4:	222f212f 	eorcs	r2, pc, #-1073741813	; 0xc000000b
  b8:	212f214b 			; <UNDEFINED> instruction: 0x212f214b
  bc:	2f2e0c03 	svccs	0x002e0c03
  c0:	212f2f4c 			; <UNDEFINED> instruction: 0x212f2f4c
  c4:	11032f2f 	tstne	r3, pc, lsr #30
  c8:	21212120 			; <UNDEFINED> instruction: 0x21212120
  cc:	0e032121 	adfeqsp	f2, f3, f1
  d0:	21593020 	cmpcs	r9, r0, lsr #32
  d4:	2f2f2f2f 	svccs	0x002f2f2f
  d8:	032f2f2f 			; <UNDEFINED> instruction: 0x032f2f2f
  dc:	21212e12 			; <UNDEFINED> instruction: 0x21212e12
  e0:	212f4b21 			; <UNDEFINED> instruction: 0x212f4b21
  e4:	4b212f21 	blmi	84bd70 <FLASH_HIDDEN_SIZE+0x83bd70>
  e8:	23214b21 			; <UNDEFINED> instruction: 0x23214b21
  ec:	21212f4b 			; <UNDEFINED> instruction: 0x21212f4b
  f0:	21200f03 			; <UNDEFINED> instruction: 0x21200f03
  f4:	212f214c 			; <UNDEFINED> instruction: 0x212f214c
  f8:	2e0f0321 	cdpcs	3, 0, cr0, cr15, cr1, {1}
  fc:	212f4b21 			; <UNDEFINED> instruction: 0x212f4b21
 100:	2f215921 	svccs	0x00215921
 104:	21592121 	cmpcs	r9, r1, lsr #2
 108:	2f901303 	svccs	0x00901303
 10c:	592f2121 	stmdbpl	pc!, {r0, r5, r8, sp}	; <UNPREDICTABLE>
 110:	2f592121 	svccs	0x00592121
 114:	592f592f 	stmdbpl	pc!, {r0, r1, r2, r3, r5, r8, fp, ip, lr}	; <UNPREDICTABLE>
 118:	2e0e032f 	cdpcs	3, 0, cr0, cr14, cr15, {1}
 11c:	592f212f 	stmdbpl	pc!, {r0, r1, r2, r3, r5, r8, sp}	; <UNPREDICTABLE>
 120:	2f2f2f4b 	svccs	0x002f2f4b
 124:	2f2f2f2f 	svccs	0x002f2f2f
 128:	2f592f21 	svccs	0x00592f21
 12c:	b8032f59 	stmdalt	r3, {r0, r3, r4, r6, r8, r9, sl, fp, sp}
 130:	2e03907c 	mcrcs	0, 0, r9, cr3, cr12, {3}
 134:	02d6032e 	sbcseq	r0, r6, #-1207959552	; 0xb8000000
 138:	0002022e 	andeq	r0, r2, lr, lsr #4
 13c:	01bc0101 			; <UNDEFINED> instruction: 0x01bc0101
 140:	00030000 	andeq	r0, r3, r0
 144:	00000021 	andeq	r0, r0, r1, lsr #32
 148:	0efb0102 	cdpeq	1, 15, cr0, cr11, cr2, {0}
 14c:	0101000d 	tsteq	r1, sp
 150:	00000101 	andeq	r0, r0, r1, lsl #2
 154:	00000100 	andeq	r0, r0, r0, lsl #2
 158:	65740001 	ldrbvs	r0, [r4, #-1]!
 15c:	6e696d72 	mcrvs	13, 3, r6, cr9, cr2, {3}
 160:	732e6c61 			; <UNDEFINED> instruction: 0x732e6c61
 164:	00000000 	andeq	r0, r0, r0
 168:	02050000 	andeq	r0, r5, #0
 16c:	080004fc 	stmdaeq	r0, {r2, r3, r4, r5, r6, r7, sl}
 170:	21013c03 	tstcs	r1, r3, lsl #24
 174:	2f212159 	svccs	0x00212159
 178:	30592121 	subscc	r2, r9, r1, lsr #2
 17c:	21212121 			; <UNDEFINED> instruction: 0x21212121
 180:	2f212f21 	svccs	0x00212f21
 184:	21212f21 			; <UNDEFINED> instruction: 0x21212f21
 188:	03212259 			; <UNDEFINED> instruction: 0x03212259
 18c:	212f741e 			; <UNDEFINED> instruction: 0x212f741e
 190:	2159212f 	cmpcs	r9, pc, lsr #2
 194:	2e0f032f 	cdpcs	3, 0, cr0, cr15, cr15, {1}
 198:	2f21212f 	svccs	0x0021212f
 19c:	2f2f2f21 	svccs	0x002f2f21
 1a0:	2f2f2121 	svccs	0x002f2121
 1a4:	2010032f 	andscs	r0, r0, pc, lsr #6
 1a8:	2f21212f 	svccs	0x0021212f
 1ac:	2f2f2f2f 	svccs	0x002f2f2f
 1b0:	212f2f2f 			; <UNDEFINED> instruction: 0x212f2f2f
 1b4:	212f212f 			; <UNDEFINED> instruction: 0x212f212f
 1b8:	2f592121 	svccs	0x00592121
 1bc:	21212121 			; <UNDEFINED> instruction: 0x21212121
 1c0:	2f212121 	svccs	0x00212121
 1c4:	032f212f 			; <UNDEFINED> instruction: 0x032f212f
 1c8:	59594a0e 	ldmdbpl	r9, {r1, r2, r3, r9, fp, lr}^
 1cc:	212e0d03 			; <UNDEFINED> instruction: 0x212e0d03
 1d0:	2159592f 	cmpcs	r9, pc, lsr #18
 1d4:	592f5959 	stmdbpl	pc!, {r0, r3, r4, r6, r8, fp, ip, lr}	; <UNPREDICTABLE>
 1d8:	2f200c03 	svccs	0x00200c03
 1dc:	2f2f2121 	svccs	0x002f2121
 1e0:	2f2e0f03 	svccs	0x002e0f03
 1e4:	592f5959 	stmdbpl	pc!, {r0, r3, r4, r6, r8, fp, ip, lr}	; <UNPREDICTABLE>
 1e8:	032f592f 			; <UNDEFINED> instruction: 0x032f592f
 1ec:	592f2e0c 	stmdbpl	pc!, {r2, r3, r9, sl, fp, sp}	; <UNPREDICTABLE>
 1f0:	592f592f 	stmdbpl	pc!, {r0, r1, r2, r3, r5, r8, fp, ip, lr}	; <UNPREDICTABLE>
 1f4:	21200d03 			; <UNDEFINED> instruction: 0x21200d03
 1f8:	21592221 	cmpcs	r9, r1, lsr #4
 1fc:	10032121 	andne	r2, r3, r1, lsr #2
 200:	592f2120 	stmdbpl	pc!, {r5, r8, sp}	; <UNPREDICTABLE>
 204:	0321592f 			; <UNDEFINED> instruction: 0x0321592f
 208:	2f2f2e13 	svccs	0x002f2e13
 20c:	212f592f 			; <UNDEFINED> instruction: 0x212f592f
 210:	21212121 			; <UNDEFINED> instruction: 0x21212121
 214:	2f212f59 	svccs	0x00212f59
 218:	592e0e03 	stmdbpl	lr!, {r0, r1, r9, sl, fp}
 21c:	03592f59 	cmpeq	r9, #356	; 0x164
 220:	5959200c 	ldmdbpl	r9, {r2, r3, sp}^
 224:	0c03592f 			; <UNDEFINED> instruction: 0x0c03592f
 228:	21212f20 			; <UNDEFINED> instruction: 0x21212f20
 22c:	212f592f 			; <UNDEFINED> instruction: 0x212f592f
 230:	2e2d032f 	cdpcs	3, 2, cr0, cr13, cr15, {1}
 234:	032e2403 			; <UNDEFINED> instruction: 0x032e2403
 238:	59212e0f 	stmdbpl	r1!, {r0, r1, r2, r3, r9, sl, fp, sp}
 23c:	592f592f 	stmdbpl	pc!, {r0, r1, r2, r3, r5, r8, fp, ip, lr}	; <UNPREDICTABLE>
 240:	0d032159 	stfeqs	f2, [r3, #-356]	; 0xfffffe9c
 244:	2f59592e 	svccs	0x0059592e
 248:	200d0359 	andcs	r0, sp, r9, asr r3
 24c:	592f5921 	stmdbpl	pc!, {r0, r5, r8, fp, ip, lr}	; <UNPREDICTABLE>
 250:	2e0d0321 	cdpcs	3, 0, cr0, cr13, cr1, {1}
 254:	1b035959 	blne	d67c0 <FLASH_HIDDEN_SIZE+0xc67c0>
 258:	2f2f2f2e 	svccs	0x002f2f2e
 25c:	2f2f2f21 	svccs	0x002f2f21
 260:	21595a2f 	cmpcs	r9, pc, lsr #20
 264:	22212221 	eorcs	r2, r1, #268435458	; 0x10000002
 268:	22212121 	eorcs	r2, r1, #1073741832	; 0x40000008
 26c:	2f2f2f2f 	svccs	0x002f2f2f
 270:	2f2f2f59 	svccs	0x002f2f59
 274:	59212f2f 	stmdbpl	r1!, {r0, r1, r2, r3, r5, r8, r9, sl, fp, sp}
 278:	5922592f 	stmdbpl	r2!, {r0, r1, r2, r3, r5, r8, fp, ip, lr}
 27c:	21212f2f 			; <UNDEFINED> instruction: 0x21212f2f
 280:	2f2f5922 	svccs	0x002f5922
 284:	2f222121 	svccs	0x00222121
 288:	21592121 	cmpcs	r9, r1, lsr #2
 28c:	21592121 	cmpcs	r9, r1, lsr #2
 290:	212f2121 			; <UNDEFINED> instruction: 0x212f2121
 294:	21212159 			; <UNDEFINED> instruction: 0x21212159
 298:	59212159 	stmdbpl	r1!, {r0, r3, r4, r6, r8, sp}
 29c:	2121222f 			; <UNDEFINED> instruction: 0x2121222f
 2a0:	2221592f 	eorcs	r5, r1, #770048	; 0xbc000
 2a4:	2f212121 	svccs	0x00212121
 2a8:	222f592f 	eorcs	r5, pc, #770048	; 0xbc000
 2ac:	2f212121 	svccs	0x00212121
 2b0:	22592f2f 	subscs	r2, r9, #47, 30	; 0xbc
 2b4:	2f213021 	svccs	0x00213021
 2b8:	2f2f2f2f 	svccs	0x002f2f2f
 2bc:	2f2f2f59 	svccs	0x002f2f59
 2c0:	2f59212f 	svccs	0x0059212f
 2c4:	23212259 			; <UNDEFINED> instruction: 0x23212259
 2c8:	2f21222f 	svccs	0x0021222f
 2cc:	2f2f2f2f 	svccs	0x002f2f2f
 2d0:	2f2f2f59 	svccs	0x002f2f59
 2d4:	212f2f2f 			; <UNDEFINED> instruction: 0x212f2f2f
 2d8:	22592f59 	subscs	r2, r9, #356	; 0x164
 2dc:	2f2f2f2f 	svccs	0x002f2f2f
 2e0:	592f5921 	stmdbpl	pc!, {r0, r5, r8, fp, ip, lr}	; <UNPREDICTABLE>
 2e4:	22212122 	eorcs	r2, r1, #-2147483640	; 0x80000008
 2e8:	592f2f21 	stmdbpl	pc!, {r0, r5, r8, r9, sl, fp, sp}	; <UNPREDICTABLE>
 2ec:	5922212f 	stmdbpl	r2!, {r0, r1, r2, r3, r5, r8, sp}
 2f0:	21212f2f 			; <UNDEFINED> instruction: 0x21212f2f
 2f4:	7ab7032f 	bvc	fedc0fb8 <SCB_BASE_ADR+0x1edb22b8>
 2f8:	0002022e 	andeq	r0, r2, lr, lsr #4
 2fc:	03d10101 	bicseq	r0, r1, #1073741824	; 0x40000000
 300:	00030000 	andeq	r0, r3, r0
 304:	00000022 	andeq	r0, r0, r2, lsr #32
 308:	0efb0102 	cdpeq	1, 15, cr0, cr11, cr2, {0}
 30c:	0101000d 	tsteq	r1, sp
 310:	00000101 	andeq	r0, r0, r1, lsl #2
 314:	00000100 	andeq	r0, r0, r0, lsl #2
 318:	69740001 	ldmdbvs	r4!, {r0}^
 31c:	6142796e 	cmpvs	r2, lr, ror #18
 320:	2e636973 			; <UNDEFINED> instruction: 0x2e636973
 324:	00000073 	andeq	r0, r0, r3, ror r0
 328:	05000000 	streq	r0, [r0, #-0]
 32c:	000af402 	andeq	pc, sl, r2, lsl #8
 330:	01320308 	teqeq	r2, r8, lsl #6
 334:	212f2f21 			; <UNDEFINED> instruction: 0x212f2f21
 338:	2121212f 			; <UNDEFINED> instruction: 0x2121212f
 33c:	21201003 			; <UNDEFINED> instruction: 0x21201003
 340:	22212121 	eorcs	r2, r1, #1073741832	; 0x40000008
 344:	21212f2f 			; <UNDEFINED> instruction: 0x21212f2f
 348:	2f212122 	svccs	0x00212122
 34c:	2121212f 			; <UNDEFINED> instruction: 0x2121212f
 350:	21200f03 			; <UNDEFINED> instruction: 0x21200f03
 354:	212f212f 			; <UNDEFINED> instruction: 0x212f212f
 358:	12032121 	andne	r2, r3, #1073741832	; 0x40000008
 35c:	2f222120 	svccs	0x00222120
 360:	2121212f 			; <UNDEFINED> instruction: 0x2121212f
 364:	03212f21 			; <UNDEFINED> instruction: 0x03212f21
 368:	2121200e 			; <UNDEFINED> instruction: 0x2121200e
 36c:	592f2159 	stmdbpl	pc!, {r0, r3, r4, r6, r8, sp}	; <UNPREDICTABLE>
 370:	2f21592f 	svccs	0x0021592f
 374:	03592f59 	cmpeq	r9, #356	; 0x164
 378:	21215810 			; <UNDEFINED> instruction: 0x21215810
 37c:	2f592f21 	svccs	0x00592f21
 380:	21592f5a 	cmpcs	r9, sl, asr pc
 384:	215a2f21 	cmpcs	sl, r1, lsr #30
 388:	21592f59 	cmpcs	r9, r9, asr pc
 38c:	2e0f0321 	cdpcs	3, 0, cr0, cr15, cr1, {1}
 390:	212f2121 			; <UNDEFINED> instruction: 0x212f2121
 394:	21592f21 	cmpcs	r9, r1, lsr #30
 398:	03212121 			; <UNDEFINED> instruction: 0x03212121
 39c:	2121200f 			; <UNDEFINED> instruction: 0x2121200f
 3a0:	2121592f 			; <UNDEFINED> instruction: 0x2121592f
 3a4:	2e110321 	cdpcs	3, 1, cr0, cr1, cr1, {1}
 3a8:	21212121 			; <UNDEFINED> instruction: 0x21212121
 3ac:	21212121 			; <UNDEFINED> instruction: 0x21212121
 3b0:	21212121 			; <UNDEFINED> instruction: 0x21212121
 3b4:	1103212f 	tstne	r3, pc, lsr #2
 3b8:	2f212f20 	svccs	0x00212f20
 3bc:	592f2f21 	stmdbpl	pc!, {r0, r5, r8, r9, sl, fp, sp}	; <UNPREDICTABLE>
 3c0:	032f2f2f 			; <UNDEFINED> instruction: 0x032f2f2f
 3c4:	212f200f 			; <UNDEFINED> instruction: 0x212f200f
 3c8:	592f2f21 	stmdbpl	pc!, {r0, r5, r8, r9, sl, fp, sp}	; <UNPREDICTABLE>
 3cc:	032f2f21 			; <UNDEFINED> instruction: 0x032f2f21
 3d0:	212f2e10 			; <UNDEFINED> instruction: 0x212f2e10
 3d4:	5922592f 	stmdbpl	r2!, {r0, r1, r2, r3, r5, r8, fp, ip, lr}
 3d8:	2f222f2f 	svccs	0x00222f2f
 3dc:	59212159 	stmdbpl	r1!, {r0, r3, r4, r6, r8, sp}
 3e0:	2014032f 	andscs	r0, r4, pc, lsr #6
 3e4:	212f2f2f 			; <UNDEFINED> instruction: 0x212f2f2f
 3e8:	2f2f212f 	svccs	0x002f212f
 3ec:	2121592f 			; <UNDEFINED> instruction: 0x2121592f
 3f0:	212f2121 			; <UNDEFINED> instruction: 0x212f2121
 3f4:	212f212f 			; <UNDEFINED> instruction: 0x212f212f
 3f8:	59212f21 	stmdbpl	r1!, {r0, r5, r8, r9, sl, fp, sp}
 3fc:	2f2f2221 	svccs	0x002f2221
 400:	222f2f2f 	eorcs	r2, pc, #47, 30	; 0xbc
 404:	212f5921 			; <UNDEFINED> instruction: 0x212f5921
 408:	032f2f21 			; <UNDEFINED> instruction: 0x032f2f21
 40c:	2f212e15 	svccs	0x00212e15
 410:	2f592f2f 	svccs	0x00592f2f
 414:	592f2121 	stmdbpl	pc!, {r0, r5, r8, sp}	; <UNPREDICTABLE>
 418:	23312f59 	teqcs	r1, #356	; 0x164
 41c:	2f2f2221 	svccs	0x002f2221
 420:	2121592f 			; <UNDEFINED> instruction: 0x2121592f
 424:	2f2f2f2f 	svccs	0x002f2f2f
 428:	2f2f2159 	svccs	0x002f2159
 42c:	222f2f21 	eorcs	r2, pc, #33, 30	; 0x84
 430:	592f2f2f 	stmdbpl	pc!, {r0, r1, r2, r3, r5, r8, r9, sl, fp, sp}	; <UNPREDICTABLE>
 434:	212f2121 			; <UNDEFINED> instruction: 0x212f2121
 438:	21592f2f 	cmpcs	r9, pc, lsr #30
 43c:	2f212f2f 	svccs	0x00212f2f
 440:	2f2f222f 	svccs	0x002f222f
 444:	222f2121 	eorcs	r2, pc, #1073741832	; 0x40000008
 448:	21212f2f 			; <UNDEFINED> instruction: 0x21212f2f
 44c:	2121212f 			; <UNDEFINED> instruction: 0x2121212f
 450:	222f2f2f 	eorcs	r2, pc, #47, 30	; 0xbc
 454:	222f2f2f 	eorcs	r2, pc, #47, 30	; 0xbc
 458:	59222f2f 	stmdbpl	r2!, {r0, r1, r2, r3, r5, r8, r9, sl, fp, sp}
 45c:	592f2122 	stmdbpl	pc!, {r1, r5, r8, sp}	; <UNPREDICTABLE>
 460:	59212121 	stmdbpl	r1!, {r0, r5, r8, sp}
 464:	21212f21 			; <UNDEFINED> instruction: 0x21212f21
 468:	59232f2f 	stmdbpl	r3!, {r0, r1, r2, r3, r5, r8, r9, sl, fp, sp}
 46c:	21215921 			; <UNDEFINED> instruction: 0x21215921
 470:	22212159 	eorcs	r2, r1, #1073741846	; 0x40000016
 474:	212f2f2f 			; <UNDEFINED> instruction: 0x212f2f2f
 478:	21592f2f 	cmpcs	r9, pc, lsr #30
 47c:	2f212f2f 	svccs	0x00212f2f
 480:	0321222f 			; <UNDEFINED> instruction: 0x0321222f
 484:	0140022d 	cmpeq	r0, sp, lsr #4
 488:	212f2f21 			; <UNDEFINED> instruction: 0x212f2f21
 48c:	2f212121 	svccs	0x00212121
 490:	21212121 			; <UNDEFINED> instruction: 0x21212121
 494:	0321212f 			; <UNDEFINED> instruction: 0x0321212f
 498:	2f2f2012 	svccs	0x002f2012
 49c:	21212f2f 			; <UNDEFINED> instruction: 0x21212f2f
 4a0:	21592121 	cmpcs	r9, r1, lsr #2
 4a4:	212f212f 			; <UNDEFINED> instruction: 0x212f212f
 4a8:	2e10032f 	cdpcs	3, 1, cr0, cr0, cr15, {1}
 4ac:	21212f2f 			; <UNDEFINED> instruction: 0x21212f2f
 4b0:	2f2f212f 	svccs	0x002f212f
 4b4:	21212121 			; <UNDEFINED> instruction: 0x21212121
 4b8:	0e03302f 	cdpeq	0, 0, cr3, cr3, cr15, {1}
 4bc:	212f2f58 			; <UNDEFINED> instruction: 0x212f2f58
 4c0:	0b032121 	bleq	c894c <FLASH_HIDDEN_SIZE+0xb894c>
 4c4:	21212120 			; <UNDEFINED> instruction: 0x21212120
 4c8:	0d032f21 	stceq	15, cr2, [r3, #-132]	; 0xffffff7c
 4cc:	212f212e 			; <UNDEFINED> instruction: 0x212f212e
 4d0:	30212121 	eorcc	r2, r1, r1, lsr #2
 4d4:	0d032121 	stfeqs	f2, [r3, #-132]	; 0xffffff7c
 4d8:	212f2120 			; <UNDEFINED> instruction: 0x212f2120
 4dc:	212f2f21 			; <UNDEFINED> instruction: 0x212f2f21
 4e0:	212f2121 			; <UNDEFINED> instruction: 0x212f2121
 4e4:	2e0d0321 	cdpcs	3, 0, cr0, cr13, cr1, {1}
 4e8:	212f2f21 			; <UNDEFINED> instruction: 0x212f2f21
 4ec:	212f2121 			; <UNDEFINED> instruction: 0x212f2121
 4f0:	2e0c0321 	cdpcs	3, 0, cr0, cr12, cr1, {1}
 4f4:	21212f21 			; <UNDEFINED> instruction: 0x21212f21
 4f8:	212f2121 			; <UNDEFINED> instruction: 0x212f2121
 4fc:	200c0321 	andcs	r0, ip, r1, lsr #6
 500:	21212f21 			; <UNDEFINED> instruction: 0x21212f21
 504:	212f2121 			; <UNDEFINED> instruction: 0x212f2121
 508:	200c0321 	andcs	r0, ip, r1, lsr #6
 50c:	03592159 	cmpeq	r9, #1073741846	; 0x40000016
 510:	2f2f2013 	svccs	0x002f2013
 514:	21592f2f 	cmpcs	r9, pc, lsr #30
 518:	2f2f212f 	svccs	0x002f212f
 51c:	5921212f 	stmdbpl	r1!, {r0, r1, r2, r3, r5, r8, sp}
 520:	2f2f2121 	svccs	0x002f2121
 524:	2e12032f 	cdpcs	3, 1, cr0, cr2, cr15, {1}
 528:	2e0e032f 	cdpcs	3, 0, cr0, cr14, cr15, {1}
 52c:	21212f21 			; <UNDEFINED> instruction: 0x21212f21
 530:	21212159 			; <UNDEFINED> instruction: 0x21212159
 534:	f2082c03 			; <UNDEFINED> instruction: 0xf2082c03
 538:	0f032f30 	svceq	0x00032f30
 53c:	2e13032e 	cdpcs	3, 1, cr0, cr3, cr14, {1}
 540:	212e1103 			; <UNDEFINED> instruction: 0x212e1103
 544:	21212f22 			; <UNDEFINED> instruction: 0x21212f22
 548:	21215921 			; <UNDEFINED> instruction: 0x21215921
 54c:	2122212f 			; <UNDEFINED> instruction: 0x2122212f
 550:	21212f2f 			; <UNDEFINED> instruction: 0x21212f2f
 554:	21200c03 			; <UNDEFINED> instruction: 0x21200c03
 558:	2f2f2f59 	svccs	0x002f2f59
 55c:	59302121 	ldmdbpl	r0!, {r0, r5, r8, sp}
 560:	2f2f592f 	svccs	0x002f592f
 564:	3021212f 	eorcc	r2, r1, pc, lsr #2
 568:	03592f59 	cmpeq	r9, #356	; 0x164
 56c:	22200813 	eorcs	r0, r0, #1245184	; 0x130000
 570:	21214b30 			; <UNDEFINED> instruction: 0x21214b30
 574:	2f212121 	svccs	0x00212121
 578:	21215959 			; <UNDEFINED> instruction: 0x21215959
 57c:	74130359 	ldrvc	r0, [r3], #-857	; 0xfffffca7
 580:	2f2f2f21 	svccs	0x002f2f21
 584:	2121212f 			; <UNDEFINED> instruction: 0x2121212f
 588:	21212f36 			; <UNDEFINED> instruction: 0x21212f36
 58c:	5921212f 	stmdbpl	r1!, {r0, r1, r2, r3, r5, r8, sp}
 590:	2f200d03 	svccs	0x00200d03
 594:	21212f2f 			; <UNDEFINED> instruction: 0x21212f2f
 598:	2f212121 	svccs	0x00212121
 59c:	03212f21 			; <UNDEFINED> instruction: 0x03212f21
 5a0:	592f200e 	stmdbpl	pc!, {r1, r2, r3, sp}	; <UNPREDICTABLE>
 5a4:	21215921 			; <UNDEFINED> instruction: 0x21215921
 5a8:	2f232159 	svccs	0x00232159
 5ac:	2321212f 			; <UNDEFINED> instruction: 0x2321212f
 5b0:	2f212f21 	svccs	0x00212f21
 5b4:	21212f2f 			; <UNDEFINED> instruction: 0x21212f2f
 5b8:	2f225921 	svccs	0x00225921
 5bc:	21215930 			; <UNDEFINED> instruction: 0x21215930
 5c0:	2f212121 	svccs	0x00212121
 5c4:	21212221 			; <UNDEFINED> instruction: 0x21212221
 5c8:	2121222f 			; <UNDEFINED> instruction: 0x2121222f
 5cc:	2121222f 			; <UNDEFINED> instruction: 0x2121222f
 5d0:	212e0e03 			; <UNDEFINED> instruction: 0x212e0e03
 5d4:	222f2121 	eorcs	r2, pc, #1073741832	; 0x40000008
 5d8:	2f2f2f2f 	svccs	0x002f2f2f
 5dc:	2f2f3121 	svccs	0x002f3121
 5e0:	222f2f22 	eorcs	r2, pc, #34, 30	; 0x88
 5e4:	2f222f2f 	svccs	0x00222f2f
 5e8:	2f215921 	svccs	0x00215921
 5ec:	2f22222f 	svccs	0x0022222f
 5f0:	29022503 	stmdbcs	r2, {r0, r1, r8, sl, sp}
 5f4:	0e033001 	cdpeq	0, 0, cr3, cr3, cr1, {0}
 5f8:	eb03322e 	bl	cceb8 <FLASH_HIDDEN_SIZE+0xbceb8>
 5fc:	a9032e78 	stmdbge	r3, {r3, r4, r5, r6, r9, sl, fp, sp}
 600:	0a032e01 	beq	cbe0c <FLASH_HIDDEN_SIZE+0xbbe0c>
 604:	2e3a032e 	cdpcs	3, 3, cr0, cr10, cr14, {1}
 608:	2e01ca03 	vmlacs.f32	s24, s2, s6
 60c:	032e2803 			; <UNDEFINED> instruction: 0x032e2803
 610:	032e0189 			; <UNDEFINED> instruction: 0x032e0189
 614:	032e01b0 			; <UNDEFINED> instruction: 0x032e01b0
 618:	02022e29 	andeq	r2, r2, #656	; 0x290
 61c:	00010100 	andeq	r0, r1, r0, lsl #2
 620:	212c0205 			; <UNDEFINED> instruction: 0x212c0205
 624:	9b030800 	blls	c262c <FLASH_HIDDEN_SIZE+0xb262c>
 628:	2159010c 	cmpcs	r9, ip, lsl #2
 62c:	2f2f2f21 	svccs	0x002f2f21
 630:	312f2f21 			; <UNDEFINED> instruction: 0x312f2f21
 634:	31313131 	teqcc	r1, r1, lsr r1
 638:	0f033131 	svceq	0x00033131
 63c:	2121592e 			; <UNDEFINED> instruction: 0x2121592e
 640:	2f2f2f2f 	svccs	0x002f2f2f
 644:	03212f2f 			; <UNDEFINED> instruction: 0x03212f2f
 648:	21592e0f 	cmpcs	r9, pc, lsl #28
 64c:	2f2f2f21 	svccs	0x002f2f21
 650:	03212f2f 			; <UNDEFINED> instruction: 0x03212f2f
 654:	21592e0f 	cmpcs	r9, pc, lsl #28
 658:	2f2f2f21 	svccs	0x002f2f21
 65c:	31212f2f 			; <UNDEFINED> instruction: 0x31212f2f
 660:	31313131 	teqcc	r1, r1, lsr r1
 664:	31313131 	teqcc	r1, r1, lsr r1
 668:	31313131 	teqcc	r1, r1, lsr r1
 66c:	31313131 	teqcc	r1, r1, lsr r1
 670:	31313131 	teqcc	r1, r1, lsr r1
 674:	31313131 	teqcc	r1, r1, lsr r1
 678:	31313131 	teqcc	r1, r1, lsr r1
 67c:	592e0d03 	stmdbpl	lr!, {r0, r1, r8, sl, fp}
 680:	21212121 			; <UNDEFINED> instruction: 0x21212121
 684:	592f5a30 	stmdbpl	pc!, {r4, r5, r9, fp, ip, lr}	; <UNPREDICTABLE>
 688:	592f2121 	stmdbpl	pc!, {r0, r5, r8, sp}	; <UNPREDICTABLE>
 68c:	2f2f2121 	svccs	0x002f2121
 690:	313f2f21 	teqcc	pc, r1, lsr #30
 694:	31313131 	teqcc	r1, r1, lsr r1
 698:	31313131 	teqcc	r1, r1, lsr r1
 69c:	31313131 	teqcc	r1, r1, lsr r1
 6a0:	31313131 	teqcc	r1, r1, lsr r1
 6a4:	31313131 	teqcc	r1, r1, lsr r1
 6a8:	31313131 	teqcc	r1, r1, lsr r1
 6ac:	31313131 	teqcc	r1, r1, lsr r1
 6b0:	31313131 	teqcc	r1, r1, lsr r1
 6b4:	31313131 	teqcc	r1, r1, lsr r1
 6b8:	31313131 	teqcc	r1, r1, lsr r1
 6bc:	31313131 	teqcc	r1, r1, lsr r1
 6c0:	31313131 	teqcc	r1, r1, lsr r1
 6c4:	31313131 	teqcc	r1, r1, lsr r1
 6c8:	31313131 	teqcc	r1, r1, lsr r1
 6cc:	2e023131 	mcrcs	1, 0, r3, cr2, cr1, {1}
 6d0:	Address 0x00000000000006d0 is out of bounds.


Disassembly of section .debug_info:

00000000 <.debug_info>:
   0:	00000022 	andeq	r0, r0, r2, lsr #32
   4:	00000002 	andeq	r0, r0, r2
   8:	01040000 	mrseq	r0, (UNDEF: 4)
   c:	00000000 	andeq	r0, r0, r0
  10:	08000134 	stmdaeq	r0, {r2, r4, r5, r8}
  14:	080004fc 	stmdaeq	r0, {r2, r3, r4, r5, r6, r7, sl}
  18:	00000000 	andeq	r0, r0, r0
  1c:	0000000c 	andeq	r0, r0, ip
  20:	0000002b 	andeq	r0, r0, fp, lsr #32
  24:	00228001 	eoreq	r8, r2, r1
  28:	00020000 	andeq	r0, r2, r0
  2c:	00000014 	andeq	r0, r0, r4, lsl r0
  30:	013e0104 	teqeq	lr, r4, lsl #2
  34:	04fc0000 	ldrbteq	r0, [ip], #0
  38:	0af40800 	beq	ffd02040 <SCB_BASE_ADR+0x1fcf3340>
  3c:	00370800 	eorseq	r0, r7, r0, lsl #16
  40:	000c0000 	andeq	r0, ip, r0
  44:	002b0000 	eoreq	r0, fp, r0
  48:	80010000 	andhi	r0, r1, r0
  4c:	0000001e 	andeq	r0, r0, lr, lsl r0
  50:	00280002 	eoreq	r0, r8, r2
  54:	01040000 	mrseq	r0, (UNDEF: 4)
  58:	000002fe 	strdeq	r0, [r0], -lr
  5c:	00000000 	andeq	r0, r0, r0
  60:	00000042 	andeq	r0, r0, r2, asr #32
  64:	0000000c 	andeq	r0, r0, ip
  68:	0000002b 	andeq	r0, r0, fp, lsr #32
  6c:	Address 0x000000000000006c is out of bounds.


Disassembly of section .debug_abbrev:

00000000 <.debug_abbrev>:
   0:	10001101 	andne	r1, r0, r1, lsl #2
   4:	12011106 	andne	r1, r1, #-2147483647	; 0x80000001
   8:	1b0e0301 	blne	380c14 <FLASH_HIDDEN_SIZE+0x370c14>
   c:	130e250e 	movwne	r2, #58638	; 0xe50e
  10:	00000005 	andeq	r0, r0, r5
  14:	10001101 	andne	r1, r0, r1, lsl #2
  18:	12011106 	andne	r1, r1, #-2147483647	; 0x80000001
  1c:	1b0e0301 	blne	380c28 <FLASH_HIDDEN_SIZE+0x370c28>
  20:	130e250e 	movwne	r2, #58638	; 0xe50e
  24:	00000005 	andeq	r0, r0, r5
  28:	10001101 	andne	r1, r0, r1, lsl #2
  2c:	03065506 	movweq	r5, #25862	; 0x6506
  30:	250e1b0e 	strcs	r1, [lr, #-2830]	; 0xfffff4f2
  34:	0005130e 	andeq	r1, r5, lr, lsl #6
	...

Disassembly of section .debug_aranges:

00000000 <.debug_aranges>:
   0:	0000001c 	andeq	r0, r0, ip, lsl r0
   4:	00000002 	andeq	r0, r0, r2
   8:	00040000 	andeq	r0, r4, r0
   c:	00000000 	andeq	r0, r0, r0
  10:	08000134 	stmdaeq	r0, {r2, r4, r5, r8}
  14:	000003c8 	andeq	r0, r0, r8, asr #7
	...
  20:	0000001c 	andeq	r0, r0, ip, lsl r0
  24:	00260002 	eoreq	r0, r6, r2
  28:	00040000 	andeq	r0, r4, r0
  2c:	00000000 	andeq	r0, r0, r0
  30:	080004fc 	stmdaeq	r0, {r2, r3, r4, r5, r6, r7, sl}
  34:	000005f8 	strdeq	r0, [r0], -r8
	...
  40:	00000024 	andeq	r0, r0, r4, lsr #32
  44:	004c0002 	subeq	r0, ip, r2
  48:	00040000 	andeq	r0, r4, r0
  4c:	00000000 	andeq	r0, r0, r0
  50:	08000af4 	stmdaeq	r0, {r2, r4, r5, r6, r7, r9, fp}
  54:	00000a0c 	andeq	r0, r0, ip, lsl #20
  58:	08001800 	stmdaeq	r0, {fp, ip}
  5c:	00000c00 	andeq	r0, r0, r0, lsl #24
	...

Disassembly of section .debug_str:

00000000 <.debug_str>:
   0:	336d7473 	cmncc	sp, #1929379840	; 0x73000000
   4:	62742d32 	rsbsvs	r2, r4, #3200	; 0xc80
   8:	00732e69 	rsbseq	r2, r3, r9, ror #28
   c:	6d6f682f 	stclvs	8, cr6, [pc, #-188]!	; ffffff58 <SCB_BASE_ADR+0x1fff1258>
  10:	616a2f65 	cmnvs	sl, r5, ror #30
  14:	65757163 	ldrbvs	r7, [r5, #-355]!	; 0xfffffe9d
  18:	69672f73 	stmdbvs	r7!, {r0, r1, r4, r5, r6, r8, r9, sl, fp, sp}^
  1c:	62756874 	rsbsvs	r6, r5, #116, 16	; 0x740000
  20:	6d74732f 	ldclvs	3, cr7, [r4, #-188]!	; 0xffffff44
  24:	742d3233 	strtvc	r3, [sp], #-563	; 0xfffffdcd
  28:	47006962 	strmi	r6, [r0, -r2, ror #18]
  2c:	4120554e 			; <UNDEFINED> instruction: 0x4120554e
  30:	2e322053 	mrccs	0, 1, r2, cr2, cr3, {2}
  34:	74003433 	strvc	r3, [r0], #-1075	; 0xfffffbcd
  38:	696d7265 	stmdbvs	sp!, {r0, r2, r5, r6, r9, ip, sp, lr}^
  3c:	2e6c616e 	powcsez	f6, f4, #0.5
  40:	69740073 	ldmdbvs	r4!, {r0, r1, r4, r5, r6}^
  44:	6142796e 	cmpvs	r2, lr, ror #18
  48:	2e636973 			; <UNDEFINED> instruction: 0x2e636973
  4c:	Address 0x000000000000004c is out of bounds.


Disassembly of section .debug_ranges:

00000000 <.debug_ranges>:
   0:	ffffffff 			; <UNDEFINED> instruction: 0xffffffff
   4:	00000000 	andeq	r0, r0, r0
   8:	08000af4 	stmdaeq	r0, {r2, r4, r5, r6, r7, r9, fp}
   c:	08001500 	stmdaeq	r0, {r8, sl, ip}
  10:	08001800 	stmdaeq	r0, {fp, ip}
  14:	08002400 	stmdaeq	r0, {sl, sp}
	...
