
build/stm32-tbi.elf:     file format elf32-littlearm


Disassembly of section .isr_vector:

08000000 <isr_vectors>:
 8000000:	20005000 	andcs	r5, r0, r0
 8000004:	080001f1 	stmdaeq	r0, {r0, r4, r5, r6, r7, r8}
 8000008:	08000135 	stmdaeq	r0, {r0, r2, r4, r5, r8}
 800000c:	08000135 	stmdaeq	r0, {r0, r2, r4, r5, r8}
 8000010:	08000135 	stmdaeq	r0, {r0, r2, r4, r5, r8}
 8000014:	08000135 	stmdaeq	r0, {r0, r2, r4, r5, r8}
 8000018:	08000135 	stmdaeq	r0, {r0, r2, r4, r5, r8}
	...
 800002c:	08000135 	stmdaeq	r0, {r0, r2, r4, r5, r8}
 8000030:	08000135 	stmdaeq	r0, {r0, r2, r4, r5, r8}
 8000034:	00000000 	andeq	r0, r0, r0
 8000038:	08000135 	stmdaeq	r0, {r0, r2, r4, r5, r8}
 800003c:	08000161 	stmdaeq	r0, {r0, r5, r6, r8}

08000040 <irq0>:
 8000040:	08000135 	stmdaeq	r0, {r0, r2, r4, r5, r8}
 8000044:	08000135 	stmdaeq	r0, {r0, r2, r4, r5, r8}
 8000048:	08000135 	stmdaeq	r0, {r0, r2, r4, r5, r8}
 800004c:	08000135 	stmdaeq	r0, {r0, r2, r4, r5, r8}
 8000050:	08000135 	stmdaeq	r0, {r0, r2, r4, r5, r8}
 8000054:	08000135 	stmdaeq	r0, {r0, r2, r4, r5, r8}
 8000058:	08000135 	stmdaeq	r0, {r0, r2, r4, r5, r8}
 800005c:	08000135 	stmdaeq	r0, {r0, r2, r4, r5, r8}
 8000060:	08000135 	stmdaeq	r0, {r0, r2, r4, r5, r8}
 8000064:	08000135 	stmdaeq	r0, {r0, r2, r4, r5, r8}
 8000068:	08000135 	stmdaeq	r0, {r0, r2, r4, r5, r8}
 800006c:	08000135 	stmdaeq	r0, {r0, r2, r4, r5, r8}
 8000070:	08000135 	stmdaeq	r0, {r0, r2, r4, r5, r8}
 8000074:	08000135 	stmdaeq	r0, {r0, r2, r4, r5, r8}
 8000078:	08000135 	stmdaeq	r0, {r0, r2, r4, r5, r8}
 800007c:	08000135 	stmdaeq	r0, {r0, r2, r4, r5, r8}
 8000080:	08000135 	stmdaeq	r0, {r0, r2, r4, r5, r8}
 8000084:	08000135 	stmdaeq	r0, {r0, r2, r4, r5, r8}
 8000088:	08000135 	stmdaeq	r0, {r0, r2, r4, r5, r8}
 800008c:	08000135 	stmdaeq	r0, {r0, r2, r4, r5, r8}
 8000090:	08000135 	stmdaeq	r0, {r0, r2, r4, r5, r8}
 8000094:	08000135 	stmdaeq	r0, {r0, r2, r4, r5, r8}
 8000098:	08000135 	stmdaeq	r0, {r0, r2, r4, r5, r8}
 800009c:	08000135 	stmdaeq	r0, {r0, r2, r4, r5, r8}
 80000a0:	08000135 	stmdaeq	r0, {r0, r2, r4, r5, r8}
 80000a4:	08000135 	stmdaeq	r0, {r0, r2, r4, r5, r8}
 80000a8:	08000135 	stmdaeq	r0, {r0, r2, r4, r5, r8}
 80000ac:	08000135 	stmdaeq	r0, {r0, r2, r4, r5, r8}
 80000b0:	08000135 	stmdaeq	r0, {r0, r2, r4, r5, r8}
 80000b4:	08000135 	stmdaeq	r0, {r0, r2, r4, r5, r8}
 80000b8:	08000135 	stmdaeq	r0, {r0, r2, r4, r5, r8}
 80000bc:	08000135 	stmdaeq	r0, {r0, r2, r4, r5, r8}
 80000c0:	08000135 	stmdaeq	r0, {r0, r2, r4, r5, r8}
 80000c4:	08000135 	stmdaeq	r0, {r0, r2, r4, r5, r8}
 80000c8:	08000135 	stmdaeq	r0, {r0, r2, r4, r5, r8}
 80000cc:	08000135 	stmdaeq	r0, {r0, r2, r4, r5, r8}
 80000d0:	08000135 	stmdaeq	r0, {r0, r2, r4, r5, r8}
 80000d4:	08000175 	stmdaeq	r0, {r0, r2, r4, r5, r6, r8}
 80000d8:	08000135 	stmdaeq	r0, {r0, r2, r4, r5, r8}
 80000dc:	08000135 	stmdaeq	r0, {r0, r2, r4, r5, r8}
 80000e0:	08000135 	stmdaeq	r0, {r0, r2, r4, r5, r8}
 80000e4:	08000135 	stmdaeq	r0, {r0, r2, r4, r5, r8}
 80000e8:	08000135 	stmdaeq	r0, {r0, r2, r4, r5, r8}
 80000ec:	08000135 	stmdaeq	r0, {r0, r2, r4, r5, r8}
 80000f0:	08000135 	stmdaeq	r0, {r0, r2, r4, r5, r8}
 80000f4:	08000135 	stmdaeq	r0, {r0, r2, r4, r5, r8}
 80000f8:	08000135 	stmdaeq	r0, {r0, r2, r4, r5, r8}
 80000fc:	08000135 	stmdaeq	r0, {r0, r2, r4, r5, r8}
 8000100:	08000135 	stmdaeq	r0, {r0, r2, r4, r5, r8}
 8000104:	08000135 	stmdaeq	r0, {r0, r2, r4, r5, r8}
 8000108:	08000135 	stmdaeq	r0, {r0, r2, r4, r5, r8}
 800010c:	08000135 	stmdaeq	r0, {r0, r2, r4, r5, r8}
 8000110:	08000135 	stmdaeq	r0, {r0, r2, r4, r5, r8}
 8000114:	08000135 	stmdaeq	r0, {r0, r2, r4, r5, r8}
 8000118:	08000135 	stmdaeq	r0, {r0, r2, r4, r5, r8}
 800011c:	08000135 	stmdaeq	r0, {r0, r2, r4, r5, r8}
 8000120:	08000135 	stmdaeq	r0, {r0, r2, r4, r5, r8}
 8000124:	08000135 	stmdaeq	r0, {r0, r2, r4, r5, r8}
 8000128:	08000135 	stmdaeq	r0, {r0, r2, r4, r5, r8}
 800012c:	08000135 	stmdaeq	r0, {r0, r2, r4, r5, r8}

08000130 <vectors_size>:
 8000130:	00000130 	andeq	r0, r0, r0, lsr r1

Disassembly of section .text:

08000134 <default_handler>:
 8000134:	f8df 0428 	ldr.w	r0, [pc, #1064]	; 8000560 <page_align+0x14>
 8000138:	b500      	push	{lr}
 800013a:	f000 fa49 	bl	80005d0 <uart_puts>
 800013e:	f85d eb04 	ldr.w	lr, [sp], #4
 8000142:	f44f 4000 	mov.w	r0, #32768	; 0x8000
 8000146:	3801      	subs	r0, #1
 8000148:	d1fd      	bne.n	8000146 <default_handler+0x12>
 800014a:	e03f      	b.n	80001cc <reset_mcu>

0800014c <exception_msg>:
 800014c:	6578650a 	ldrbvs	r6, [r8, #-1290]!	; 0xfffffaf6
 8000150:	6f697470 	svcvs	0x00697470
 8000154:	6572206e 	ldrbvs	r2, [r2, #-110]!	; 0xffffff92
 8000158:	746f6f62 	strbtvc	r6, [pc], #-3938	; 8000160 <systick_handler>
 800015c:	00000a21 	andeq	r0, r0, r1, lsr #20

08000160 <systick_handler>:
 8000160:	69e0      	ldr	r0, [r4, #28]
 8000162:	f100 0001 	add.w	r0, r0, #1
 8000166:	61e0      	str	r0, [r4, #28]
 8000168:	6a20      	ldr	r0, [r4, #32]
 800016a:	b110      	cbz	r0, 8000172 <systick_handler+0x12>
 800016c:	f1a0 0001 	sub.w	r0, r0, #1
 8000170:	6220      	str	r0, [r4, #32]
 8000172:	4770      	bx	lr

08000174 <uart_rx_handler>:
 8000174:	f44f 5060 	mov.w	r0, #14336	; 0x3800
 8000178:	f2c4 0001 	movt	r0, #16385	; 0x4001
 800017c:	6801      	ldr	r1, [r0, #0]
 800017e:	8882      	ldrh	r2, [r0, #4]
 8000180:	f011 0f20 	tst.w	r1, #32
 8000184:	d00d      	beq.n	80001a2 <uart_rx_handler+0x2e>
 8000186:	2a03      	cmp	r2, #3
 8000188:	f000 8016 	beq.w	80001b8 <user_reboot>
 800018c:	2a02      	cmp	r2, #2
 800018e:	d009      	beq.n	80001a4 <uart_rx_handler+0x30>
 8000190:	f104 0050 	add.w	r0, r4, #80	; 0x50
 8000194:	6ce1      	ldr	r1, [r4, #76]	; 0x4c
 8000196:	5442      	strb	r2, [r0, r1]
 8000198:	f101 0101 	add.w	r1, r1, #1
 800019c:	f001 010f 	and.w	r1, r1, #15
 80001a0:	64e1      	str	r1, [r4, #76]	; 0x4c
 80001a2:	4770      	bx	lr
 80001a4:	b500      	push	{lr}
 80001a6:	f000 f8e7 	bl	8000378 <uart_flush_queue>
 80001aa:	f85d eb04 	ldr.w	lr, [sp], #4
 80001ae:	48ed      	ldr	r0, [pc, #948]	; (8000564 <page_align+0x18>)
 80001b0:	f040 0001 	orr.w	r0, r0, #1
 80001b4:	9006      	str	r0, [sp, #24]
 80001b6:	4770      	bx	lr

080001b8 <user_reboot>:
 80001b8:	48eb      	ldr	r0, [pc, #940]	; (8000568 <page_align+0x1c>)
 80001ba:	b500      	push	{lr}
 80001bc:	f000 fa08 	bl	80005d0 <uart_puts>
 80001c0:	f85d eb04 	ldr.w	lr, [sp], #4
 80001c4:	f44f 4000 	mov.w	r0, #32768	; 0x8000
 80001c8:	3801      	subs	r0, #1
 80001ca:	d1fd      	bne.n	80001c8 <user_reboot+0x10>

080001cc <reset_mcu>:
 80001cc:	4803      	ldr	r0, [pc, #12]	; (80001dc <scb_adr>)
 80001ce:	68c1      	ldr	r1, [r0, #12]
 80001d0:	f041 0104 	orr.w	r1, r1, #4
 80001d4:	f2c0 51fa 	movt	r1, #1530	; 0x5fa
 80001d8:	60c1      	str	r1, [r0, #12]
 80001da:	e7fe      	b.n	80001da <reset_mcu+0xe>

080001dc <scb_adr>:
 80001dc:	e000ed00 	and	lr, r0, r0, lsl #26

080001e0 <user_reboot_msg>:
 80001e0:	6573750a 	ldrbvs	r7, [r3, #-1290]!	; 0xfffffaf6
 80001e4:	65722072 	ldrbvs	r2, [r2, #-114]!	; 0xffffff8e
 80001e8:	746f6f62 	strbtvc	r6, [pc], #-3938	; 80001f0 <reset_handler>
 80001ec:	00000a21 	andeq	r0, r0, r1, lsr #20

080001f0 <reset_handler>:
 80001f0:	f44f 40a0 	mov.w	r0, #20480	; 0x5000
 80001f4:	f2c2 0000 	movt	r0, #8192	; 0x2000
 80001f8:	4685      	mov	sp, r0
 80001fa:	f000 f82f 	bl	800025c <remap>
 80001fe:	f000 f845 	bl	800028c <init_devices>
 8000202:	f000 f897 	bl	8000334 <uart_init>
 8000206:	f001 fbb2 	bl	800196e <cold_start>
 800020a:	f000 f801 	bl	8000210 <test>
 800020e:	e7fe      	b.n	800020e <reset_handler+0x1e>

08000210 <test>:
 8000210:	f04f 0400 	mov.w	r4, #0
 8000214:	f2c2 0400 	movt	r4, #8192	; 0x2000
 8000218:	f504 7498 	add.w	r4, r4, #304	; 0x130
 800021c:	b500      	push	{lr}
 800021e:	f000 fd11 	bl	8000c44 <get_curpos>
 8000222:	f85d eb04 	ldr.w	lr, [sp], #4
 8000226:	b402      	push	{r1}
 8000228:	f04f 010a 	mov.w	r1, #10
 800022c:	b500      	push	{lr}
 800022e:	f000 fa39 	bl	80006a4 <print_int>
 8000232:	f85d eb04 	ldr.w	lr, [sp], #4
 8000236:	f04f 002c 	mov.w	r0, #44	; 0x2c
 800023a:	b500      	push	{lr}
 800023c:	f000 f8a8 	bl	8000390 <uart_putc>
 8000240:	f85d eb04 	ldr.w	lr, [sp], #4
 8000244:	bc01      	pop	{r0}
 8000246:	f04f 010a 	mov.w	r1, #10
 800024a:	b500      	push	{lr}
 800024c:	f000 fa2a 	bl	80006a4 <print_int>
 8000250:	f85d eb04 	ldr.w	lr, [sp], #4
 8000254:	4770      	bx	lr

08000256 <tib_addr>:
 8000256:	20004e30 	andcs	r4, r0, r0, lsr lr
 800025a:	bf00      	nop

0800025c <remap>:
 800025c:	ea80 0000 	eor.w	r0, r0, r0
 8000260:	f04f 0100 	mov.w	r1, #0
 8000264:	f2c2 0100 	movt	r1, #8192	; 0x2000
 8000268:	f44f 7298 	mov.w	r2, #304	; 0x130
 800026c:	b500      	push	{lr}
 800026e:	f000 fd8f 	bl	8000d90 <cmove>
 8000272:	f85d eb04 	ldr.w	lr, [sp], #4
 8000276:	f44f 406d 	mov.w	r0, #60672	; 0xed00
 800027a:	f2ce 0000 	movt	r0, #57344	; 0xe000
 800027e:	f04f 0100 	mov.w	r1, #0
 8000282:	f2c2 0100 	movt	r1, #8192	; 0x2000
 8000286:	6081      	str	r1, [r0, #8]
 8000288:	4770      	bx	lr
 800028a:	bf00      	nop

0800028c <init_devices>:
 800028c:	f44f 5000 	mov.w	r0, #8192	; 0x2000
 8000290:	f2c4 0002 	movt	r0, #16386	; 0x4002
 8000294:	f04f 0212 	mov.w	r2, #18
 8000298:	6002      	str	r2, [r0, #0]
 800029a:	f44f 5080 	mov.w	r0, #4096	; 0x1000
 800029e:	f2c4 0002 	movt	r0, #16386	; 0x4002
 80002a2:	6801      	ldr	r1, [r0, #0]
 80002a4:	f441 3180 	orr.w	r1, r1, #65536	; 0x10000
 80002a8:	6001      	str	r1, [r0, #0]

080002aa <wait_hserdy>:
 80002aa:	6801      	ldr	r1, [r0, #0]
 80002ac:	f411 3f00 	tst.w	r1, #131072	; 0x20000
 80002b0:	d0fb      	beq.n	80002aa <wait_hserdy>
 80002b2:	f44f 6180 	mov.w	r1, #1024	; 0x400
 80002b6:	f2c0 011d 	movt	r1, #29
 80002ba:	6041      	str	r1, [r0, #4]
 80002bc:	6801      	ldr	r1, [r0, #0]
 80002be:	f041 7180 	orr.w	r1, r1, #16777216	; 0x1000000
 80002c2:	6001      	str	r1, [r0, #0]

080002c4 <wait_pllrdy>:
 80002c4:	6801      	ldr	r1, [r0, #0]
 80002c6:	f011 7f00 	tst.w	r1, #33554432	; 0x2000000
 80002ca:	d0fb      	beq.n	80002c4 <wait_pllrdy>
 80002cc:	6841      	ldr	r1, [r0, #4]
 80002ce:	f64f 72fc 	movw	r2, #65532	; 0xfffc
 80002d2:	f6cf 72ff 	movt	r2, #65535	; 0xffff
 80002d6:	ea01 0102 	and.w	r1, r1, r2
 80002da:	f04f 0202 	mov.w	r2, #2
 80002de:	ea41 0102 	orr.w	r1, r1, r2
 80002e2:	6041      	str	r1, [r0, #4]

080002e4 <wait_sws>:
 80002e4:	6841      	ldr	r1, [r0, #4]
 80002e6:	f011 0f08 	tst.w	r1, #8
 80002ea:	d0fb      	beq.n	80002e4 <wait_sws>
 80002ec:	f44f 5080 	mov.w	r0, #4096	; 0x1000
 80002f0:	f2c4 0002 	movt	r0, #16386	; 0x4002
 80002f4:	f244 11fd 	movw	r1, #16893	; 0x41fd
 80002f8:	6181      	str	r1, [r0, #24]
 80002fa:	f44f 5080 	mov.w	r0, #4096	; 0x1000
 80002fe:	f2c4 0001 	movt	r0, #16385	; 0x4001
 8000302:	6841      	ldr	r1, [r0, #4]
 8000304:	f46f 0270 	mvn.w	r2, #15728640	; 0xf00000
 8000308:	ea01 0102 	and.w	r1, r1, r2
 800030c:	f44f 02c0 	mov.w	r2, #6291456	; 0x600000
 8000310:	ea41 0102 	orr.w	r1, r1, r2
 8000314:	6041      	str	r1, [r0, #4]
 8000316:	f44f 5100 	mov.w	r1, #8192	; 0x2000
 800031a:	60c1      	str	r1, [r0, #12]
 800031c:	f24e 0010 	movw	r0, #57360	; 0xe010
 8000320:	f2ce 0000 	movt	r0, #57344	; 0xe000
 8000324:	f242 3128 	movw	r1, #9000	; 0x2328
 8000328:	6041      	str	r1, [r0, #4]
 800032a:	f04f 0103 	mov.w	r1, #3
 800032e:	6001      	str	r1, [r0, #0]
 8000330:	4770      	bx	lr
 8000332:	bf00      	nop

08000334 <uart_init>:
 8000334:	f44f 6000 	mov.w	r0, #2048	; 0x800
 8000338:	f2c4 0001 	movt	r0, #16385	; 0x4001
 800033c:	6841      	ldr	r1, [r0, #4]
 800033e:	f06f 02f0 	mvn.w	r2, #240	; 0xf0
 8000342:	ea01 0102 	and.w	r1, r1, r2
 8000346:	f04f 02a0 	mov.w	r2, #160	; 0xa0
 800034a:	ea41 0102 	orr.w	r1, r1, r2
 800034e:	6041      	str	r1, [r0, #4]
 8000350:	f44f 5060 	mov.w	r0, #14336	; 0x3800
 8000354:	f2c4 0001 	movt	r0, #16385	; 0x4001
 8000358:	f240 2171 	movw	r1, #625	; 0x271
 800035c:	6081      	str	r1, [r0, #8]
 800035e:	f242 012c 	movw	r1, #8236	; 0x202c
 8000362:	60c1      	str	r1, [r0, #12]
 8000364:	f44f 4061 	mov.w	r0, #57600	; 0xe100
 8000368:	f2ce 0000 	movt	r0, #57344	; 0xe000
 800036c:	6841      	ldr	r1, [r0, #4]
 800036e:	f041 0120 	orr.w	r1, r1, #32
 8000372:	6041      	str	r1, [r0, #4]
 8000374:	4770      	bx	lr
 8000376:	bf00      	nop

08000378 <uart_flush_queue>:
 8000378:	f84d 8d04 	str.w	r8, [sp, #-4]!
 800037c:	ea88 0808 	eor.w	r8, r8, r8
 8000380:	f8c4 8048 	str.w	r8, [r4, #72]	; 0x48
 8000384:	f8c4 804c 	str.w	r8, [r4, #76]	; 0x4c
 8000388:	f85d 8b04 	ldr.w	r8, [sp], #4
 800038c:	4770      	bx	lr
 800038e:	bf00      	nop

08000390 <uart_putc>:
 8000390:	e92d 0300 	stmdb	sp!, {r8, r9}
 8000394:	f44f 5960 	mov.w	r9, #14336	; 0x3800
 8000398:	f2c4 0901 	movt	r9, #16385	; 0x4001
 800039c:	f8d9 8000 	ldr.w	r8, [r9]
 80003a0:	f018 0880 	ands.w	r8, r8, #128	; 0x80
 80003a4:	d0fa      	beq.n	800039c <uart_putc+0xc>
 80003a6:	f889 0004 	strb.w	r0, [r9, #4]
 80003aa:	e8bd 0300 	ldmia.w	sp!, {r8, r9}
 80003ae:	4770      	bx	lr

080003b0 <uart_qkey>:
 80003b0:	b402      	push	{r1}
 80003b2:	6ca0      	ldr	r0, [r4, #72]	; 0x48
 80003b4:	6ce1      	ldr	r1, [r4, #76]	; 0x4c
 80003b6:	4048      	eors	r0, r1
 80003b8:	bc02      	pop	{r1}
 80003ba:	4770      	bx	lr

080003bc <uart_getc>:
 80003bc:	e92d 0300 	stmdb	sp!, {r8, r9}
 80003c0:	b500      	push	{lr}
 80003c2:	f7ff fff5 	bl	80003b0 <uart_qkey>
 80003c6:	f85d eb04 	ldr.w	lr, [sp], #4
 80003ca:	d0f9      	beq.n	80003c0 <uart_getc+0x4>
 80003cc:	f104 0850 	add.w	r8, r4, #80	; 0x50
 80003d0:	f8d4 9048 	ldr.w	r9, [r4, #72]	; 0x48
 80003d4:	f818 0009 	ldrb.w	r0, [r8, r9]
 80003d8:	f109 0901 	add.w	r9, r9, #1
 80003dc:	f009 090f 	and.w	r9, r9, #15
 80003e0:	f8c4 9048 	str.w	r9, [r4, #72]	; 0x48
 80003e4:	e8bd 0300 	ldmia.w	sp!, {r8, r9}
 80003e8:	4770      	bx	lr
 80003ea:	bf00      	nop

080003ec <unlock>:
 80003ec:	b440      	push	{r6}
 80003ee:	4000      	ands	r0, r0
 80003f0:	d015      	beq.n	800041e <lock>
 80003f2:	f44f 5000 	mov.w	r0, #8192	; 0x2000
 80003f6:	f2c4 0002 	movt	r0, #16386	; 0x4002
 80003fa:	f04f 0634 	mov.w	r6, #52	; 0x34
 80003fe:	60c6      	str	r6, [r0, #12]
 8000400:	6906      	ldr	r6, [r0, #16]
 8000402:	f016 0f80 	tst.w	r6, #128	; 0x80
 8000406:	d011      	beq.n	800042c <lock+0xe>
 8000408:	f240 1623 	movw	r6, #291	; 0x123
 800040c:	f2c4 5667 	movt	r6, #17767	; 0x4567
 8000410:	6046      	str	r6, [r0, #4]
 8000412:	f648 16ab 	movw	r6, #35243	; 0x89ab
 8000416:	f6cc 56ef 	movt	r6, #52719	; 0xcdef
 800041a:	6046      	str	r6, [r0, #4]
 800041c:	e006      	b.n	800042c <lock+0xe>

0800041e <lock>:
 800041e:	f44f 5000 	mov.w	r0, #8192	; 0x2000
 8000422:	f2c4 0002 	movt	r0, #16386	; 0x4002
 8000426:	f04f 0680 	mov.w	r6, #128	; 0x80
 800042a:	6106      	str	r6, [r0, #16]
 800042c:	bc40      	pop	{r6}
 800042e:	4770      	bx	lr

08000430 <wait_busy>:
 8000430:	b403      	push	{r0, r1}
 8000432:	f44f 5000 	mov.w	r0, #8192	; 0x2000
 8000436:	f2c4 0002 	movt	r0, #16386	; 0x4002
 800043a:	68c1      	ldr	r1, [r0, #12]
 800043c:	f011 0101 	ands.w	r1, r1, #1
 8000440:	d1fb      	bne.n	800043a <wait_busy+0xa>
 8000442:	bc03      	pop	{r0, r1}
 8000444:	4770      	bx	lr
 8000446:	bf00      	nop

08000448 <hword_write>:
 8000448:	b4c0      	push	{r6, r7}
 800044a:	f44f 5600 	mov.w	r6, #8192	; 0x2000
 800044e:	f2c4 0602 	movt	r6, #16386	; 0x4002
 8000452:	f04f 0701 	mov.w	r7, #1
 8000456:	6137      	str	r7, [r6, #16]
 8000458:	8008      	strh	r0, [r1, #0]
 800045a:	b500      	push	{lr}
 800045c:	f7ff ffe8 	bl	8000430 <wait_busy>
 8000460:	f85d eb04 	ldr.w	lr, [sp], #4
 8000464:	68f7      	ldr	r7, [r6, #12]
 8000466:	f017 0714 	ands.w	r7, r7, #20
 800046a:	d005      	beq.n	8000478 <hword_write+0x30>
 800046c:	483f      	ldr	r0, [pc, #252]	; (800056c <page_align+0x20>)
 800046e:	b500      	push	{lr}
 8000470:	f000 f8ae 	bl	80005d0 <uart_puts>
 8000474:	f85d eb04 	ldr.w	lr, [sp], #4
 8000478:	bcc0      	pop	{r6, r7}
 800047a:	4770      	bx	lr

0800047c <write_error>:
 800047c:	69727720 	ldmdbvs	r2!, {r5, r8, r9, sl, ip, sp, lr}^
 8000480:	65206574 	strvs	r6, [r0, #-1396]!	; 0xfffffa8c
 8000484:	726f7272 	rsbvc	r7, pc, #536870919	; 0x20000007
 8000488:	bf000021 	svclt	0x00000021

0800048c <flash_store>:
 800048c:	e92d 0300 	stmdb	sp!, {r8, r9}
 8000490:	4680      	mov	r8, r0
 8000492:	4689      	mov	r9, r1
 8000494:	f04f 0001 	mov.w	r0, #1
 8000498:	b500      	push	{lr}
 800049a:	f7ff ffa7 	bl	80003ec <unlock>
 800049e:	f85d eb04 	ldr.w	lr, [sp], #4
 80004a2:	4640      	mov	r0, r8
 80004a4:	4649      	mov	r1, r9
 80004a6:	b500      	push	{lr}
 80004a8:	f7ff ffce 	bl	8000448 <hword_write>
 80004ac:	f85d eb04 	ldr.w	lr, [sp], #4
 80004b0:	ea4f 4018 	mov.w	r0, r8, lsr #16
 80004b4:	f109 0102 	add.w	r1, r9, #2
 80004b8:	b500      	push	{lr}
 80004ba:	f7ff ffc5 	bl	8000448 <hword_write>
 80004be:	f85d eb04 	ldr.w	lr, [sp], #4
 80004c2:	ea80 0000 	eor.w	r0, r0, r0
 80004c6:	b500      	push	{lr}
 80004c8:	f7ff ff90 	bl	80003ec <unlock>
 80004cc:	f85d eb04 	ldr.w	lr, [sp], #4
 80004d0:	e8bd 0300 	ldmia.w	sp!, {r8, r9}
 80004d4:	4770      	bx	lr
 80004d6:	bf00      	nop

080004d8 <erase_page>:
 80004d8:	e92d 0300 	stmdb	sp!, {r8, r9}
 80004dc:	4680      	mov	r8, r0
 80004de:	f04f 0001 	mov.w	r0, #1
 80004e2:	b500      	push	{lr}
 80004e4:	f7ff ff82 	bl	80003ec <unlock>
 80004e8:	f85d eb04 	ldr.w	lr, [sp], #4
 80004ec:	f44f 5000 	mov.w	r0, #8192	; 0x2000
 80004f0:	f2c4 0002 	movt	r0, #16386	; 0x4002
 80004f4:	f04f 0902 	mov.w	r9, #2
 80004f8:	f8c0 9010 	str.w	r9, [r0, #16]
 80004fc:	f8c0 8014 	str.w	r8, [r0, #20]
 8000500:	f049 0940 	orr.w	r9, r9, #64	; 0x40
 8000504:	f8c0 9010 	str.w	r9, [r0, #16]
 8000508:	b500      	push	{lr}
 800050a:	f7ff ff91 	bl	8000430 <wait_busy>
 800050e:	f85d eb04 	ldr.w	lr, [sp], #4
 8000512:	f8d0 900c 	ldr.w	r9, [r0, #12]
 8000516:	f019 0914 	ands.w	r9, r9, #20
 800051a:	d005      	beq.n	8000528 <erase_page+0x50>
 800051c:	4807      	ldr	r0, [pc, #28]	; (800053c <erase_error>)
 800051e:	b500      	push	{lr}
 8000520:	f000 f856 	bl	80005d0 <uart_puts>
 8000524:	f85d eb04 	ldr.w	lr, [sp], #4
 8000528:	ea80 0000 	eor.w	r0, r0, r0
 800052c:	b500      	push	{lr}
 800052e:	f7ff ff5d 	bl	80003ec <unlock>
 8000532:	f85d eb04 	ldr.w	lr, [sp], #4
 8000536:	e8bd 0300 	ldmia.w	sp!, {r8, r9}
 800053a:	4770      	bx	lr

0800053c <erase_error>:
 800053c:	61726520 	cmnvs	r2, r0, lsr #10
 8000540:	65206573 	strvs	r6, [r0, #-1395]!	; 0xfffffa8d
 8000544:	726f7272 	rsbvc	r7, pc, #536870919	; 0x20000007
 8000548:	00000d21 	andeq	r0, r0, r1, lsr #26

0800054c <page_align>:
 800054c:	b402      	push	{r1}
 800054e:	f240 31ff 	movw	r1, #1023	; 0x3ff
 8000552:	4408      	add	r0, r1
 8000554:	ea6f 0101 	mvn.w	r1, r1
 8000558:	ea00 0001 	and.w	r0, r0, r1
 800055c:	bc02      	pop	{r1}
 800055e:	4770      	bx	lr
 8000560:	0800014c 	stmdaeq	r0, {r2, r3, r6, r8}
 8000564:	08001b05 	stmdaeq	r0, {r0, r2, r8, r9, fp, ip}
 8000568:	080001e0 	stmdaeq	r0, {r5, r6, r7, r8}
 800056c:	0800047c 	stmdaeq	r0, {r2, r3, r4, r5, r6, sl}

08000570 <get_escape>:
 8000570:	b404      	push	{r2}
 8000572:	b500      	push	{lr}
 8000574:	f7ff ff22 	bl	80003bc <uart_getc>
 8000578:	f85d eb04 	ldr.w	lr, [sp], #4
 800057c:	285b      	cmp	r0, #91	; 0x5b
 800057e:	d003      	beq.n	8000588 <get_escape+0x18>
 8000580:	ea80 0000 	eor.w	r0, r0, r0
 8000584:	bc04      	pop	{r2}
 8000586:	4770      	bx	lr
 8000588:	b500      	push	{lr}
 800058a:	f7ff ff17 	bl	80003bc <uart_getc>
 800058e:	f85d eb04 	ldr.w	lr, [sp], #4
 8000592:	f8df 27e0 	ldr.w	r2, [pc, #2016]	; 8000d74 <clear_screen+0x2c>
 8000596:	7811      	ldrb	r1, [r2, #0]
 8000598:	4009      	ands	r1, r1
 800059a:	d0f1      	beq.n	8000580 <get_escape+0x10>
 800059c:	4288      	cmp	r0, r1
 800059e:	d002      	beq.n	80005a6 <get_escape+0x36>
 80005a0:	f102 0202 	add.w	r2, r2, #2
 80005a4:	e7f7      	b.n	8000596 <get_escape+0x26>
 80005a6:	f102 0201 	add.w	r2, r2, #1
 80005aa:	7810      	ldrb	r0, [r2, #0]
 80005ac:	f1b0 0f84 	cmp.w	r0, #132	; 0x84
 80005b0:	d106      	bne.n	80005c0 <get_escape+0x50>
 80005b2:	b401      	push	{r0}
 80005b4:	b500      	push	{lr}
 80005b6:	f7ff ff01 	bl	80003bc <uart_getc>
 80005ba:	f85d eb04 	ldr.w	lr, [sp], #4
 80005be:	bc01      	pop	{r0}
 80005c0:	bc04      	pop	{r2}
 80005c2:	4770      	bx	lr

080005c4 <convert_table>:
 80005c4:	80448143 	subhi	r8, r4, r3, asr #2
 80005c8:	83468248 	movthi	r8, #25160	; 0x6248
 80005cc:	00008433 	andeq	r8, r0, r3, lsr r4

080005d0 <uart_puts>:
 80005d0:	f84d 8d04 	str.w	r8, [sp, #-4]!
 80005d4:	4680      	mov	r8, r0
 80005d6:	f818 0b01 	ldrb.w	r0, [r8], #1
 80005da:	b128      	cbz	r0, 80005e8 <uart_puts+0x18>
 80005dc:	b500      	push	{lr}
 80005de:	f7ff fed7 	bl	8000390 <uart_putc>
 80005e2:	f85d eb04 	ldr.w	lr, [sp], #4
 80005e6:	e7f6      	b.n	80005d6 <uart_puts+0x6>
 80005e8:	f85d 8b04 	ldr.w	r8, [sp], #4
 80005ec:	4770      	bx	lr
 80005ee:	bf00      	nop

080005f0 <digit>:
 80005f0:	f84d 8d04 	str.w	r8, [sp, #-4]!
 80005f4:	b401      	push	{r0}
 80005f6:	4688      	mov	r8, r1
 80005f8:	fbb0 f0f8 	udiv	r0, r0, r8
 80005fc:	4601      	mov	r1, r0
 80005fe:	fb08 f000 	mul.w	r0, r8, r0
 8000602:	f85d 8b04 	ldr.w	r8, [sp], #4
 8000606:	eba8 0000 	sub.w	r0, r8, r0
 800060a:	280a      	cmp	r0, #10
 800060c:	d401      	bmi.n	8000612 <digit+0x22>
 800060e:	f100 0007 	add.w	r0, r0, #7
 8000612:	f100 0030 	add.w	r0, r0, #48	; 0x30
 8000616:	f85d 8b04 	ldr.w	r8, [sp], #4
 800061a:	4770      	bx	lr

0800061c <itoa>:
 800061c:	e92d 0380 	stmdb	sp!, {r7, r8, r9}
 8000620:	4607      	mov	r7, r0
 8000622:	4688      	mov	r8, r1
 8000624:	f8df 9078 	ldr.w	r9, [pc, #120]	; 80006a0 <pad>
 8000628:	f109 0980 	add.w	r9, r9, #128	; 0x80
 800062c:	ea80 0000 	eor.w	r0, r0, r0
 8000630:	f809 0d01 	strb.w	r0, [r9, #-1]!
 8000634:	f100 0020 	add.w	r0, r0, #32
 8000638:	f809 0d01 	strb.w	r0, [r9, #-1]!
 800063c:	ea80 0000 	eor.w	r0, r0, r0
 8000640:	f1b8 0f0a 	cmp.w	r8, #10
 8000644:	d104      	bne.n	8000650 <itoa+0x34>
 8000646:	f017 4000 	ands.w	r0, r7, #2147483648	; 0x80000000
 800064a:	d001      	beq.n	8000650 <itoa+0x34>
 800064c:	f1c7 0700 	rsb	r7, r7, #0
 8000650:	b401      	push	{r0}
 8000652:	4638      	mov	r0, r7
 8000654:	4641      	mov	r1, r8
 8000656:	b500      	push	{lr}
 8000658:	f7ff ffca 	bl	80005f0 <digit>
 800065c:	f85d eb04 	ldr.w	lr, [sp], #4
 8000660:	f809 0d01 	strb.w	r0, [r9, #-1]!
 8000664:	4009      	ands	r1, r1
 8000666:	d001      	beq.n	800066c <itoa+0x50>
 8000668:	460f      	mov	r7, r1
 800066a:	e7f2      	b.n	8000652 <itoa+0x36>
 800066c:	bc01      	pop	{r0}
 800066e:	4000      	ands	r0, r0
 8000670:	d003      	beq.n	800067a <itoa+0x5e>
 8000672:	f04f 002d 	mov.w	r0, #45	; 0x2d
 8000676:	f809 0d01 	strb.w	r0, [r9, #-1]!
 800067a:	f1b8 0f10 	cmp.w	r8, #16
 800067e:	d104      	bne.n	800068a <itoa+0x6e>
 8000680:	f04f 0024 	mov.w	r0, #36	; 0x24
 8000684:	f809 0d01 	strb.w	r0, [r9, #-1]!
 8000688:	e006      	b.n	8000698 <itoa+0x7c>
 800068a:	f1b8 0f02 	cmp.w	r8, #2
 800068e:	d103      	bne.n	8000698 <itoa+0x7c>
 8000690:	f04f 0026 	mov.w	r0, #38	; 0x26
 8000694:	f808 0d01 	strb.w	r0, [r8, #-1]!
 8000698:	4648      	mov	r0, r9
 800069a:	e8bd 0380 	ldmia.w	sp!, {r7, r8, r9}
 800069e:	4770      	bx	lr

080006a0 <pad>:
 80006a0:	20004db0 			; <UNDEFINED> instruction: 0x20004db0

080006a4 <print_int>:
 80006a4:	b500      	push	{lr}
 80006a6:	f7ff ffb9 	bl	800061c <itoa>
 80006aa:	f85d eb04 	ldr.w	lr, [sp], #4
 80006ae:	b500      	push	{lr}
 80006b0:	f7ff ff8e 	bl	80005d0 <uart_puts>
 80006b4:	f85d eb04 	ldr.w	lr, [sp], #4
 80006b8:	4770      	bx	lr
 80006ba:	bf00      	nop

080006bc <print_hex>:
 80006bc:	b401      	push	{r0}
 80006be:	ea4f 1010 	mov.w	r0, r0, lsr #4
 80006c2:	b500      	push	{lr}
 80006c4:	f000 f81a 	bl	80006fc <digit_to_char>
 80006c8:	f85d eb04 	ldr.w	lr, [sp], #4
 80006cc:	b500      	push	{lr}
 80006ce:	f7ff fe5f 	bl	8000390 <uart_putc>
 80006d2:	f85d eb04 	ldr.w	lr, [sp], #4
 80006d6:	bc01      	pop	{r0}
 80006d8:	b500      	push	{lr}
 80006da:	f000 f80f 	bl	80006fc <digit_to_char>
 80006de:	f85d eb04 	ldr.w	lr, [sp], #4
 80006e2:	b500      	push	{lr}
 80006e4:	f7ff fe54 	bl	8000390 <uart_putc>
 80006e8:	f85d eb04 	ldr.w	lr, [sp], #4
 80006ec:	f04f 0020 	mov.w	r0, #32
 80006f0:	b500      	push	{lr}
 80006f2:	f7ff fe4d 	bl	8000390 <uart_putc>
 80006f6:	f85d eb04 	ldr.w	lr, [sp], #4
 80006fa:	4770      	bx	lr

080006fc <digit_to_char>:
 80006fc:	f000 000f 	and.w	r0, r0, #15
 8000700:	280a      	cmp	r0, #10
 8000702:	d401      	bmi.n	8000708 <digit_to_char+0xc>
 8000704:	f100 0007 	add.w	r0, r0, #7
 8000708:	f100 0030 	add.w	r0, r0, #48	; 0x30
 800070c:	4770      	bx	lr
 800070e:	bf00      	nop

08000710 <cursor_shape>:
 8000710:	f84d 8d04 	str.w	r8, [sp, #-4]!
 8000714:	b500      	push	{lr}
 8000716:	f000 f83b 	bl	8000790 <send_escape>
 800071a:	f85d eb04 	ldr.w	lr, [sp], #4
 800071e:	b500      	push	{lr}
 8000720:	f000 f848 	bl	80007b4 <send_parameter>
 8000724:	f85d eb04 	ldr.w	lr, [sp], #4
 8000728:	f04f 0020 	mov.w	r0, #32
 800072c:	b500      	push	{lr}
 800072e:	f7ff fe2f 	bl	8000390 <uart_putc>
 8000732:	f85d eb04 	ldr.w	lr, [sp], #4
 8000736:	f04f 0071 	mov.w	r0, #113	; 0x71
 800073a:	b500      	push	{lr}
 800073c:	f7ff fe28 	bl	8000390 <uart_putc>
 8000740:	f85d eb04 	ldr.w	lr, [sp], #4
 8000744:	f85d 8b04 	ldr.w	r8, [sp], #4
 8000748:	4770      	bx	lr
 800074a:	bf00      	nop

0800074c <bksp>:
 800074c:	f04f 0008 	mov.w	r0, #8
 8000750:	b500      	push	{lr}
 8000752:	f7ff fe1d 	bl	8000390 <uart_putc>
 8000756:	f85d eb04 	ldr.w	lr, [sp], #4
 800075a:	f04f 0020 	mov.w	r0, #32
 800075e:	b500      	push	{lr}
 8000760:	f7ff fe16 	bl	8000390 <uart_putc>
 8000764:	f85d eb04 	ldr.w	lr, [sp], #4
 8000768:	f04f 0008 	mov.w	r0, #8
 800076c:	b500      	push	{lr}
 800076e:	f7ff fe0f 	bl	8000390 <uart_putc>
 8000772:	f85d eb04 	ldr.w	lr, [sp], #4
 8000776:	4770      	bx	lr

08000778 <delete_nchar>:
 8000778:	b148      	cbz	r0, 800078e <delete_nchar+0x16>
 800077a:	b404      	push	{r2}
 800077c:	4602      	mov	r2, r0
 800077e:	b500      	push	{lr}
 8000780:	f7ff ffe4 	bl	800074c <bksp>
 8000784:	f85d eb04 	ldr.w	lr, [sp], #4
 8000788:	3a01      	subs	r2, #1
 800078a:	d1f8      	bne.n	800077e <delete_nchar+0x6>
 800078c:	bc04      	pop	{r2}
 800078e:	4770      	bx	lr

08000790 <send_escape>:
 8000790:	b401      	push	{r0}
 8000792:	f04f 001b 	mov.w	r0, #27
 8000796:	b500      	push	{lr}
 8000798:	f7ff fdfa 	bl	8000390 <uart_putc>
 800079c:	f85d eb04 	ldr.w	lr, [sp], #4
 80007a0:	f04f 005b 	mov.w	r0, #91	; 0x5b
 80007a4:	b500      	push	{lr}
 80007a6:	f7ff fdf3 	bl	8000390 <uart_putc>
 80007aa:	f85d eb04 	ldr.w	lr, [sp], #4
 80007ae:	bc01      	pop	{r0}
 80007b0:	4770      	bx	lr
 80007b2:	bf00      	nop

080007b4 <send_parameter>:
 80007b4:	e92d 0102 	stmdb	sp!, {r1, r8}
 80007b8:	f04f 0800 	mov.w	r8, #0
 80007bc:	f04f 010a 	mov.w	r1, #10
 80007c0:	b500      	push	{lr}
 80007c2:	f7ff ff15 	bl	80005f0 <digit>
 80007c6:	f85d eb04 	ldr.w	lr, [sp], #4
 80007ca:	f108 0801 	add.w	r8, r8, #1
 80007ce:	b401      	push	{r0}
 80007d0:	4608      	mov	r0, r1
 80007d2:	4000      	ands	r0, r0
 80007d4:	d1f2      	bne.n	80007bc <send_parameter+0x8>
 80007d6:	bc01      	pop	{r0}
 80007d8:	b500      	push	{lr}
 80007da:	f7ff fdd9 	bl	8000390 <uart_putc>
 80007de:	f85d eb04 	ldr.w	lr, [sp], #4
 80007e2:	f1b8 0801 	subs.w	r8, r8, #1
 80007e6:	d1f6      	bne.n	80007d6 <send_parameter+0x22>
 80007e8:	e8bd 0102 	ldmia.w	sp!, {r1, r8}
 80007ec:	4770      	bx	lr
 80007ee:	bf00      	nop

080007f0 <move_left>:
 80007f0:	b180      	cbz	r0, 8000814 <move_left+0x24>
 80007f2:	b500      	push	{lr}
 80007f4:	f7ff ffcc 	bl	8000790 <send_escape>
 80007f8:	f85d eb04 	ldr.w	lr, [sp], #4
 80007fc:	b500      	push	{lr}
 80007fe:	f7ff ffd9 	bl	80007b4 <send_parameter>
 8000802:	f85d eb04 	ldr.w	lr, [sp], #4
 8000806:	f04f 0044 	mov.w	r0, #68	; 0x44
 800080a:	b500      	push	{lr}
 800080c:	f7ff fdc0 	bl	8000390 <uart_putc>
 8000810:	f85d eb04 	ldr.w	lr, [sp], #4
 8000814:	4770      	bx	lr
 8000816:	bf00      	nop

08000818 <move_right>:
 8000818:	b180      	cbz	r0, 800083c <move_right+0x24>
 800081a:	b500      	push	{lr}
 800081c:	f7ff ffb8 	bl	8000790 <send_escape>
 8000820:	f85d eb04 	ldr.w	lr, [sp], #4
 8000824:	b500      	push	{lr}
 8000826:	f7ff ffc5 	bl	80007b4 <send_parameter>
 800082a:	f85d eb04 	ldr.w	lr, [sp], #4
 800082e:	f04f 0043 	mov.w	r0, #67	; 0x43
 8000832:	b500      	push	{lr}
 8000834:	f7ff fdac 	bl	8000390 <uart_putc>
 8000838:	f85d eb04 	ldr.w	lr, [sp], #4
 800083c:	4770      	bx	lr
 800083e:	bf00      	nop

08000840 <spaces>:
 8000840:	f84d 8d04 	str.w	r8, [sp, #-4]!
 8000844:	b150      	cbz	r0, 800085c <spaces+0x1c>
 8000846:	4680      	mov	r8, r0
 8000848:	f04f 0020 	mov.w	r0, #32
 800084c:	b500      	push	{lr}
 800084e:	f7ff fd9f 	bl	8000390 <uart_putc>
 8000852:	f85d eb04 	ldr.w	lr, [sp], #4
 8000856:	f1b8 0801 	subs.w	r8, r8, #1
 800085a:	d1f5      	bne.n	8000848 <spaces+0x8>
 800085c:	f85d 8b04 	ldr.w	r8, [sp], #4
 8000860:	4770      	bx	lr
 8000862:	bf00      	nop

08000864 <insert_char>:
 8000864:	4770      	bx	lr
 8000866:	bf00      	nop

08000868 <delete_under>:
 8000868:	4770      	bx	lr
 800086a:	bf00      	nop

0800086c <delete_line>:
 800086c:	b401      	push	{r0}
 800086e:	b500      	push	{lr}
 8000870:	f7ff ff8e 	bl	8000790 <send_escape>
 8000874:	f85d eb04 	ldr.w	lr, [sp], #4
 8000878:	f04f 0032 	mov.w	r0, #50	; 0x32
 800087c:	b500      	push	{lr}
 800087e:	f7ff fd87 	bl	8000390 <uart_putc>
 8000882:	f85d eb04 	ldr.w	lr, [sp], #4
 8000886:	f04f 004b 	mov.w	r0, #75	; 0x4b
 800088a:	b500      	push	{lr}
 800088c:	f7ff fd80 	bl	8000390 <uart_putc>
 8000890:	f85d eb04 	ldr.w	lr, [sp], #4
 8000894:	b500      	push	{lr}
 8000896:	f000 f817 	bl	80008c8 <cursor_home>
 800089a:	f85d eb04 	ldr.w	lr, [sp], #4
 800089e:	bc01      	pop	{r0}
 80008a0:	4770      	bx	lr
 80008a2:	bf00      	nop

080008a4 <cursor_x>:
 80008a4:	b500      	push	{lr}
 80008a6:	f7ff ff73 	bl	8000790 <send_escape>
 80008aa:	f85d eb04 	ldr.w	lr, [sp], #4
 80008ae:	b500      	push	{lr}
 80008b0:	f7ff ff80 	bl	80007b4 <send_parameter>
 80008b4:	f85d eb04 	ldr.w	lr, [sp], #4
 80008b8:	f04f 0047 	mov.w	r0, #71	; 0x47
 80008bc:	b500      	push	{lr}
 80008be:	f7ff fd67 	bl	8000390 <uart_putc>
 80008c2:	f85d eb04 	ldr.w	lr, [sp], #4
 80008c6:	4770      	bx	lr

080008c8 <cursor_home>:
 80008c8:	b401      	push	{r0}
 80008ca:	b500      	push	{lr}
 80008cc:	f7ff ff60 	bl	8000790 <send_escape>
 80008d0:	f85d eb04 	ldr.w	lr, [sp], #4
 80008d4:	f04f 0047 	mov.w	r0, #71	; 0x47
 80008d8:	b500      	push	{lr}
 80008da:	f7ff fd59 	bl	8000390 <uart_putc>
 80008de:	f85d eb04 	ldr.w	lr, [sp], #4
 80008e2:	bc01      	pop	{r0}
 80008e4:	4770      	bx	lr
 80008e6:	bf00      	nop

080008e8 <delete_right>:
 80008e8:	b500      	push	{lr}
 80008ea:	f7ff ff51 	bl	8000790 <send_escape>
 80008ee:	f85d eb04 	ldr.w	lr, [sp], #4
 80008f2:	f04f 0030 	mov.w	r0, #48	; 0x30
 80008f6:	b500      	push	{lr}
 80008f8:	f7ff fd4a 	bl	8000390 <uart_putc>
 80008fc:	f85d eb04 	ldr.w	lr, [sp], #4
 8000900:	f04f 004b 	mov.w	r0, #75	; 0x4b
 8000904:	b500      	push	{lr}
 8000906:	f7ff fd43 	bl	8000390 <uart_putc>
 800090a:	f85d eb04 	ldr.w	lr, [sp], #4
 800090e:	4770      	bx	lr

08000910 <update_line>:
 8000910:	b401      	push	{r0}
 8000912:	4618      	mov	r0, r3
 8000914:	b500      	push	{lr}
 8000916:	f7ff ffc5 	bl	80008a4 <cursor_x>
 800091a:	f85d eb04 	ldr.w	lr, [sp], #4
 800091e:	b500      	push	{lr}
 8000920:	f7ff ffe2 	bl	80008e8 <delete_right>
 8000924:	f85d eb04 	ldr.w	lr, [sp], #4
 8000928:	bc01      	pop	{r0}
 800092a:	b500      	push	{lr}
 800092c:	f7ff fe50 	bl	80005d0 <uart_puts>
 8000930:	f85d eb04 	ldr.w	lr, [sp], #4
 8000934:	4770      	bx	lr
 8000936:	bf00      	nop

08000938 <readln>:
 8000938:	e92d 03ec 	stmdb	sp!, {r2, r3, r5, r6, r7, r8, r9}
 800093c:	ea87 0707 	eor.w	r7, r7, r7
 8000940:	ea88 0808 	eor.w	r8, r8, r8
 8000944:	4606      	mov	r6, r0
 8000946:	f1a1 0901 	sub.w	r9, r1, #1
 800094a:	ea85 0505 	eor.w	r5, r5, r5
 800094e:	ea80 0000 	eor.w	r0, r0, r0
 8000952:	b500      	push	{lr}
 8000954:	f7ff fedc 	bl	8000710 <cursor_shape>
 8000958:	f85d eb04 	ldr.w	lr, [sp], #4
 800095c:	b500      	push	{lr}
 800095e:	f000 f971 	bl	8000c44 <get_curpos>
 8000962:	f85d eb04 	ldr.w	lr, [sp], #4
 8000966:	460b      	mov	r3, r1

08000968 <readln_loop>:
 8000968:	b500      	push	{lr}
 800096a:	f7ff fd27 	bl	80003bc <uart_getc>
 800096e:	f85d eb04 	ldr.w	lr, [sp], #4
 8000972:	280d      	cmp	r0, #13
 8000974:	d100      	bne.n	8000978 <readln_loop+0x10>
 8000976:	e13e      	b.n	8000bf6 <readln_exit>
 8000978:	2808      	cmp	r0, #8
 800097a:	d12d      	bne.n	80009d8 <readln_loop+0x70>
 800097c:	403f      	ands	r7, r7
 800097e:	d0f3      	beq.n	8000968 <readln_loop>
 8000980:	42af      	cmp	r7, r5
 8000982:	d01f      	beq.n	80009c4 <readln_loop+0x5c>
 8000984:	eb06 0007 	add.w	r0, r6, r7
 8000988:	f1a0 0101 	sub.w	r1, r0, #1
 800098c:	eba5 0207 	sub.w	r2, r5, r7
 8000990:	b500      	push	{lr}
 8000992:	f000 f9fd 	bl	8000d90 <cmove>
 8000996:	f85d eb04 	ldr.w	lr, [sp], #4
 800099a:	f1a5 0501 	sub.w	r5, r5, #1
 800099e:	f1a7 0701 	sub.w	r7, r7, #1
 80009a2:	ea80 0000 	eor.w	r0, r0, r0
 80009a6:	5570      	strb	r0, [r6, r5]
 80009a8:	4630      	mov	r0, r6
 80009aa:	b500      	push	{lr}
 80009ac:	f7ff ffb0 	bl	8000910 <update_line>
 80009b0:	f85d eb04 	ldr.w	lr, [sp], #4
 80009b4:	eb07 0003 	add.w	r0, r7, r3
 80009b8:	b500      	push	{lr}
 80009ba:	f7ff ff73 	bl	80008a4 <cursor_x>
 80009be:	f85d eb04 	ldr.w	lr, [sp], #4
 80009c2:	e7d1      	b.n	8000968 <readln_loop>
 80009c4:	b500      	push	{lr}
 80009c6:	f7ff fec1 	bl	800074c <bksp>
 80009ca:	f85d eb04 	ldr.w	lr, [sp], #4
 80009ce:	f1a7 0701 	sub.w	r7, r7, #1
 80009d2:	f1a5 0501 	sub.w	r5, r5, #1
 80009d6:	e7c7      	b.n	8000968 <readln_loop>
 80009d8:	2804      	cmp	r0, #4
 80009da:	d109      	bne.n	80009f0 <readln_loop+0x88>
 80009dc:	b500      	push	{lr}
 80009de:	f7ff ff45 	bl	800086c <delete_line>
 80009e2:	f85d eb04 	ldr.w	lr, [sp], #4
 80009e6:	ea87 0707 	eor.w	r7, r7, r7
 80009ea:	ea85 0505 	eor.w	r5, r5, r5
 80009ee:	e7bb      	b.n	8000968 <readln_loop>
 80009f0:	2805      	cmp	r0, #5
 80009f2:	d12c      	bne.n	8000a4e <readln_loop+0xe6>
 80009f4:	ea80 0000 	eor.w	r0, r0, r0
 80009f8:	5570      	strb	r0, [r6, r5]
 80009fa:	4630      	mov	r0, r6
 80009fc:	f04f 010a 	mov.w	r1, #10
 8000a00:	b500      	push	{lr}
 8000a02:	f000 fda3 	bl	800154c <atoi>
 8000a06:	f85d eb04 	ldr.w	lr, [sp], #4
 8000a0a:	2800      	cmp	r0, #0
 8000a0c:	d0ac      	beq.n	8000968 <readln_loop>
 8000a0e:	4608      	mov	r0, r1
 8000a10:	b500      	push	{lr}
 8000a12:	f000 fb27 	bl	8001064 <search_lineno>
 8000a16:	f85d eb04 	ldr.w	lr, [sp], #4
 8000a1a:	2900      	cmp	r1, #0
 8000a1c:	d1a4      	bne.n	8000968 <readln_loop>
 8000a1e:	4631      	mov	r1, r6
 8000a20:	b500      	push	{lr}
 8000a22:	f000 fdcb 	bl	80015bc <decompile_line>
 8000a26:	f85d eb04 	ldr.w	lr, [sp], #4
 8000a2a:	b500      	push	{lr}
 8000a2c:	f000 f9a4 	bl	8000d78 <strlen>
 8000a30:	f85d eb04 	ldr.w	lr, [sp], #4
 8000a34:	4607      	mov	r7, r0
 8000a36:	4605      	mov	r5, r0
 8000a38:	4630      	mov	r0, r6
 8000a3a:	b500      	push	{lr}
 8000a3c:	f7ff ff68 	bl	8000910 <update_line>
 8000a40:	f85d eb04 	ldr.w	lr, [sp], #4
 8000a44:	eb03 0007 	add.w	r0, r3, r7
 8000a48:	f100 0001 	add.w	r0, r0, #1
 8000a4c:	e78c      	b.n	8000968 <readln_loop>
 8000a4e:	2812      	cmp	r0, #18
 8000a50:	d110      	bne.n	8000a74 <readln_loop+0x10c>
 8000a52:	402d      	ands	r5, r5
 8000a54:	d188      	bne.n	8000968 <readln_loop>
 8000a56:	4630      	mov	r0, r6
 8000a58:	b500      	push	{lr}
 8000a5a:	f000 f98d 	bl	8000d78 <strlen>
 8000a5e:	f85d eb04 	ldr.w	lr, [sp], #4
 8000a62:	4605      	mov	r5, r0
 8000a64:	4607      	mov	r7, r0
 8000a66:	4630      	mov	r0, r6
 8000a68:	b500      	push	{lr}
 8000a6a:	f7ff fdb1 	bl	80005d0 <uart_puts>
 8000a6e:	f85d eb04 	ldr.w	lr, [sp], #4
 8000a72:	e779      	b.n	8000968 <readln_loop>
 8000a74:	2809      	cmp	r0, #9
 8000a76:	d108      	bne.n	8000a8a <readln_loop+0x122>
 8000a78:	f04f 0005 	mov.w	r0, #5
 8000a7c:	4680      	mov	r8, r0
 8000a7e:	b500      	push	{lr}
 8000a80:	f7ff fe46 	bl	8000710 <cursor_shape>
 8000a84:	f85d eb04 	ldr.w	lr, [sp], #4
 8000a88:	e76e      	b.n	8000968 <readln_loop>
 8000a8a:	280f      	cmp	r0, #15
 8000a8c:	d108      	bne.n	8000aa0 <readln_loop+0x138>
 8000a8e:	f04f 0000 	mov.w	r0, #0
 8000a92:	4680      	mov	r8, r0
 8000a94:	b500      	push	{lr}
 8000a96:	f7ff fe3b 	bl	8000710 <cursor_shape>
 8000a9a:	f85d eb04 	ldr.w	lr, [sp], #4
 8000a9e:	e763      	b.n	8000968 <readln_loop>
 8000aa0:	281b      	cmp	r0, #27
 8000aa2:	d15c      	bne.n	8000b5e <character>
 8000aa4:	b500      	push	{lr}
 8000aa6:	f7ff fd63 	bl	8000570 <get_escape>
 8000aaa:	f85d eb04 	ldr.w	lr, [sp], #4
 8000aae:	2882      	cmp	r0, #130	; 0x82
 8000ab0:	d108      	bne.n	8000ac4 <try_end>
 8000ab2:	4638      	mov	r0, r7
 8000ab4:	b500      	push	{lr}
 8000ab6:	f7ff fe9b 	bl	80007f0 <move_left>
 8000aba:	f85d eb04 	ldr.w	lr, [sp], #4
 8000abe:	ea87 0707 	eor.w	r7, r7, r7
 8000ac2:	e751      	b.n	8000968 <readln_loop>

08000ac4 <try_end>:
 8000ac4:	2883      	cmp	r0, #131	; 0x83
 8000ac6:	d108      	bne.n	8000ada <try_left>
 8000ac8:	eba5 0007 	sub.w	r0, r5, r7
 8000acc:	b500      	push	{lr}
 8000ace:	f7ff fea3 	bl	8000818 <move_right>
 8000ad2:	f85d eb04 	ldr.w	lr, [sp], #4
 8000ad6:	462f      	mov	r7, r5
 8000ad8:	e746      	b.n	8000968 <readln_loop>

08000ada <try_left>:
 8000ada:	2880      	cmp	r0, #128	; 0x80
 8000adc:	d10c      	bne.n	8000af8 <try_right>
 8000ade:	403f      	ands	r7, r7
 8000ae0:	f43f af42 	beq.w	8000968 <readln_loop>
 8000ae4:	f04f 0001 	mov.w	r0, #1
 8000ae8:	b500      	push	{lr}
 8000aea:	f7ff fe81 	bl	80007f0 <move_left>
 8000aee:	f85d eb04 	ldr.w	lr, [sp], #4
 8000af2:	f1a7 0701 	sub.w	r7, r7, #1
 8000af6:	e737      	b.n	8000968 <readln_loop>

08000af8 <try_right>:
 8000af8:	2881      	cmp	r0, #129	; 0x81
 8000afa:	d10c      	bne.n	8000b16 <try_suprim>
 8000afc:	42af      	cmp	r7, r5
 8000afe:	f43f af33 	beq.w	8000968 <readln_loop>
 8000b02:	f107 0701 	add.w	r7, r7, #1
 8000b06:	f04f 0001 	mov.w	r0, #1
 8000b0a:	b500      	push	{lr}
 8000b0c:	f7ff fe84 	bl	8000818 <move_right>
 8000b10:	f85d eb04 	ldr.w	lr, [sp], #4
 8000b14:	e728      	b.n	8000968 <readln_loop>

08000b16 <try_suprim>:
 8000b16:	2884      	cmp	r0, #132	; 0x84
 8000b18:	f47f af26 	bne.w	8000968 <readln_loop>
 8000b1c:	42af      	cmp	r7, r5
 8000b1e:	f43f af23 	beq.w	8000968 <readln_loop>
 8000b22:	eb07 0106 	add.w	r1, r7, r6
 8000b26:	f101 0001 	add.w	r0, r1, #1
 8000b2a:	eba5 0207 	sub.w	r2, r5, r7
 8000b2e:	b500      	push	{lr}
 8000b30:	f000 f92e 	bl	8000d90 <cmove>
 8000b34:	f85d eb04 	ldr.w	lr, [sp], #4
 8000b38:	f1a5 0501 	sub.w	r5, r5, #1
 8000b3c:	ea80 0000 	eor.w	r0, r0, r0
 8000b40:	5570      	strb	r0, [r6, r5]
 8000b42:	4630      	mov	r0, r6
 8000b44:	b500      	push	{lr}
 8000b46:	f7ff fee3 	bl	8000910 <update_line>
 8000b4a:	f85d eb04 	ldr.w	lr, [sp], #4
 8000b4e:	eb07 0003 	add.w	r0, r7, r3
 8000b52:	b500      	push	{lr}
 8000b54:	f7ff fea6 	bl	80008a4 <cursor_x>
 8000b58:	f85d eb04 	ldr.w	lr, [sp], #4
 8000b5c:	e704      	b.n	8000968 <readln_loop>

08000b5e <character>:
 8000b5e:	42af      	cmp	r7, r5
 8000b60:	d039      	beq.n	8000bd6 <character+0x78>
 8000b62:	ea18 0808 	ands.w	r8, r8, r8
 8000b66:	d025      	beq.n	8000bb4 <character+0x56>
 8000b68:	45a9      	cmp	r9, r5
 8000b6a:	f43f aefd 	beq.w	8000968 <readln_loop>
 8000b6e:	b405      	push	{r0, r2}
 8000b70:	eb06 0007 	add.w	r0, r6, r7
 8000b74:	f100 0101 	add.w	r1, r0, #1
 8000b78:	eba5 0207 	sub.w	r2, r5, r7
 8000b7c:	b500      	push	{lr}
 8000b7e:	f000 f907 	bl	8000d90 <cmove>
 8000b82:	f85d eb04 	ldr.w	lr, [sp], #4
 8000b86:	bc05      	pop	{r0, r2}
 8000b88:	55f0      	strb	r0, [r6, r7]
 8000b8a:	f105 0501 	add.w	r5, r5, #1
 8000b8e:	ea80 0000 	eor.w	r0, r0, r0
 8000b92:	5570      	strb	r0, [r6, r5]
 8000b94:	4630      	mov	r0, r6
 8000b96:	b500      	push	{lr}
 8000b98:	f7ff feba 	bl	8000910 <update_line>
 8000b9c:	f85d eb04 	ldr.w	lr, [sp], #4
 8000ba0:	f107 0701 	add.w	r7, r7, #1
 8000ba4:	eb07 0003 	add.w	r0, r7, r3
 8000ba8:	b500      	push	{lr}
 8000baa:	f7ff fe7b 	bl	80008a4 <cursor_x>
 8000bae:	f85d eb04 	ldr.w	lr, [sp], #4
 8000bb2:	e6d9      	b.n	8000968 <readln_loop>
 8000bb4:	55f0      	strb	r0, [r6, r7]
 8000bb6:	4630      	mov	r0, r6
 8000bb8:	b500      	push	{lr}
 8000bba:	f7ff fea9 	bl	8000910 <update_line>
 8000bbe:	f85d eb04 	ldr.w	lr, [sp], #4
 8000bc2:	f107 0701 	add.w	r7, r7, #1
 8000bc6:	eb07 0003 	add.w	r0, r7, r3
 8000bca:	b500      	push	{lr}
 8000bcc:	f7ff fe6a 	bl	80008a4 <cursor_x>
 8000bd0:	f85d eb04 	ldr.w	lr, [sp], #4
 8000bd4:	e6c8      	b.n	8000968 <readln_loop>
 8000bd6:	45ca      	cmp	sl, r9
 8000bd8:	d400      	bmi.n	8000bdc <character+0x7e>
 8000bda:	e6c5      	b.n	8000968 <readln_loop>
 8000bdc:	2820      	cmp	r0, #32
 8000bde:	f53f aec3 	bmi.w	8000968 <readln_loop>
 8000be2:	55f0      	strb	r0, [r6, r7]
 8000be4:	b500      	push	{lr}
 8000be6:	f7ff fbd3 	bl	8000390 <uart_putc>
 8000bea:	f85d eb04 	ldr.w	lr, [sp], #4
 8000bee:	f107 0701 	add.w	r7, r7, #1
 8000bf2:	463d      	mov	r5, r7
 8000bf4:	e6b8      	b.n	8000968 <readln_loop>

08000bf6 <readln_exit>:
 8000bf6:	b500      	push	{lr}
 8000bf8:	f7ff fbca 	bl	8000390 <uart_putc>
 8000bfc:	f85d eb04 	ldr.w	lr, [sp], #4
 8000c00:	ea80 0000 	eor.w	r0, r0, r0
 8000c04:	5570      	strb	r0, [r6, r5]
 8000c06:	4629      	mov	r1, r5
 8000c08:	4630      	mov	r0, r6
 8000c0a:	e8bd 03ec 	ldmia.w	sp!, {r2, r3, r5, r6, r7, r8, r9}
 8000c0e:	4770      	bx	lr

08000c10 <get_param>:
 8000c10:	e92d 0300 	stmdb	sp!, {r8, r9}
 8000c14:	ea88 0808 	eor.w	r8, r8, r8
 8000c18:	f04f 090a 	mov.w	r9, #10
 8000c1c:	b500      	push	{lr}
 8000c1e:	f7ff fbcd 	bl	80003bc <uart_getc>
 8000c22:	f85d eb04 	ldr.w	lr, [sp], #4
 8000c26:	b500      	push	{lr}
 8000c28:	f000 fc60 	bl	80014ec <is_digit>
 8000c2c:	f85d eb04 	ldr.w	lr, [sp], #4
 8000c30:	d103      	bne.n	8000c3a <get_param+0x2a>
 8000c32:	fb09 f808 	mul.w	r8, r9, r8
 8000c36:	4480      	add	r8, r0
 8000c38:	e7f0      	b.n	8000c1c <get_param+0xc>
 8000c3a:	4640      	mov	r0, r8
 8000c3c:	e8bd 0300 	ldmia.w	sp!, {r8, r9}
 8000c40:	4770      	bx	lr
 8000c42:	bf00      	nop

08000c44 <get_curpos>:
 8000c44:	b40c      	push	{r2, r3}
 8000c46:	b500      	push	{lr}
 8000c48:	f7ff fb96 	bl	8000378 <uart_flush_queue>
 8000c4c:	f85d eb04 	ldr.w	lr, [sp], #4
 8000c50:	b500      	push	{lr}
 8000c52:	f7ff fd9d 	bl	8000790 <send_escape>
 8000c56:	f85d eb04 	ldr.w	lr, [sp], #4
 8000c5a:	f04f 0036 	mov.w	r0, #54	; 0x36
 8000c5e:	b500      	push	{lr}
 8000c60:	f7ff fb96 	bl	8000390 <uart_putc>
 8000c64:	f85d eb04 	ldr.w	lr, [sp], #4
 8000c68:	f04f 006e 	mov.w	r0, #110	; 0x6e
 8000c6c:	b500      	push	{lr}
 8000c6e:	f7ff fb8f 	bl	8000390 <uart_putc>
 8000c72:	f85d eb04 	ldr.w	lr, [sp], #4
 8000c76:	b500      	push	{lr}
 8000c78:	f7ff fba0 	bl	80003bc <uart_getc>
 8000c7c:	f85d eb04 	ldr.w	lr, [sp], #4
 8000c80:	281b      	cmp	r0, #27
 8000c82:	d113      	bne.n	8000cac <get_curpos+0x68>
 8000c84:	b500      	push	{lr}
 8000c86:	f7ff fb99 	bl	80003bc <uart_getc>
 8000c8a:	f85d eb04 	ldr.w	lr, [sp], #4
 8000c8e:	285b      	cmp	r0, #91	; 0x5b
 8000c90:	d10c      	bne.n	8000cac <get_curpos+0x68>
 8000c92:	b500      	push	{lr}
 8000c94:	f7ff ffbc 	bl	8000c10 <get_param>
 8000c98:	f85d eb04 	ldr.w	lr, [sp], #4
 8000c9c:	4602      	mov	r2, r0
 8000c9e:	b500      	push	{lr}
 8000ca0:	f7ff ffb6 	bl	8000c10 <get_param>
 8000ca4:	f85d eb04 	ldr.w	lr, [sp], #4
 8000ca8:	4601      	mov	r1, r0
 8000caa:	4610      	mov	r0, r2
 8000cac:	bc0c      	pop	{r2, r3}
 8000cae:	4770      	bx	lr

08000cb0 <set_curpos>:
 8000cb0:	b500      	push	{lr}
 8000cb2:	f7ff fd6d 	bl	8000790 <send_escape>
 8000cb6:	f85d eb04 	ldr.w	lr, [sp], #4
 8000cba:	b500      	push	{lr}
 8000cbc:	f7ff fd7a 	bl	80007b4 <send_parameter>
 8000cc0:	f85d eb04 	ldr.w	lr, [sp], #4
 8000cc4:	f04f 003b 	mov.w	r0, #59	; 0x3b
 8000cc8:	b500      	push	{lr}
 8000cca:	f7ff fb61 	bl	8000390 <uart_putc>
 8000cce:	f85d eb04 	ldr.w	lr, [sp], #4
 8000cd2:	4608      	mov	r0, r1
 8000cd4:	b500      	push	{lr}
 8000cd6:	f7ff fd6d 	bl	80007b4 <send_parameter>
 8000cda:	f85d eb04 	ldr.w	lr, [sp], #4
 8000cde:	f04f 0048 	mov.w	r0, #72	; 0x48
 8000ce2:	b500      	push	{lr}
 8000ce4:	f7ff fb54 	bl	8000390 <uart_putc>
 8000ce8:	f85d eb04 	ldr.w	lr, [sp], #4
 8000cec:	4770      	bx	lr
 8000cee:	bf00      	nop

08000cf0 <tabulation>:
 8000cf0:	b407      	push	{r0, r1, r2}
 8000cf2:	b500      	push	{lr}
 8000cf4:	f7ff ffa6 	bl	8000c44 <get_curpos>
 8000cf8:	f85d eb04 	ldr.w	lr, [sp], #4
 8000cfc:	f1a1 0001 	sub.w	r0, r1, #1
 8000d00:	b402      	push	{r1}
 8000d02:	6c61      	ldr	r1, [r4, #68]	; 0x44
 8000d04:	b500      	push	{lr}
 8000d06:	f000 fd45 	bl	8001794 <modulo>
 8000d0a:	f85d eb04 	ldr.w	lr, [sp], #4
 8000d0e:	6c60      	ldr	r0, [r4, #68]	; 0x44
 8000d10:	eba0 0001 	sub.w	r0, r0, r1
 8000d14:	bc02      	pop	{r1}
 8000d16:	4401      	add	r1, r0
 8000d18:	2950      	cmp	r1, #80	; 0x50
 8000d1a:	da05      	bge.n	8000d28 <tabulation+0x38>
 8000d1c:	b500      	push	{lr}
 8000d1e:	f7ff fd8f 	bl	8000840 <spaces>
 8000d22:	f85d eb04 	ldr.w	lr, [sp], #4
 8000d26:	e004      	b.n	8000d32 <tabulation+0x42>
 8000d28:	b500      	push	{lr}
 8000d2a:	f000 f805 	bl	8000d38 <cr>
 8000d2e:	f85d eb04 	ldr.w	lr, [sp], #4
 8000d32:	bc07      	pop	{r0, r1, r2}
 8000d34:	4770      	bx	lr
 8000d36:	bf00      	nop

08000d38 <cr>:
 8000d38:	f04f 000d 	mov.w	r0, #13
 8000d3c:	b500      	push	{lr}
 8000d3e:	f7ff fb27 	bl	8000390 <uart_putc>
 8000d42:	f85d eb04 	ldr.w	lr, [sp], #4
 8000d46:	4770      	bx	lr

08000d48 <clear_screen>:
 8000d48:	f04f 0001 	mov.w	r0, #1
 8000d4c:	f04f 0101 	mov.w	r1, #1
 8000d50:	b500      	push	{lr}
 8000d52:	f7ff ffad 	bl	8000cb0 <set_curpos>
 8000d56:	f85d eb04 	ldr.w	lr, [sp], #4
 8000d5a:	b500      	push	{lr}
 8000d5c:	f7ff fd18 	bl	8000790 <send_escape>
 8000d60:	f85d eb04 	ldr.w	lr, [sp], #4
 8000d64:	f04f 004a 	mov.w	r0, #74	; 0x4a
 8000d68:	b500      	push	{lr}
 8000d6a:	f7ff fb11 	bl	8000390 <uart_putc>
 8000d6e:	f85d eb04 	ldr.w	lr, [sp], #4
 8000d72:	4770      	bx	lr
 8000d74:	080005c4 	stmdaeq	r0, {r2, r6, r7, r8, sl}

08000d78 <strlen>:
 8000d78:	b406      	push	{r1, r2}
 8000d7a:	ea81 0101 	eor.w	r1, r1, r1
 8000d7e:	f810 2b01 	ldrb.w	r2, [r0], #1
 8000d82:	b112      	cbz	r2, 8000d8a <strlen+0x12>
 8000d84:	f101 0101 	add.w	r1, r1, #1
 8000d88:	e7f9      	b.n	8000d7e <strlen+0x6>
 8000d8a:	4608      	mov	r0, r1
 8000d8c:	bc06      	pop	{r1, r2}
 8000d8e:	4770      	bx	lr

08000d90 <cmove>:
 8000d90:	b408      	push	{r3}
 8000d92:	4012      	ands	r2, r2
 8000d94:	d010      	beq.n	8000db8 <move_from_end+0x10>
 8000d96:	4288      	cmp	r0, r1
 8000d98:	d406      	bmi.n	8000da8 <move_from_end>

08000d9a <move_from_low>:
 8000d9a:	f810 3b01 	ldrb.w	r3, [r0], #1
 8000d9e:	f801 3b01 	strb.w	r3, [r1], #1
 8000da2:	3a01      	subs	r2, #1
 8000da4:	d1f9      	bne.n	8000d9a <move_from_low>
 8000da6:	e007      	b.n	8000db8 <move_from_end+0x10>

08000da8 <move_from_end>:
 8000da8:	4410      	add	r0, r2
 8000daa:	4411      	add	r1, r2
 8000dac:	f810 3d01 	ldrb.w	r3, [r0, #-1]!
 8000db0:	f801 3d01 	strb.w	r3, [r1, #-1]!
 8000db4:	3a01      	subs	r2, #1
 8000db6:	d1f9      	bne.n	8000dac <move_from_end+0x4>
 8000db8:	bc08      	pop	{r3}
 8000dba:	4770      	bx	lr

08000dbc <strcpy>:
 8000dbc:	b407      	push	{r0, r1, r2}
 8000dbe:	f810 2b01 	ldrb.w	r2, [r0], #1
 8000dc2:	b112      	cbz	r2, 8000dca <strcpy+0xe>
 8000dc4:	f801 2b01 	strb.w	r2, [r1], #1
 8000dc8:	e7f9      	b.n	8000dbe <strcpy+0x2>
 8000dca:	700a      	strb	r2, [r1, #0]
 8000dcc:	bc07      	pop	{r0, r1, r2}
 8000dce:	4770      	bx	lr

08000dd0 <strcmp>:
 8000dd0:	b48c      	push	{r2, r3, r7}
 8000dd2:	4602      	mov	r2, r0
 8000dd4:	f812 3b01 	ldrb.w	r3, [r2], #1
 8000dd8:	f811 7b01 	ldrb.w	r7, [r1], #1
 8000ddc:	b113      	cbz	r3, 8000de4 <strcmp+0x14>
 8000dde:	b10f      	cbz	r7, 8000de4 <strcmp+0x14>
 8000de0:	1bd8      	subs	r0, r3, r7
 8000de2:	d0f7      	beq.n	8000dd4 <strcmp+0x4>
 8000de4:	eba3 0007 	sub.w	r0, r3, r7
 8000de8:	bc8c      	pop	{r2, r3, r7}
 8000dea:	4770      	bx	lr

08000dec <prt_tok>:
 8000dec:	b403      	push	{r0, r1}
 8000dee:	4811      	ldr	r0, [pc, #68]	; (8000e34 <tok_msg>)
 8000df0:	b500      	push	{lr}
 8000df2:	f7ff fbed 	bl	80005d0 <uart_puts>
 8000df6:	f85d eb04 	ldr.w	lr, [sp], #4
 8000dfa:	bc01      	pop	{r0}
 8000dfc:	f04f 0110 	mov.w	r1, #16
 8000e00:	b500      	push	{lr}
 8000e02:	f7ff fc4f 	bl	80006a4 <print_int>
 8000e06:	f85d eb04 	ldr.w	lr, [sp], #4
 8000e0a:	f04f 0020 	mov.w	r0, #32
 8000e0e:	b500      	push	{lr}
 8000e10:	f7ff fabe 	bl	8000390 <uart_putc>
 8000e14:	f85d eb04 	ldr.w	lr, [sp], #4
 8000e18:	bc01      	pop	{r0}
 8000e1a:	f04f 0110 	mov.w	r1, #16
 8000e1e:	b500      	push	{lr}
 8000e20:	f7ff fc40 	bl	80006a4 <print_int>
 8000e24:	f85d eb04 	ldr.w	lr, [sp], #4
 8000e28:	b500      	push	{lr}
 8000e2a:	f7ff ff85 	bl	8000d38 <cr>
 8000e2e:	f85d eb04 	ldr.w	lr, [sp], #4
 8000e32:	4770      	bx	lr

08000e34 <tok_msg>:
 8000e34:	656b6f74 	strbvs	r6, [fp, #-3956]!	; 0xfffff08c
 8000e38:	00203a6e 	eoreq	r3, r0, lr, ror #20

08000e3c <prt_row>:
 8000e3c:	b40f      	push	{r0, r1, r2, r3}
 8000e3e:	4602      	mov	r2, r0
 8000e40:	460b      	mov	r3, r1
 8000e42:	f04f 0110 	mov.w	r1, #16
 8000e46:	b500      	push	{lr}
 8000e48:	f7ff fc2c 	bl	80006a4 <print_int>
 8000e4c:	f85d eb04 	ldr.w	lr, [sp], #4
 8000e50:	f04f 000c 	mov.w	r0, #12
 8000e54:	b500      	push	{lr}
 8000e56:	f7ff fd25 	bl	80008a4 <cursor_x>
 8000e5a:	f85d eb04 	ldr.w	lr, [sp], #4
 8000e5e:	f812 0b01 	ldrb.w	r0, [r2], #1
 8000e62:	b500      	push	{lr}
 8000e64:	f7ff fc2a 	bl	80006bc <print_hex>
 8000e68:	f85d eb04 	ldr.w	lr, [sp], #4
 8000e6c:	3b01      	subs	r3, #1
 8000e6e:	d1f6      	bne.n	8000e5e <prt_row+0x22>
 8000e70:	f04f 0002 	mov.w	r0, #2
 8000e74:	b500      	push	{lr}
 8000e76:	f7ff fce3 	bl	8000840 <spaces>
 8000e7a:	f85d eb04 	ldr.w	lr, [sp], #4
 8000e7e:	bc03      	pop	{r0, r1}
 8000e80:	b500      	push	{lr}
 8000e82:	f000 f88d 	bl	8000fa0 <prt_chars>
 8000e86:	f85d eb04 	ldr.w	lr, [sp], #4
 8000e8a:	b500      	push	{lr}
 8000e8c:	f7ff ff54 	bl	8000d38 <cr>
 8000e90:	f85d eb04 	ldr.w	lr, [sp], #4
 8000e94:	4610      	mov	r0, r2
 8000e96:	bc0c      	pop	{r2, r3}
 8000e98:	4770      	bx	lr
 8000e9a:	bf00      	nop

08000e9c <show_line_nbr>:
 8000e9c:	b403      	push	{r0, r1}
 8000e9e:	f8bb 0000 	ldrh.w	r0, [fp]
 8000ea2:	f04f 010a 	mov.w	r1, #10
 8000ea6:	b500      	push	{lr}
 8000ea8:	f7ff fbfc 	bl	80006a4 <print_int>
 8000eac:	f85d eb04 	ldr.w	lr, [sp], #4
 8000eb0:	b500      	push	{lr}
 8000eb2:	f7ff ff41 	bl	8000d38 <cr>
 8000eb6:	f85d eb04 	ldr.w	lr, [sp], #4
 8000eba:	bc03      	pop	{r0, r1}
 8000ebc:	4770      	bx	lr
 8000ebe:	bf00      	nop

08000ec0 <show_data_stack>:
 8000ec0:	e92d 0303 	stmdb	sp!, {r0, r1, r8, r9}
 8000ec4:	480e      	ldr	r0, [pc, #56]	; (8000f00 <data_stack>)
 8000ec6:	b500      	push	{lr}
 8000ec8:	f7ff fb82 	bl	80005d0 <uart_puts>
 8000ecc:	f85d eb04 	ldr.w	lr, [sp], #4
 8000ed0:	46e0      	mov	r8, ip
 8000ed2:	f44f 499e 	mov.w	r9, #20224	; 0x4f00
 8000ed6:	f2c2 0900 	movt	r9, #8192	; 0x2000
 8000eda:	45c1      	cmp	r9, r8
 8000edc:	d008      	beq.n	8000ef0 <show_data_stack+0x30>
 8000ede:	f859 0d04 	ldr.w	r0, [r9, #-4]!
 8000ee2:	69a1      	ldr	r1, [r4, #24]
 8000ee4:	b500      	push	{lr}
 8000ee6:	f7ff fbdd 	bl	80006a4 <print_int>
 8000eea:	f85d eb04 	ldr.w	lr, [sp], #4
 8000eee:	e7f4      	b.n	8000eda <show_data_stack+0x1a>
 8000ef0:	b500      	push	{lr}
 8000ef2:	f7ff ff21 	bl	8000d38 <cr>
 8000ef6:	f85d eb04 	ldr.w	lr, [sp], #4
 8000efa:	e8bd 0303 	ldmia.w	sp!, {r0, r1, r8, r9}
 8000efe:	4770      	bx	lr

08000f00 <data_stack>:
 8000f00:	08000f04 	stmdaeq	r0, {r2, r8, r9, sl, fp}
 8000f04:	61747364 	cmnvs	r4, r4, ror #6
 8000f08:	203a6b63 	eorscs	r6, sl, r3, ror #22
 8000f0c:	bf000000 	svclt	0x00000000

08000f10 <show_main_stack>:
 8000f10:	e92c 0303 	stmdb	ip!, {r0, r1, r8, r9}
 8000f14:	f8df 003c 	ldr.w	r0, [pc, #60]	; 8000f54 <main_stack>
 8000f18:	b500      	push	{lr}
 8000f1a:	f7ff fb59 	bl	80005d0 <uart_puts>
 8000f1e:	f85d eb04 	ldr.w	lr, [sp], #4
 8000f22:	f44f 49a0 	mov.w	r9, #20480	; 0x5000
 8000f26:	f2c2 0900 	movt	r9, #8192	; 0x2000
 8000f2a:	f10d 0804 	add.w	r8, sp, #4
 8000f2e:	45c1      	cmp	r9, r8
 8000f30:	d008      	beq.n	8000f44 <show_main_stack+0x34>
 8000f32:	f859 0d04 	ldr.w	r0, [r9, #-4]!
 8000f36:	69a1      	ldr	r1, [r4, #24]
 8000f38:	b500      	push	{lr}
 8000f3a:	f7ff fbb3 	bl	80006a4 <print_int>
 8000f3e:	f85d eb04 	ldr.w	lr, [sp], #4
 8000f42:	e7f4      	b.n	8000f2e <show_main_stack+0x1e>
 8000f44:	b500      	push	{lr}
 8000f46:	f7ff fef7 	bl	8000d38 <cr>
 8000f4a:	f85d eb04 	ldr.w	lr, [sp], #4
 8000f4e:	e8bc 0303 	ldmia.w	ip!, {r0, r1, r8, r9}
 8000f52:	4770      	bx	lr

08000f54 <main_stack>:
 8000f54:	08000f58 	stmdaeq	r0, {r3, r4, r6, r8, r9, sl, fp}
 8000f58:	61747372 	cmnvs	r4, r2, ror r3
 8000f5c:	203a6b63 	eorscs	r6, sl, r3, ror #22
 8000f60:	bf000000 	svclt	0x00000000

08000f64 <show_trace>:
 8000f64:	b404      	push	{r2}
 8000f66:	f8d4 20cc 	ldr.w	r2, [r4, #204]	; 0xcc
 8000f6a:	b1ba      	cbz	r2, 8000f9c <show_trace+0x38>
 8000f6c:	b500      	push	{lr}
 8000f6e:	f7ff fee3 	bl	8000d38 <cr>
 8000f72:	f85d eb04 	ldr.w	lr, [sp], #4
 8000f76:	b500      	push	{lr}
 8000f78:	f7ff ff90 	bl	8000e9c <show_line_nbr>
 8000f7c:	f85d eb04 	ldr.w	lr, [sp], #4
 8000f80:	2a02      	cmp	r2, #2
 8000f82:	d40b      	bmi.n	8000f9c <show_trace+0x38>
 8000f84:	b500      	push	{lr}
 8000f86:	f7ff ff9b 	bl	8000ec0 <show_data_stack>
 8000f8a:	f85d eb04 	ldr.w	lr, [sp], #4
 8000f8e:	2a03      	cmp	r2, #3
 8000f90:	d404      	bmi.n	8000f9c <show_trace+0x38>
 8000f92:	b500      	push	{lr}
 8000f94:	f7ff ffbc 	bl	8000f10 <show_main_stack>
 8000f98:	f85d eb04 	ldr.w	lr, [sp], #4
 8000f9c:	bc04      	pop	{r2}
 8000f9e:	4770      	bx	lr

08000fa0 <prt_chars>:
 8000fa0:	b404      	push	{r2}
 8000fa2:	4602      	mov	r2, r0
 8000fa4:	f812 0b01 	ldrb.w	r0, [r2], #1
 8000fa8:	2820      	cmp	r0, #32
 8000faa:	d501      	bpl.n	8000fb0 <prt_chars+0x10>
 8000fac:	f04f 005f 	mov.w	r0, #95	; 0x5f
 8000fb0:	b500      	push	{lr}
 8000fb2:	f7ff f9ed 	bl	8000390 <uart_putc>
 8000fb6:	f85d eb04 	ldr.w	lr, [sp], #4
 8000fba:	3901      	subs	r1, #1
 8000fbc:	d1f2      	bne.n	8000fa4 <prt_chars+0x4>
 8000fbe:	4610      	mov	r0, r2
 8000fc0:	bc04      	pop	{r2}
 8000fc2:	4770      	bx	lr

08000fc4 <search_target>:
 8000fc4:	b500      	push	{lr}
 8000fc6:	f000 fde7 	bl	8001b98 <next_token>
 8000fca:	f85d eb04 	ldr.w	lr, [sp], #4
 8000fce:	281a      	cmp	r0, #26
 8000fd0:	d106      	bne.n	8000fe0 <search_target+0x1c>
 8000fd2:	b500      	push	{lr}
 8000fd4:	f000 f832 	bl	800103c <search_label>
 8000fd8:	f85d eb04 	ldr.w	lr, [sp], #4
 8000fdc:	b1a0      	cbz	r0, 8001008 <search_target+0x44>
 8000fde:	e016      	b.n	800100e <search_target+0x4a>
 8000fe0:	f8d4 a000 	ldr.w	sl, [r4]
 8000fe4:	f8d4 b008 	ldr.w	fp, [r4, #8]
 8000fe8:	b500      	push	{lr}
 8000fea:	f000 fefb 	bl	8001de4 <expression>
 8000fee:	f85d eb04 	ldr.w	lr, [sp], #4
 8000ff2:	281b      	cmp	r0, #27
 8000ff4:	f040 83da 	bne.w	80017ac <syntax_error>
 8000ff8:	b148      	cbz	r0, 800100e <search_target+0x4a>
 8000ffa:	4608      	mov	r0, r1
 8000ffc:	b500      	push	{lr}
 8000ffe:	f000 f831 	bl	8001064 <search_lineno>
 8001002:	f85d eb04 	ldr.w	lr, [sp], #4
 8001006:	b111      	cbz	r1, 800100e <search_target+0x4a>
 8001008:	f04f 000a 	mov.w	r0, #10
 800100c:	e3d2      	b.n	80017b4 <tb_error>
 800100e:	4770      	bx	lr

08001010 <search_const>:
 8001010:	b40c      	push	{r2, r3}
 8001012:	6b62      	ldr	r2, [r4, #52]	; 0x34
 8001014:	f8d4 30d0 	ldr.w	r3, [r4, #208]	; 0xd0
 8001018:	429a      	cmp	r2, r3
 800101a:	d50b      	bpl.n	8001034 <search_const+0x24>
 800101c:	f852 1b04 	ldr.w	r1, [r2], #4
 8001020:	4288      	cmp	r0, r1
 8001022:	d002      	beq.n	800102a <search_const+0x1a>
 8001024:	f102 0204 	add.w	r2, r2, #4
 8001028:	e7f6      	b.n	8001018 <search_const+0x8>
 800102a:	6811      	ldr	r1, [r2, #0]
 800102c:	f04f 001b 	mov.w	r0, #27
 8001030:	bc0c      	pop	{r2, r3}
 8001032:	4770      	bx	lr
 8001034:	f04f 000a 	mov.w	r0, #10
 8001038:	e3bc      	b.n	80017b4 <tb_error>
 800103a:	bf00      	nop

0800103c <search_label>:
 800103c:	b40c      	push	{r2, r3}
 800103e:	6b22      	ldr	r2, [r4, #48]	; 0x30
 8001040:	6b63      	ldr	r3, [r4, #52]	; 0x34
 8001042:	429a      	cmp	r2, r3
 8001044:	d00a      	beq.n	800105c <search_label+0x20>
 8001046:	78d0      	ldrb	r0, [r2, #3]
 8001048:	281a      	cmp	r0, #26
 800104a:	d002      	beq.n	8001052 <search_label+0x16>
 800104c:	7890      	ldrb	r0, [r2, #2]
 800104e:	4402      	add	r2, r0
 8001050:	e7f7      	b.n	8001042 <search_label+0x6>
 8001052:	6850      	ldr	r0, [r2, #4]
 8001054:	4281      	cmp	r1, r0
 8001056:	d1f9      	bne.n	800104c <search_label+0x10>
 8001058:	4610      	mov	r0, r2
 800105a:	e001      	b.n	8001060 <search_label+0x24>
 800105c:	ea80 0000 	eor.w	r0, r0, r0
 8001060:	bc0c      	pop	{r2, r3}
 8001062:	4770      	bx	lr

08001064 <search_lineno>:
 8001064:	b40c      	push	{r2, r3}
 8001066:	4603      	mov	r3, r0
 8001068:	6b20      	ldr	r0, [r4, #48]	; 0x30
 800106a:	6b62      	ldr	r2, [r4, #52]	; 0x34
 800106c:	4290      	cmp	r0, r2
 800106e:	d005      	beq.n	800107c <search_lineno+0x18>
 8001070:	8801      	ldrh	r1, [r0, #0]
 8001072:	1ac9      	subs	r1, r1, r3
 8001074:	d504      	bpl.n	8001080 <search_lineno+0x1c>
 8001076:	7881      	ldrb	r1, [r0, #2]
 8001078:	4408      	add	r0, r1
 800107a:	e7f7      	b.n	800106c <search_lineno+0x8>
 800107c:	f04f 31ff 	mov.w	r1, #4294967295	; 0xffffffff
 8001080:	bc0c      	pop	{r2, r3}
 8001082:	4770      	bx	lr

08001084 <delete_line>:
 8001084:	e92d 0307 	stmdb	sp!, {r0, r1, r2, r8, r9}
 8001088:	4601      	mov	r1, r0
 800108a:	f891 8002 	ldrb.w	r8, [r1, #2]
 800108e:	4440      	add	r0, r8
 8001090:	f8d4 9034 	ldr.w	r9, [r4, #52]	; 0x34
 8001094:	eba9 0200 	sub.w	r2, r9, r0
 8001098:	b500      	push	{lr}
 800109a:	f7ff fe79 	bl	8000d90 <cmove>
 800109e:	f85d eb04 	ldr.w	lr, [sp], #4
 80010a2:	eba9 0908 	sub.w	r9, r9, r8
 80010a6:	f8c4 9034 	str.w	r9, [r4, #52]	; 0x34
 80010aa:	e8bd 0307 	ldmia.w	sp!, {r0, r1, r2, r8, r9}
 80010ae:	4770      	bx	lr

080010b0 <create_gap>:
 80010b0:	e92d 0305 	stmdb	sp!, {r0, r2, r8, r9}
 80010b4:	4688      	mov	r8, r1
 80010b6:	4401      	add	r1, r0
 80010b8:	f8d4 9034 	ldr.w	r9, [r4, #52]	; 0x34
 80010bc:	eba9 0200 	sub.w	r2, r9, r0
 80010c0:	b500      	push	{lr}
 80010c2:	f7ff fe65 	bl	8000d90 <cmove>
 80010c6:	f85d eb04 	ldr.w	lr, [sp], #4
 80010ca:	44c1      	add	r9, r8
 80010cc:	f8c4 9034 	str.w	r9, [r4, #52]	; 0x34
 80010d0:	e8bd 0305 	ldmia.w	sp!, {r0, r2, r8, r9}
 80010d4:	4770      	bx	lr
 80010d6:	bf00      	nop

080010d8 <insert_line>:
 80010d8:	e92d 0302 	stmdb	sp!, {r1, r8, r9}
 80010dc:	4680      	mov	r8, r0
 80010de:	f8b8 0000 	ldrh.w	r0, [r8]
 80010e2:	b500      	push	{lr}
 80010e4:	f7ff ffbe 	bl	8001064 <search_lineno>
 80010e8:	f85d eb04 	ldr.w	lr, [sp], #4
 80010ec:	b949      	cbnz	r1, 8001102 <insert_line+0x2a>
 80010ee:	b500      	push	{lr}
 80010f0:	f7ff ffc8 	bl	8001084 <delete_line>
 80010f4:	f85d eb04 	ldr.w	lr, [sp], #4
 80010f8:	f898 9002 	ldrb.w	r9, [r8, #2]
 80010fc:	f1b9 0f04 	cmp.w	r9, #4
 8001100:	d00e      	beq.n	8001120 <insert_line+0x48>
 8001102:	f898 1002 	ldrb.w	r1, [r8, #2]
 8001106:	b500      	push	{lr}
 8001108:	f7ff ffd2 	bl	80010b0 <create_gap>
 800110c:	f85d eb04 	ldr.w	lr, [sp], #4
 8001110:	4601      	mov	r1, r0
 8001112:	4640      	mov	r0, r8
 8001114:	7882      	ldrb	r2, [r0, #2]
 8001116:	b500      	push	{lr}
 8001118:	f7ff fe3a 	bl	8000d90 <cmove>
 800111c:	f85d eb04 	ldr.w	lr, [sp], #4
 8001120:	e8bd 0302 	ldmia.w	sp!, {r1, r8, r9}
 8001124:	4770      	bx	lr
 8001126:	bf00      	nop

08001128 <compile>:
 8001128:	4680      	mov	r8, r0
 800112a:	6061      	str	r1, [r4, #4]
 800112c:	f8df 99c4 	ldr.w	r9, [pc, #2500]	; 8001af4 <pad>
 8001130:	ea83 0303 	eor.w	r3, r3, r3
 8001134:	6c20      	ldr	r0, [r4, #64]	; 0x40
 8001136:	f040 0020 	orr.w	r0, r0, #32
 800113a:	6420      	str	r0, [r4, #64]	; 0x40
 800113c:	ea80 0000 	eor.w	r0, r0, r0
 8001140:	f829 0b02 	strh.w	r0, [r9], #2
 8001144:	f809 0b01 	strb.w	r0, [r9], #1
 8001148:	6020      	str	r0, [r4, #0]
 800114a:	f8c4 8008 	str.w	r8, [r4, #8]
 800114e:	b500      	push	{lr}
 8001150:	f000 f968 	bl	8001424 <parse_int>
 8001154:	f85d eb04 	ldr.w	lr, [sp], #4
 8001158:	d00a      	beq.n	8001170 <compile+0x48>
 800115a:	2901      	cmp	r1, #1
 800115c:	d502      	bpl.n	8001164 <compile+0x3c>
 800115e:	f04f 000a 	mov.w	r0, #10
 8001162:	e327      	b.n	80017b4 <tb_error>
 8001164:	f5b1 3f80 	cmp.w	r1, #65536	; 0x10000
 8001168:	d5f9      	bpl.n	800115e <compile+0x36>
 800116a:	f829 1c03 	strh.w	r1, [r9, #-3]
 800116e:	6023      	str	r3, [r4, #0]
 8001170:	45c1      	cmp	r9, r8
 8001172:	db02      	blt.n	800117a <compile+0x52>
 8001174:	f04f 000f 	mov.w	r0, #15
 8001178:	e31c      	b.n	80017b4 <tb_error>
 800117a:	b500      	push	{lr}
 800117c:	f000 f828 	bl	80011d0 <comp_token>
 8001180:	f85d eb04 	ldr.w	lr, [sp], #4
 8001184:	2800      	cmp	r0, #0
 8001186:	d001      	beq.n	800118c <compile+0x64>
 8001188:	6023      	str	r3, [r4, #0]
 800118a:	e7f1      	b.n	8001170 <compile+0x48>
 800118c:	f8df 3964 	ldr.w	r3, [pc, #2404]	; 8001af4 <pad>
 8001190:	eba9 0003 	sub.w	r0, r9, r3
 8001194:	7098      	strb	r0, [r3, #2]
 8001196:	6060      	str	r0, [r4, #4]
 8001198:	8818      	ldrh	r0, [r3, #0]
 800119a:	b170      	cbz	r0, 80011ba <compile+0x92>
 800119c:	6c20      	ldr	r0, [r4, #64]	; 0x40
 800119e:	f010 0f08 	tst.w	r0, #8
 80011a2:	d002      	beq.n	80011aa <compile+0x82>
 80011a4:	f04f 0010 	mov.w	r0, #16
 80011a8:	e304      	b.n	80017b4 <tb_error>
 80011aa:	4618      	mov	r0, r3
 80011ac:	b500      	push	{lr}
 80011ae:	f7ff ff93 	bl	80010d8 <insert_line>
 80011b2:	f85d eb04 	ldr.w	lr, [sp], #4
 80011b6:	4040      	eors	r0, r0
 80011b8:	e008      	b.n	80011cc <compile+0xa4>
 80011ba:	469b      	mov	fp, r3
 80011bc:	f04f 0a03 	mov.w	sl, #3
 80011c0:	6c20      	ldr	r0, [r4, #64]	; 0x40
 80011c2:	f1a0 0020 	sub.w	r0, r0, #32
 80011c6:	6420      	str	r0, [r4, #64]	; 0x40
 80011c8:	f05f 30ff 	movs.w	r0, #4294967295	; 0xffffffff
 80011cc:	4770      	bx	lr
 80011ce:	bf00      	nop

080011d0 <comp_token>:
 80011d0:	b440      	push	{r6}
 80011d2:	f818 0003 	ldrb.w	r0, [r8, r3]
 80011d6:	4000      	ands	r0, r0
 80011d8:	d07d      	beq.n	80012d6 <store_r0>
 80011da:	f04f 0020 	mov.w	r0, #32
 80011de:	b500      	push	{lr}
 80011e0:	f000 f970 	bl	80014c4 <skip>
 80011e4:	f85d eb04 	ldr.w	lr, [sp], #4
 80011e8:	f818 0003 	ldrb.w	r0, [r8, r3]
 80011ec:	4000      	ands	r0, r0
 80011ee:	d072      	beq.n	80012d6 <store_r0>
 80011f0:	f103 0301 	add.w	r3, r3, #1
 80011f4:	b500      	push	{lr}
 80011f6:	f000 f999 	bl	800152c <is_letter>
 80011fa:	f85d eb04 	ldr.w	lr, [sp], #4
 80011fe:	d10b      	bne.n	8001218 <comp_token+0x48>
 8001200:	f1a3 0301 	sub.w	r3, r3, #1
 8001204:	b500      	push	{lr}
 8001206:	f000 f8af 	bl	8001368 <comp_label>
 800120a:	f85d eb04 	ldr.w	lr, [sp], #4
 800120e:	2817      	cmp	r0, #23
 8001210:	d171      	bne.n	80012f6 <token_exit>
 8001212:	293a      	cmp	r1, #58	; 0x3a
 8001214:	d04d      	beq.n	80012b2 <tick2>
 8001216:	e06e      	b.n	80012f6 <token_exit>
 8001218:	b500      	push	{lr}
 800121a:	f000 f86f 	bl	80012fc <is_special>
 800121e:	f85d eb04 	ldr.w	lr, [sp], #4
 8001222:	f8df 6ce0 	ldr.w	r6, [pc, #3296]	; 8001f04 <set_var+0x10>
 8001226:	e8d6 f011 	tbh	[r6, r1, lsl #1]

0800122a <tok_idx0>:
 800122a:	e057      	b.n	80012dc <try_number>

0800122c <single>:
 800122c:	f8df 6cd8 	ldr.w	r6, [pc, #3288]	; 8001f08 <set_var+0x14>
 8001230:	5c70      	ldrb	r0, [r6, r1]
 8001232:	e050      	b.n	80012d6 <store_r0>

08001234 <lt>:
 8001234:	f04f 000f 	mov.w	r0, #15
 8001238:	f818 1003 	ldrb.w	r1, [r8, r3]
 800123c:	293e      	cmp	r1, #62	; 0x3e
 800123e:	d006      	beq.n	800124e <gt+0xc>
 8001240:	e00a      	b.n	8001258 <gt+0x16>

08001242 <gt>:
 8001242:	f04f 000e 	mov.w	r0, #14
 8001246:	f818 1003 	ldrb.w	r1, [r8, r3]
 800124a:	293c      	cmp	r1, #60	; 0x3c
 800124c:	d104      	bne.n	8001258 <gt+0x16>
 800124e:	f103 0301 	add.w	r3, r3, #1
 8001252:	f04f 0012 	mov.w	r0, #18
 8001256:	e03e      	b.n	80012d6 <store_r0>
 8001258:	293d      	cmp	r1, #61	; 0x3d
 800125a:	d13c      	bne.n	80012d6 <store_r0>
 800125c:	f103 0301 	add.w	r3, r3, #1
 8001260:	f100 0002 	add.w	r0, r0, #2
 8001264:	e037      	b.n	80012d6 <store_r0>

08001266 <bkslash>:
 8001266:	f818 1003 	ldrb.w	r1, [r8, r3]
 800126a:	f103 0301 	add.w	r3, r3, #1
 800126e:	f04f 0013 	mov.w	r0, #19
 8001272:	f809 0b01 	strb.w	r0, [r9], #1
 8001276:	f809 1b01 	strb.w	r1, [r9], #1
 800127a:	e03c      	b.n	80012f6 <token_exit>

0800127c <prt_cmd>:
 800127c:	f04f 0017 	mov.w	r0, #23
 8001280:	f04f 0135 	mov.w	r1, #53	; 0x35
 8001284:	f809 0b01 	strb.w	r0, [r9], #1
 8001288:	f809 1b01 	strb.w	r1, [r9], #1
 800128c:	e033      	b.n	80012f6 <token_exit>

0800128e <quote>:
 800128e:	f04f 001c 	mov.w	r0, #28
 8001292:	f809 0b01 	strb.w	r0, [r9], #1
 8001296:	b500      	push	{lr}
 8001298:	f000 f8e0 	bl	800145c <parse_quote>
 800129c:	f85d eb04 	ldr.w	lr, [sp], #4
 80012a0:	e029      	b.n	80012f6 <token_exit>

080012a2 <tick>:
 80012a2:	f04f 0017 	mov.w	r0, #23
 80012a6:	f04f 013a 	mov.w	r1, #58	; 0x3a
 80012aa:	f809 0b01 	strb.w	r0, [r9], #1
 80012ae:	f809 1b01 	strb.w	r1, [r9], #1

080012b2 <tick2>:
 80012b2:	eb08 0003 	add.w	r0, r8, r3
 80012b6:	4649      	mov	r1, r9
 80012b8:	b500      	push	{lr}
 80012ba:	f7ff fd7f 	bl	8000dbc <strcpy>
 80012be:	f85d eb04 	ldr.w	lr, [sp], #4
 80012c2:	b500      	push	{lr}
 80012c4:	f7ff fd58 	bl	8000d78 <strlen>
 80012c8:	f85d eb04 	ldr.w	lr, [sp], #4
 80012cc:	4481      	add	r9, r0
 80012ce:	f109 0901 	add.w	r9, r9, #1
 80012d2:	6863      	ldr	r3, [r4, #4]
 80012d4:	e00f      	b.n	80012f6 <token_exit>

080012d6 <store_r0>:
 80012d6:	f809 0b01 	strb.w	r0, [r9], #1
 80012da:	e00c      	b.n	80012f6 <token_exit>

080012dc <try_number>:
 80012dc:	f1a3 0301 	sub.w	r3, r3, #1
 80012e0:	b500      	push	{lr}
 80012e2:	f000 f89f 	bl	8001424 <parse_int>
 80012e6:	f85d eb04 	ldr.w	lr, [sp], #4
 80012ea:	f000 825f 	beq.w	80017ac <syntax_error>
 80012ee:	f809 0b01 	strb.w	r0, [r9], #1
 80012f2:	f849 1b04 	str.w	r1, [r9], #4

080012f6 <token_exit>:
 80012f6:	bc40      	pop	{r6}
 80012f8:	4770      	bx	lr
 80012fa:	bf00      	nop

080012fc <is_special>:
 80012fc:	b40c      	push	{r2, r3}
 80012fe:	f04f 0101 	mov.w	r1, #1
 8001302:	f8df 3c08 	ldr.w	r3, [pc, #3080]	; 8001f0c <set_var+0x18>
 8001306:	5c5a      	ldrb	r2, [r3, r1]
 8001308:	b122      	cbz	r2, 8001314 <is_special+0x18>
 800130a:	4282      	cmp	r2, r0
 800130c:	d004      	beq.n	8001318 <is_special+0x1c>
 800130e:	f101 0101 	add.w	r1, r1, #1
 8001312:	e7f8      	b.n	8001306 <is_special+0xa>
 8001314:	ea81 0101 	eor.w	r1, r1, r1
 8001318:	bc0c      	pop	{r2, r3}
 800131a:	4770      	bx	lr

0800131c <char_list>:
 800131c:	403b2c20 	eorsmi	r2, fp, r0, lsr #24
 8001320:	233a2928 	teqcs	sl, #40, 18	; 0xa0000
 8001324:	2f2a2b2d 	svccs	0x002a2b2d
 8001328:	3e3c3d25 	cdpcc	13, 3, cr3, cr12, cr5, {1}
 800132c:	22273f5c 	eorcs	r3, r7, #92, 30	; 0x170
	...

08001331 <tok_single>:
 8001331:	0c030200 	sfmeq	f0, 4, [r3], {-0}
 8001335:	04010605 	streq	r0, [r1], #-1541	; 0xfffff9fb
 8001339:	0a090708 	beq	8242f61 <FLASH_HIDDEN_END+0x222f61>
 800133d:	 	andeq	r0, r0, fp, lsl #26

08001340 <token_ofs>:
 8001340:	00010000 	andeq	r0, r1, r0
 8001344:	00010001 	andeq	r0, r1, r1
 8001348:	00010001 	andeq	r0, r1, r1
 800134c:	00010001 	andeq	r0, r1, r1
 8001350:	00010001 	andeq	r0, r1, r1
 8001354:	00010001 	andeq	r0, r1, r1
 8001358:	00010001 	andeq	r0, r1, r1
 800135c:	000c0005 	andeq	r0, ip, r5
 8001360:	0029001e 	eoreq	r0, r9, lr, lsl r0
 8001364:	0032003c 	eorseq	r0, r2, ip, lsr r0

08001368 <comp_label>:
 8001368:	b424      	push	{r2, r5}
 800136a:	f84d 9d04 	str.w	r9, [sp, #-4]!
 800136e:	ea82 0202 	eor.w	r2, r2, r2
 8001372:	f04f 0506 	mov.w	r5, #6
 8001376:	f818 0003 	ldrb.w	r0, [r8, r3]
 800137a:	b500      	push	{lr}
 800137c:	f000 f8d6 	bl	800152c <is_letter>
 8001380:	f85d eb04 	ldr.w	lr, [sp], #4
 8001384:	d109      	bne.n	800139a <comp_label+0x32>
 8001386:	b500      	push	{lr}
 8001388:	f000 f8a8 	bl	80014dc <upper>
 800138c:	f85d eb04 	ldr.w	lr, [sp], #4
 8001390:	f809 0b01 	strb.w	r0, [r9], #1
 8001394:	f103 0301 	add.w	r3, r3, #1
 8001398:	e7ed      	b.n	8001376 <comp_label+0xe>
 800139a:	ea80 0000 	eor.w	r0, r0, r0
 800139e:	f889 0000 	strb.w	r0, [r9]
 80013a2:	f85d 9b04 	ldr.w	r9, [sp], #4
 80013a6:	f899 0001 	ldrb.w	r0, [r9, #1]
 80013aa:	b930      	cbnz	r0, 80013ba <comp_label+0x52>
 80013ac:	f899 1000 	ldrb.w	r1, [r9]
 80013b0:	f1a1 0141 	sub.w	r1, r1, #65	; 0x41
 80013b4:	f04f 0014 	mov.w	r0, #20
 80013b8:	e01c      	b.n	80013f4 <comp_label+0x8c>
 80013ba:	4648      	mov	r0, r9
 80013bc:	f8df 1b50 	ldr.w	r1, [pc, #2896]	; 8001f10 <set_var+0x1c>
 80013c0:	b500      	push	{lr}
 80013c2:	f000 fab5 	bl	8001930 <search_dict>
 80013c6:	f85d eb04 	ldr.w	lr, [sp], #4
 80013ca:	b130      	cbz	r0, 80013da <comp_label+0x72>
 80013cc:	2818      	cmp	r0, #24
 80013ce:	d111      	bne.n	80013f4 <comp_label+0x8c>
 80013d0:	f809 0b01 	strb.w	r0, [r9], #1
 80013d4:	f849 1b04 	str.w	r1, [r9], #4
 80013d8:	e010      	b.n	80013fc <comp_label+0x94>
 80013da:	4648      	mov	r0, r9
 80013dc:	b500      	push	{lr}
 80013de:	f000 f80f 	bl	8001400 <compress_label>
 80013e2:	f85d eb04 	ldr.w	lr, [sp], #4
 80013e6:	f04f 001a 	mov.w	r0, #26
 80013ea:	f809 0b01 	strb.w	r0, [r9], #1
 80013ee:	f849 1b04 	str.w	r1, [r9], #4
 80013f2:	e003      	b.n	80013fc <comp_label+0x94>
 80013f4:	f809 0b01 	strb.w	r0, [r9], #1
 80013f8:	f809 1b01 	strb.w	r1, [r9], #1
 80013fc:	bc24      	pop	{r2, r5}
 80013fe:	4770      	bx	lr

08001400 <compress_label>:
 8001400:	b40c      	push	{r2, r3}
 8001402:	ea82 0202 	eor.w	r2, r2, r2
 8001406:	f04f 0306 	mov.w	r3, #6
 800140a:	f810 1b01 	ldrb.w	r1, [r0], #1
 800140e:	b131      	cbz	r1, 800141e <compress_label+0x1e>
 8001410:	f1a1 0140 	sub.w	r1, r1, #64	; 0x40
 8001414:	ea4f 1242 	mov.w	r2, r2, lsl #5
 8001418:	440a      	add	r2, r1
 800141a:	3b01      	subs	r3, #1
 800141c:	d1f5      	bne.n	800140a <compress_label+0xa>
 800141e:	4611      	mov	r1, r2
 8001420:	bc0c      	pop	{r2, r3}
 8001422:	4770      	bx	lr

08001424 <parse_int>:
 8001424:	f04f 010a 	mov.w	r1, #10
 8001428:	f818 0003 	ldrb.w	r0, [r8, r3]
 800142c:	2824      	cmp	r0, #36	; 0x24
 800142e:	d102      	bne.n	8001436 <parse_int+0x12>
 8001430:	f04f 0110 	mov.w	r1, #16
 8001434:	e003      	b.n	800143e <parse_int+0x1a>
 8001436:	2826      	cmp	r0, #38	; 0x26
 8001438:	d103      	bne.n	8001442 <parse_int+0x1e>
 800143a:	f04f 0102 	mov.w	r1, #2
 800143e:	f103 0301 	add.w	r3, r3, #1
 8001442:	eb03 0008 	add.w	r0, r3, r8
 8001446:	b500      	push	{lr}
 8001448:	f000 f880 	bl	800154c <atoi>
 800144c:	f85d eb04 	ldr.w	lr, [sp], #4
 8001450:	b110      	cbz	r0, 8001458 <parse_int+0x34>
 8001452:	4403      	add	r3, r0
 8001454:	f04f 001b 	mov.w	r0, #27
 8001458:	4000      	ands	r0, r0
 800145a:	4770      	bx	lr

0800145c <parse_quote>:
 800145c:	f84d 9d04 	str.w	r9, [sp, #-4]!
 8001460:	f818 0003 	ldrb.w	r0, [r8, r3]
 8001464:	f103 0301 	add.w	r3, r3, #1
 8001468:	2822      	cmp	r0, #34	; 0x22
 800146a:	d009      	beq.n	8001480 <parse_quote+0x24>
 800146c:	285c      	cmp	r0, #92	; 0x5c
 800146e:	d104      	bne.n	800147a <parse_quote+0x1e>
 8001470:	b500      	push	{lr}
 8001472:	f000 f80d 	bl	8001490 <get_escaped_char>
 8001476:	f85d eb04 	ldr.w	lr, [sp], #4
 800147a:	f809 0b01 	strb.w	r0, [r9], #1
 800147e:	e7ef      	b.n	8001460 <parse_quote+0x4>
 8001480:	ea80 0000 	eor.w	r0, r0, r0
 8001484:	f809 0b01 	strb.w	r0, [r9], #1
 8001488:	f04f 001c 	mov.w	r0, #28
 800148c:	bc02      	pop	{r1}
 800148e:	4770      	bx	lr

08001490 <get_escaped_char>:
 8001490:	b406      	push	{r1, r2}
 8001492:	f818 0003 	ldrb.w	r0, [r8, r3]
 8001496:	f103 0301 	add.w	r3, r3, #1
 800149a:	2822      	cmp	r0, #34	; 0x22
 800149c:	d00b      	beq.n	80014b6 <get_escaped_char+0x26>
 800149e:	f8df 1a74 	ldr.w	r1, [pc, #2676]	; 8001f14 <set_var+0x20>
 80014a2:	f811 2b01 	ldrb.w	r2, [r1], #1
 80014a6:	b112      	cbz	r2, 80014ae <get_escaped_char+0x1e>
 80014a8:	4282      	cmp	r2, r0
 80014aa:	d002      	beq.n	80014b2 <get_escaped_char+0x22>
 80014ac:	e7f9      	b.n	80014a2 <get_escaped_char+0x12>
 80014ae:	f1a0 0207 	sub.w	r2, r0, #7
 80014b2:	f102 0007 	add.w	r0, r2, #7
 80014b6:	bc06      	pop	{r1, r2}
 80014b8:	4770      	bx	lr

080014ba <escaped>:
 80014ba:	6e746261 	cdpvs	2, 7, cr6, cr4, cr1, {3}
 80014be:	00726676 	rsbseq	r6, r2, r6, ror r6
 80014c2:	bf00      	nop

080014c4 <skip>:
 80014c4:	b402      	push	{r1}
 80014c6:	f818 1003 	ldrb.w	r1, [r8, r3]
 80014ca:	4281      	cmp	r1, r0
 80014cc:	d102      	bne.n	80014d4 <skip+0x10>
 80014ce:	f103 0301 	add.w	r3, r3, #1
 80014d2:	e7f8      	b.n	80014c6 <skip+0x2>
 80014d4:	6023      	str	r3, [r4, #0]
 80014d6:	bc02      	pop	{r1}
 80014d8:	4770      	bx	lr
 80014da:	bf00      	nop

080014dc <upper>:
 80014dc:	2861      	cmp	r0, #97	; 0x61
 80014de:	db03      	blt.n	80014e8 <upper+0xc>
 80014e0:	287a      	cmp	r0, #122	; 0x7a
 80014e2:	dc01      	bgt.n	80014e8 <upper+0xc>
 80014e4:	f000 005f 	and.w	r0, r0, #95	; 0x5f
 80014e8:	4770      	bx	lr
 80014ea:	bf00      	nop

080014ec <is_digit>:
 80014ec:	b402      	push	{r1}
 80014ee:	f04f 31ff 	mov.w	r1, #4294967295	; 0xffffffff
 80014f2:	2830      	cmp	r0, #48	; 0x30
 80014f4:	db05      	blt.n	8001502 <is_digit+0x16>
 80014f6:	283a      	cmp	r0, #58	; 0x3a
 80014f8:	d503      	bpl.n	8001502 <is_digit+0x16>
 80014fa:	ea81 0101 	eor.w	r1, r1, r1
 80014fe:	f1a0 0030 	sub.w	r0, r0, #48	; 0x30
 8001502:	4009      	ands	r1, r1
 8001504:	bc02      	pop	{r1}
 8001506:	4770      	bx	lr

08001508 <is_hex>:
 8001508:	b402      	push	{r1}
 800150a:	ea80 0000 	eor.w	r0, r0, r0
 800150e:	2841      	cmp	r0, #65	; 0x41
 8001510:	d401      	bmi.n	8001516 <is_hex+0xe>
 8001512:	f1a0 0007 	sub.w	r0, r0, #7
 8001516:	f1a0 0030 	sub.w	r0, r0, #48	; 0x30
 800151a:	d401      	bmi.n	8001520 <is_hex+0x18>
 800151c:	2810      	cmp	r0, #16
 800151e:	d401      	bmi.n	8001524 <is_hex+0x1c>
 8001520:	ea6f 0101 	mvn.w	r1, r1
 8001524:	4009      	ands	r1, r1
 8001526:	bc02      	pop	{r1}
 8001528:	4770      	bx	lr
 800152a:	bf00      	nop

0800152c <is_letter>:
 800152c:	b402      	push	{r1}
 800152e:	ea81 0101 	eor.w	r1, r1, r1
 8001532:	2841      	cmp	r0, #65	; 0x41
 8001534:	d405      	bmi.n	8001542 <is_letter+0x16>
 8001536:	285b      	cmp	r0, #91	; 0x5b
 8001538:	d405      	bmi.n	8001546 <is_letter+0x1a>
 800153a:	2861      	cmp	r0, #97	; 0x61
 800153c:	d401      	bmi.n	8001542 <is_letter+0x16>
 800153e:	287b      	cmp	r0, #123	; 0x7b
 8001540:	d401      	bmi.n	8001546 <is_letter+0x1a>
 8001542:	ea6f 0101 	mvn.w	r1, r1
 8001546:	4009      	ands	r1, r1
 8001548:	bc02      	pop	{r1}
 800154a:	4770      	bx	lr

0800154c <atoi>:
 800154c:	e92d 0304 	stmdb	sp!, {r2, r8, r9}
 8001550:	4680      	mov	r8, r0
 8001552:	460a      	mov	r2, r1
 8001554:	ea81 0101 	eor.w	r1, r1, r1
 8001558:	ea89 0909 	eor.w	r9, r9, r9
 800155c:	f818 0b01 	ldrb.w	r0, [r8], #1
 8001560:	b500      	push	{lr}
 8001562:	f7ff ffbb 	bl	80014dc <upper>
 8001566:	f85d eb04 	ldr.w	lr, [sp], #4
 800156a:	2830      	cmp	r0, #48	; 0x30
 800156c:	d40f      	bmi.n	800158e <atoi+0x42>
 800156e:	283a      	cmp	r0, #58	; 0x3a
 8001570:	d403      	bmi.n	800157a <atoi+0x2e>
 8001572:	2841      	cmp	r0, #65	; 0x41
 8001574:	d40b      	bmi.n	800158e <atoi+0x42>
 8001576:	f1a0 0007 	sub.w	r0, r0, #7
 800157a:	f1a0 0030 	sub.w	r0, r0, #48	; 0x30
 800157e:	4290      	cmp	r0, r2
 8001580:	d505      	bpl.n	800158e <atoi+0x42>
 8001582:	fb02 f101 	mul.w	r1, r2, r1
 8001586:	4401      	add	r1, r0
 8001588:	f109 0901 	add.w	r9, r9, #1
 800158c:	e7e6      	b.n	800155c <atoi+0x10>
 800158e:	4648      	mov	r0, r9
 8001590:	e8bd 0304 	ldmia.w	sp!, {r2, r8, r9}
 8001594:	4770      	bx	lr
 8001596:	bf00      	nop

08001598 <cmd_name>:
 8001598:	e92d 0300 	stmdb	sp!, {r8, r9}
 800159c:	f8df 8970 	ldr.w	r8, [pc, #2416]	; 8001f10 <set_var+0x1c>
 80015a0:	f858 9c08 	ldr.w	r9, [r8, #-8]
 80015a4:	4581      	cmp	r9, r0
 80015a6:	d004      	beq.n	80015b2 <cmd_name+0x1a>
 80015a8:	f858 8c0c 	ldr.w	r8, [r8, #-12]
 80015ac:	f1b8 0f00 	cmp.w	r8, #0
 80015b0:	d1f6      	bne.n	80015a0 <cmd_name+0x8>
 80015b2:	4640      	mov	r0, r8
 80015b4:	e8bd 0300 	ldmia.w	sp!, {r8, r9}
 80015b8:	4770      	bx	lr
 80015ba:	bf00      	nop

080015bc <decompile_line>:
 80015bc:	e92d 010e 	stmdb	sp!, {r1, r2, r3, r8}
 80015c0:	4683      	mov	fp, r0
 80015c2:	f04f 0a00 	mov.w	sl, #0
 80015c6:	4688      	mov	r8, r1
 80015c8:	f83b 000a 	ldrh.w	r0, [fp, sl]
 80015cc:	f10a 0a02 	add.w	sl, sl, #2
 80015d0:	f04f 010a 	mov.w	r1, #10
 80015d4:	b500      	push	{lr}
 80015d6:	f7ff f821 	bl	800061c <itoa>
 80015da:	f85d eb04 	ldr.w	lr, [sp], #4
 80015de:	4641      	mov	r1, r8
 80015e0:	b500      	push	{lr}
 80015e2:	f7ff fbeb 	bl	8000dbc <strcpy>
 80015e6:	f85d eb04 	ldr.w	lr, [sp], #4
 80015ea:	4640      	mov	r0, r8
 80015ec:	b500      	push	{lr}
 80015ee:	f7ff fbc3 	bl	8000d78 <strlen>
 80015f2:	f85d eb04 	ldr.w	lr, [sp], #4
 80015f6:	4480      	add	r8, r0
 80015f8:	f81b 000a 	ldrb.w	r0, [fp, sl]
 80015fc:	f10a 0a01 	add.w	sl, sl, #1
 8001600:	6060      	str	r0, [r4, #4]

08001602 <decomp_loop>:
 8001602:	b500      	push	{lr}
 8001604:	f000 fac8 	bl	8001b98 <next_token>
 8001608:	f85d eb04 	ldr.w	lr, [sp], #4
 800160c:	2800      	cmp	r0, #0
 800160e:	f000 80a6 	beq.w	800175e <decomp_loop+0x15c>
 8001612:	2810      	cmp	r0, #16
 8001614:	d505      	bpl.n	8001622 <decomp_loop+0x20>
 8001616:	f8df 1900 	ldr.w	r1, [pc, #2304]	; 8001f18 <set_var+0x24>
 800161a:	5c08      	ldrb	r0, [r1, r0]
 800161c:	f808 0b01 	strb.w	r0, [r8], #1
 8001620:	e7ef      	b.n	8001602 <decomp_loop>
 8001622:	2813      	cmp	r0, #19
 8001624:	d514      	bpl.n	8001650 <decomp_loop+0x4e>
 8001626:	f1a0 0010 	sub.w	r0, r0, #16
 800162a:	ea4f 0080 	mov.w	r0, r0, lsl #2
 800162e:	f8df 18ec 	ldr.w	r1, [pc, #2284]	; 8001f1c <set_var+0x28>
 8001632:	5808      	ldr	r0, [r1, r0]
 8001634:	4641      	mov	r1, r8
 8001636:	b500      	push	{lr}
 8001638:	f7ff fbc0 	bl	8000dbc <strcpy>
 800163c:	f85d eb04 	ldr.w	lr, [sp], #4
 8001640:	4640      	mov	r0, r8
 8001642:	b500      	push	{lr}
 8001644:	f7ff fb98 	bl	8000d78 <strlen>
 8001648:	f85d eb04 	ldr.w	lr, [sp], #4
 800164c:	4480      	add	r8, r0
 800164e:	e7d8      	b.n	8001602 <decomp_loop>
 8001650:	2813      	cmp	r0, #19
 8001652:	d106      	bne.n	8001662 <decomp_loop+0x60>
 8001654:	f04f 005c 	mov.w	r0, #92	; 0x5c
 8001658:	f808 0b01 	strb.w	r0, [r8], #1
 800165c:	f808 1b01 	strb.w	r1, [r8], #1
 8001660:	e7cf      	b.n	8001602 <decomp_loop>
 8001662:	2814      	cmp	r0, #20
 8001664:	d108      	bne.n	8001678 <decomp_loop+0x76>
 8001666:	f101 0041 	add.w	r0, r1, #65	; 0x41
 800166a:	f808 0b01 	strb.w	r0, [r8], #1
 800166e:	f04f 0020 	mov.w	r0, #32
 8001672:	f808 0b01 	strb.w	r0, [r8], #1
 8001676:	e7c4      	b.n	8001602 <decomp_loop>
 8001678:	281a      	cmp	r0, #26
 800167a:	d52c      	bpl.n	80016d6 <decomp_loop+0xd4>
 800167c:	b403      	push	{r0, r1}
 800167e:	4608      	mov	r0, r1
 8001680:	b500      	push	{lr}
 8001682:	f7ff ff89 	bl	8001598 <cmd_name>
 8001686:	f85d eb04 	ldr.w	lr, [sp], #4
 800168a:	4641      	mov	r1, r8
 800168c:	b500      	push	{lr}
 800168e:	f7ff fb95 	bl	8000dbc <strcpy>
 8001692:	f85d eb04 	ldr.w	lr, [sp], #4
 8001696:	4640      	mov	r0, r8
 8001698:	b500      	push	{lr}
 800169a:	f7ff fb6d 	bl	8000d78 <strlen>
 800169e:	f85d eb04 	ldr.w	lr, [sp], #4
 80016a2:	4480      	add	r8, r0
 80016a4:	bc03      	pop	{r0, r1}
 80016a6:	f04f 0020 	mov.w	r0, #32
 80016aa:	f808 0b01 	strb.w	r0, [r8], #1
 80016ae:	293a      	cmp	r1, #58	; 0x3a
 80016b0:	d1a7      	bne.n	8001602 <decomp_loop>
 80016b2:	eb0b 000a 	add.w	r0, fp, sl
 80016b6:	4641      	mov	r1, r8
 80016b8:	b500      	push	{lr}
 80016ba:	f7ff fb7f 	bl	8000dbc <strcpy>
 80016be:	f85d eb04 	ldr.w	lr, [sp], #4
 80016c2:	4640      	mov	r0, r8
 80016c4:	b500      	push	{lr}
 80016c6:	f7ff fb57 	bl	8000d78 <strlen>
 80016ca:	f85d eb04 	ldr.w	lr, [sp], #4
 80016ce:	4480      	add	r8, r0
 80016d0:	f8d4 a004 	ldr.w	sl, [r4, #4]
 80016d4:	e043      	b.n	800175e <decomp_loop+0x15c>
 80016d6:	281b      	cmp	r0, #27
 80016d8:	d114      	bne.n	8001704 <decomp_loop+0x102>
 80016da:	4608      	mov	r0, r1
 80016dc:	69a1      	ldr	r1, [r4, #24]
 80016de:	b500      	push	{lr}
 80016e0:	f7fe ff9c 	bl	800061c <itoa>
 80016e4:	f85d eb04 	ldr.w	lr, [sp], #4
 80016e8:	4641      	mov	r1, r8
 80016ea:	b500      	push	{lr}
 80016ec:	f7ff fb66 	bl	8000dbc <strcpy>
 80016f0:	f85d eb04 	ldr.w	lr, [sp], #4
 80016f4:	4640      	mov	r0, r8
 80016f6:	b500      	push	{lr}
 80016f8:	f7ff fb3e 	bl	8000d78 <strlen>
 80016fc:	f85d eb04 	ldr.w	lr, [sp], #4
 8001700:	4480      	add	r8, r0
 8001702:	e77e      	b.n	8001602 <decomp_loop>
 8001704:	281a      	cmp	r0, #26
 8001706:	d113      	bne.n	8001730 <decomp_loop+0x12e>
 8001708:	f04f 0219 	mov.w	r2, #25
 800170c:	f64f 73ff 	movw	r3, #65535	; 0xffff
 8001710:	f6c3 73ff 	movt	r3, #16383	; 0x3fff
 8001714:	ea01 0103 	and.w	r1, r1, r3
 8001718:	ea4f 1353 	mov.w	r3, r3, lsr #5
 800171c:	fa31 f002 	lsrs.w	r0, r1, r2
 8001720:	d003      	beq.n	800172a <decomp_loop+0x128>
 8001722:	f100 0040 	add.w	r0, r0, #64	; 0x40
 8001726:	f808 0b01 	strb.w	r0, [r8], #1
 800172a:	3a05      	subs	r2, #5
 800172c:	daf2      	bge.n	8001714 <decomp_loop+0x112>
 800172e:	e768      	b.n	8001602 <decomp_loop>
 8001730:	f04f 0022 	mov.w	r0, #34	; 0x22
 8001734:	f808 0b01 	strb.w	r0, [r8], #1
 8001738:	4608      	mov	r0, r1
 800173a:	4641      	mov	r1, r8
 800173c:	b500      	push	{lr}
 800173e:	f7ff fb3d 	bl	8000dbc <strcpy>
 8001742:	f85d eb04 	ldr.w	lr, [sp], #4
 8001746:	4640      	mov	r0, r8
 8001748:	b500      	push	{lr}
 800174a:	f7ff fb15 	bl	8000d78 <strlen>
 800174e:	f85d eb04 	ldr.w	lr, [sp], #4
 8001752:	4480      	add	r8, r0
 8001754:	f04f 0022 	mov.w	r0, #34	; 0x22
 8001758:	f808 0b01 	strb.w	r0, [r8], #1
 800175c:	e751      	b.n	8001602 <decomp_loop>
 800175e:	ea80 0000 	eor.w	r0, r0, r0
 8001762:	f888 0000 	strb.w	r0, [r8]
 8001766:	e8bd 010e 	ldmia.w	sp!, {r1, r2, r3, r8}
 800176a:	4608      	mov	r0, r1
 800176c:	4770      	bx	lr

0800176e <relop_str>:
 800176e:	0800177a 	stmdaeq	r0, {r1, r3, r4, r5, r6, r8, r9, sl, ip}
 8001772:	0800177d 	stmdaeq	r0, {r0, r2, r3, r4, r5, r6, r8, r9, sl, ip}
 8001776:	08001780 	stmdaeq	r0, {r7, r8, r9, sl, ip}

0800177a <ge_str>:
 800177a:	 	stccc	13, cr3, [r0], {62}	; 0x3e

0800177d <le_str>:
 800177d:	 	stccc	13, cr3, [r0], {60}	; 0x3c

08001780 <ne_str>:
 8001780:	 	andeq	r3, r0, ip, lsr lr

08001783 <single_char>:
 8001783:	3b2c3a00 	blcc	8b0ff8b <FLASH_HIDDEN_END+0xaeff8b>
 8001787:	2b292823 	blcs	8a4b81b <FLASH_HIDDEN_END+0xa2b81b>
 800178b:	252f2a2d 	strcs	r2, [pc, #-2605]!	; 8000d66 <clear_screen+0x1e>
 800178f:	3c3e3d40 	ldccc	13, cr3, [lr], #-256	; 0xffffff00
	...

08001794 <modulo>:
 8001794:	b401      	push	{r0}
 8001796:	fbb0 f0f1 	udiv	r0, r0, r1
 800179a:	fb01 f000 	mul.w	r0, r1, r0
 800179e:	bc02      	pop	{r1}
 80017a0:	eba1 0100 	sub.w	r1, r1, r0
 80017a4:	f04f 001b 	mov.w	r0, #27
 80017a8:	4770      	bx	lr
 80017aa:	bf00      	nop

080017ac <syntax_error>:
 80017ac:	f04f 0002 	mov.w	r0, #2
 80017b0:	e000      	b.n	80017b4 <tb_error>
 80017b2:	bf00      	nop

080017b4 <tb_error>:
 80017b4:	6c21      	ldr	r1, [r4, #64]	; 0x40
 80017b6:	f011 0f20 	tst.w	r1, #32
 80017ba:	d143      	bne.n	8001844 <compile_error>

080017bc <rt_error>:
 80017bc:	4652      	mov	r2, sl
 80017be:	b401      	push	{r0}
 80017c0:	f8df 075c 	ldr.w	r0, [pc, #1884]	; 8001f20 <set_var+0x2c>
 80017c4:	b500      	push	{lr}
 80017c6:	f7fe ff03 	bl	80005d0 <uart_puts>
 80017ca:	f85d eb04 	ldr.w	lr, [sp], #4
 80017ce:	bc01      	pop	{r0}
 80017d0:	f8df 1750 	ldr.w	r1, [pc, #1872]	; 8001f24 <set_var+0x30>
 80017d4:	ea4f 0080 	mov.w	r0, r0, lsl #2
 80017d8:	5808      	ldr	r0, [r1, r0]
 80017da:	b500      	push	{lr}
 80017dc:	f7fe fef8 	bl	80005d0 <uart_puts>
 80017e0:	f85d eb04 	ldr.w	lr, [sp], #4
 80017e4:	4658      	mov	r0, fp
 80017e6:	4652      	mov	r2, sl
 80017e8:	f8df 1308 	ldr.w	r1, [pc, #776]	; 8001af4 <pad>
 80017ec:	b500      	push	{lr}
 80017ee:	f7ff fee5 	bl	80015bc <decompile_line>
 80017f2:	f85d eb04 	ldr.w	lr, [sp], #4
 80017f6:	b500      	push	{lr}
 80017f8:	f7fe feea 	bl	80005d0 <uart_puts>
 80017fc:	f85d eb04 	ldr.w	lr, [sp], #4
 8001800:	b500      	push	{lr}
 8001802:	f7ff fa99 	bl	8000d38 <cr>
 8001806:	f85d eb04 	ldr.w	lr, [sp], #4
 800180a:	f8df 071c 	ldr.w	r0, [pc, #1820]	; 8001f28 <set_var+0x34>
 800180e:	b500      	push	{lr}
 8001810:	f7fe fede 	bl	80005d0 <uart_puts>
 8001814:	f85d eb04 	ldr.w	lr, [sp], #4
 8001818:	4610      	mov	r0, r2
 800181a:	f04f 0110 	mov.w	r1, #16
 800181e:	b500      	push	{lr}
 8001820:	f7fe ff40 	bl	80006a4 <print_int>
 8001824:	f85d eb04 	ldr.w	lr, [sp], #4
 8001828:	b500      	push	{lr}
 800182a:	f7ff fa85 	bl	8000d38 <cr>
 800182e:	f85d eb04 	ldr.w	lr, [sp], #4
 8001832:	4658      	mov	r0, fp
 8001834:	7882      	ldrb	r2, [r0, #2]
 8001836:	b500      	push	{lr}
 8001838:	f000 fd68 	bl	800230c <dump01>
 800183c:	f85d eb04 	ldr.w	lr, [sp], #4
 8001840:	f000 b960 	b.w	8001b04 <warm_start>

08001844 <compile_error>:
 8001844:	f8df 16dc 	ldr.w	r1, [pc, #1756]	; 8001f24 <set_var+0x30>
 8001848:	ea4f 0080 	mov.w	r0, r0, lsl #2
 800184c:	5808      	ldr	r0, [r1, r0]
 800184e:	b500      	push	{lr}
 8001850:	f7fe febe 	bl	80005d0 <uart_puts>
 8001854:	f85d eb04 	ldr.w	lr, [sp], #4
 8001858:	68a0      	ldr	r0, [r4, #8]
 800185a:	b500      	push	{lr}
 800185c:	f7fe feb8 	bl	80005d0 <uart_puts>
 8001860:	f85d eb04 	ldr.w	lr, [sp], #4
 8001864:	b500      	push	{lr}
 8001866:	f7ff fa67 	bl	8000d38 <cr>
 800186a:	f85d eb04 	ldr.w	lr, [sp], #4
 800186e:	6820      	ldr	r0, [r4, #0]
 8001870:	b500      	push	{lr}
 8001872:	f7fe ffe5 	bl	8000840 <spaces>
 8001876:	f85d eb04 	ldr.w	lr, [sp], #4
 800187a:	f04f 005e 	mov.w	r0, #94	; 0x5e
 800187e:	b500      	push	{lr}
 8001880:	f7fe fd86 	bl	8000390 <uart_putc>
 8001884:	f85d eb04 	ldr.w	lr, [sp], #4
 8001888:	b500      	push	{lr}
 800188a:	f7ff fa55 	bl	8000d38 <cr>
 800188e:	f85d eb04 	ldr.w	lr, [sp], #4
 8001892:	f000 b937 	b.w	8001b04 <warm_start>

08001896 <rt_error_msg>:
 8001896:	6e75520a 	cdpvs	2, 7, cr5, cr5, cr10, {0}
 800189a:	656d6974 	strbvs	r6, [sp, #-2420]!	; 0xfffff68c
 800189e:	72726520 	rsbsvc	r6, r2, #32, 10	; 0x8000000
 80018a2:	203a726f 	eorscs	r7, sl, pc, ror #4
	...

080018a7 <token_at_msg>:
 80018a7:	656b6f74 	strbvs	r6, [fp, #-3956]!	; 0xfffff08c
 80018ab:	666f206e 	strbtvs	r2, [pc], -lr, rrx
 80018af:	74657366 	strbtvc	r7, [r5], #-870	; 0xfffffc9a
 80018b3:	 	andeq	r2, r0, sl, lsr r0

080018b6 <err_msg>:
 80018b6:	00000000 	andeq	r0, r0, r0
 80018ba:	08003330 	stmdaeq	r0, {r4, r5, r8, r9, ip, sp}
 80018be:	0800333d 	stmdaeq	r0, {r0, r2, r3, r4, r5, r8, r9, ip, sp}
 80018c2:	0800334b 	stmdaeq	r0, {r0, r1, r3, r6, r8, r9, ip, sp}
 80018c6:	08003364 	stmdaeq	r0, {r2, r5, r6, r8, r9, ip, sp}
 80018ca:	08003373 	stmdaeq	r0, {r0, r1, r4, r5, r6, r8, r9, ip, sp}
 80018ce:	08003389 	stmdaeq	r0, {r0, r3, r7, r8, r9, ip, sp}
 80018d2:	0800339f 	stmdaeq	r0, {r0, r1, r2, r3, r4, r7, r8, r9, ip, sp}
 80018d6:	080033b9 	stmdaeq	r0, {r0, r3, r4, r5, r7, r8, r9, ip, sp}
 80018da:	080033ca 	stmdaeq	r0, {r1, r3, r6, r7, r8, r9, ip, sp}
 80018de:	080033db 	stmdaeq	r0, {r0, r1, r3, r4, r6, r7, r8, r9, ip, sp}
 80018e2:	080033e7 	stmdaeq	r0, {r0, r1, r2, r5, r6, r7, r8, r9, ip, sp}
 80018e6:	0800341a 	stmdaeq	r0, {r1, r3, r4, sl, ip, sp}
 80018ea:	0800342a 	stmdaeq	r0, {r1, r3, r5, sl, ip, sp}
 80018ee:	0800343e 	stmdaeq	r0, {r1, r2, r3, r4, r5, sl, ip, sp}
 80018f2:	08003451 	stmdaeq	r0, {r0, r4, r6, sl, ip, sp}
 80018f6:	0800345e 	stmdaeq	r0, {r1, r2, r3, r4, r6, sl, ip, sp}
 80018fa:	bf00      	nop

080018fc <skip_line>:
 80018fc:	f8d4 a004 	ldr.w	sl, [r4, #4]
 8001900:	4770      	bx	lr
 8001902:	bf00      	nop

08001904 <BTGL>:
 8001904:	4770      	bx	lr
 8001906:	bf00      	nop

08001908 <kword_cmp>:
 8001908:	e92d 0340 	stmdb	sp!, {r6, r8, r9}
 800190c:	f04f 36ff 	mov.w	r6, #4294967295	; 0xffffffff
 8001910:	b14a      	cbz	r2, 8001926 <kword_cmp+0x1e>
 8001912:	f810 8b01 	ldrb.w	r8, [r0], #1
 8001916:	f811 9b01 	ldrb.w	r9, [r1], #1
 800191a:	f1a2 0201 	sub.w	r2, r2, #1
 800191e:	45c8      	cmp	r8, r9
 8001920:	d0f6      	beq.n	8001910 <kword_cmp+0x8>
 8001922:	ea86 0606 	eor.w	r6, r6, r6
 8001926:	4630      	mov	r0, r6
 8001928:	e8bd 0340 	ldmia.w	sp!, {r6, r8, r9}
 800192c:	4770      	bx	lr
 800192e:	bf00      	nop

08001930 <search_dict>:
 8001930:	e92d 030c 	stmdb	sp!, {r2, r3, r8, r9}
 8001934:	4680      	mov	r8, r0
 8001936:	b500      	push	{lr}
 8001938:	f7ff fa1e 	bl	8000d78 <strlen>
 800193c:	f85d eb04 	ldr.w	lr, [sp], #4
 8001940:	4603      	mov	r3, r0
 8001942:	4689      	mov	r9, r1
 8001944:	7808      	ldrb	r0, [r1, #0]
 8001946:	b178      	cbz	r0, 8001968 <search_dict+0x38>
 8001948:	4640      	mov	r0, r8
 800194a:	461a      	mov	r2, r3
 800194c:	b500      	push	{lr}
 800194e:	f7ff ffdb 	bl	8001908 <kword_cmp>
 8001952:	f85d eb04 	ldr.w	lr, [sp], #4
 8001956:	b918      	cbnz	r0, 8001960 <search_dict+0x30>
 8001958:	4649      	mov	r1, r9
 800195a:	f851 1c0c 	ldr.w	r1, [r1, #-12]
 800195e:	e7f0      	b.n	8001942 <search_dict+0x12>
 8001960:	f859 0c04 	ldr.w	r0, [r9, #-4]
 8001964:	f859 1c08 	ldr.w	r1, [r9, #-8]
 8001968:	e8bd 030c 	ldmia.w	sp!, {r2, r3, r8, r9}
 800196c:	4770      	bx	lr

0800196e <cold_start>:
 800196e:	f04f 0400 	mov.w	r4, #0
 8001972:	f2c2 0400 	movt	r4, #8192	; 0x2000
 8001976:	f8df 0054 	ldr.w	r0, [pc, #84]	; 80019cc <src_addr>
 800197a:	f8df 1054 	ldr.w	r1, [pc, #84]	; 80019d0 <dest_addr>
 800197e:	6809      	ldr	r1, [r1, #0]
 8001980:	440c      	add	r4, r1
 8001982:	4620      	mov	r0, r4
 8001984:	f8df 1168 	ldr.w	r1, [pc, #360]	; 8001af0 <tib>
 8001988:	ea82 0202 	eor.w	r2, r2, r2
 800198c:	f840 2b04 	str.w	r2, [r0], #4
 8001990:	4288      	cmp	r0, r1
 8001992:	d4fb      	bmi.n	800198c <cold_start+0x1e>
 8001994:	f8df 0034 	ldr.w	r0, [pc, #52]	; 80019cc <src_addr>
 8001998:	4621      	mov	r1, r4
 800199a:	f8df 2038 	ldr.w	r2, [pc, #56]	; 80019d4 <sysvar_size>
 800199e:	b500      	push	{lr}
 80019a0:	f7ff f9f6 	bl	8000d90 <cmove>
 80019a4:	f85d eb04 	ldr.w	lr, [sp], #4
 80019a8:	b500      	push	{lr}
 80019aa:	f000 f815 	bl	80019d8 <prt_version>
 80019ae:	f85d eb04 	ldr.w	lr, [sp], #4
 80019b2:	b500      	push	{lr}
 80019b4:	f000 f862 	bl	8001a7c <clear_basic>
 80019b8:	f85d eb04 	ldr.w	lr, [sp], #4
 80019bc:	b500      	push	{lr}
 80019be:	f001 f90f 	bl	8002be0 <search_free>
 80019c2:	f85d eb04 	ldr.w	lr, [sp], #4
 80019c6:	62e0      	str	r0, [r4, #44]	; 0x2c
 80019c8:	f000 b89c 	b.w	8001b04 <warm_start>

080019cc <src_addr>:
 80019cc:	0800325c 	stmdaeq	r0, {r2, r3, r4, r6, r9, ip, sp}

080019d0 <dest_addr>:
 80019d0:	08000130 	stmdaeq	r0, {r4, r5, r8}

080019d4 <sysvar_size>:
 80019d4:	000000d4 	ldrdeq	r0, [r0], -r4

080019d8 <prt_version>:
 80019d8:	f8df 0550 	ldr.w	r0, [pc, #1360]	; 8001f2c <set_var+0x38>
 80019dc:	b500      	push	{lr}
 80019de:	f7fe fdf7 	bl	80005d0 <uart_puts>
 80019e2:	f85d eb04 	ldr.w	lr, [sp], #4
 80019e6:	f89f 0074 	ldrb.w	r0, [pc, #116]	; 8001a5c <version>
 80019ea:	ea4f 1010 	mov.w	r0, r0, lsr #4
 80019ee:	f100 0030 	add.w	r0, r0, #48	; 0x30
 80019f2:	283a      	cmp	r0, #58	; 0x3a
 80019f4:	d401      	bmi.n	80019fa <prt_version+0x22>
 80019f6:	f100 0007 	add.w	r0, r0, #7
 80019fa:	b500      	push	{lr}
 80019fc:	f7fe fcc8 	bl	8000390 <uart_putc>
 8001a00:	f85d eb04 	ldr.w	lr, [sp], #4
 8001a04:	f04f 002e 	mov.w	r0, #46	; 0x2e
 8001a08:	b500      	push	{lr}
 8001a0a:	f7fe fcc1 	bl	8000390 <uart_putc>
 8001a0e:	f85d eb04 	ldr.w	lr, [sp], #4
 8001a12:	f89f 0048 	ldrb.w	r0, [pc, #72]	; 8001a5c <version>
 8001a16:	f000 000f 	and.w	r0, r0, #15
 8001a1a:	f100 0030 	add.w	r0, r0, #48	; 0x30
 8001a1e:	283a      	cmp	r0, #58	; 0x3a
 8001a20:	d401      	bmi.n	8001a26 <prt_version+0x4e>
 8001a22:	f100 0007 	add.w	r0, r0, #7
 8001a26:	b500      	push	{lr}
 8001a28:	f7fe fcb2 	bl	8000390 <uart_putc>
 8001a2c:	f85d eb04 	ldr.w	lr, [sp], #4
 8001a30:	b500      	push	{lr}
 8001a32:	f7ff f981 	bl	8000d38 <cr>
 8001a36:	f85d eb04 	ldr.w	lr, [sp], #4
 8001a3a:	4770      	bx	lr

08001a3c <version_msg>:
 8001a3c:	756c620a 	strbvc	r6, [ip, #-522]!	; 0xfffffdf6
 8001a40:	69702065 	ldmdbvs	r0!, {r0, r2, r5, r6, sp}^
 8001a44:	74206c6c 	strtvc	r6, [r0], #-3180	; 0xfffff394
 8001a48:	20796e69 	rsbscs	r6, r9, r9, ror #28
 8001a4c:	49534142 	ldmdbmi	r3, {r1, r6, r8, lr}^
 8001a50:	76202c43 	strtvc	r2, [r0], -r3, asr #24
 8001a54:	69737265 	ldmdbvs	r3!, {r0, r2, r5, r6, r9, ip, sp, lr}^
 8001a58:	00206e6f 	eoreq	r6, r0, pc, ror #28

08001a5c <version>:
 8001a5c:	bf000010 	svclt	0x00000010

08001a60 <clear_vars>:
 8001a60:	b407      	push	{r0, r1, r2}
 8001a62:	ea80 0000 	eor.w	r0, r0, r0
 8001a66:	f104 0160 	add.w	r1, r4, #96	; 0x60
 8001a6a:	f04f 021a 	mov.w	r2, #26
 8001a6e:	f841 0b04 	str.w	r0, [r1], #4
 8001a72:	3a01      	subs	r2, #1
 8001a74:	d1fb      	bne.n	8001a6e <clear_vars+0xe>
 8001a76:	bc07      	pop	{r0, r1, r2}
 8001a78:	4770      	bx	lr
 8001a7a:	bf00      	nop

08001a7c <clear_basic>:
 8001a7c:	ea80 0000 	eor.w	r0, r0, r0
 8001a80:	6420      	str	r0, [r4, #64]	; 0x40
 8001a82:	6060      	str	r0, [r4, #4]
 8001a84:	6020      	str	r0, [r4, #0]
 8001a86:	60a0      	str	r0, [r4, #8]
 8001a88:	60e0      	str	r0, [r4, #12]
 8001a8a:	6120      	str	r0, [r4, #16]
 8001a8c:	6160      	str	r0, [r4, #20]
 8001a8e:	f104 00d0 	add.w	r0, r4, #208	; 0xd0
 8001a92:	f100 0010 	add.w	r0, r0, #16
 8001a96:	f06f 010f 	mvn.w	r1, #15
 8001a9a:	ea00 0001 	and.w	r0, r0, r1
 8001a9e:	6320      	str	r0, [r4, #48]	; 0x30
 8001aa0:	6360      	str	r0, [r4, #52]	; 0x34
 8001aa2:	f8c4 00d0 	str.w	r0, [r4, #208]	; 0xd0
 8001aa6:	b500      	push	{lr}
 8001aa8:	f7ff ffda 	bl	8001a60 <clear_vars>
 8001aac:	f85d eb04 	ldr.w	lr, [sp], #4
 8001ab0:	6b20      	ldr	r0, [r4, #48]	; 0x30
 8001ab2:	f8df 103c 	ldr.w	r1, [pc, #60]	; 8001af0 <tib>
 8001ab6:	ea82 0202 	eor.w	r2, r2, r2
 8001aba:	f840 2b04 	str.w	r2, [r0], #4
 8001abe:	4288      	cmp	r0, r1
 8001ac0:	d4fb      	bmi.n	8001aba <clear_basic+0x3e>
 8001ac2:	4770      	bx	lr

08001ac4 <warm_init>:
 8001ac4:	f8df c024 	ldr.w	ip, [pc, #36]	; 8001aec <dstack>
 8001ac8:	f04f 0a00 	mov.w	sl, #0
 8001acc:	f04f 0b00 	mov.w	fp, #0
 8001ad0:	ea80 0000 	eor.w	r0, r0, r0
 8001ad4:	6060      	str	r0, [r4, #4]
 8001ad6:	6420      	str	r0, [r4, #64]	; 0x40
 8001ad8:	63a0      	str	r0, [r4, #56]	; 0x38
 8001ada:	f04f 0004 	mov.w	r0, #4
 8001ade:	6460      	str	r0, [r4, #68]	; 0x44
 8001ae0:	f04f 000a 	mov.w	r0, #10
 8001ae4:	61a0      	str	r0, [r4, #24]
 8001ae6:	4770      	bx	lr

08001ae8 <mstack>:
 8001ae8:	20005000 	andcs	r5, r0, r0

08001aec <dstack>:
 8001aec:	20004f00 	andcs	r4, r0, r0, lsl #30

08001af0 <tib>:
 8001af0:	20004e30 	andcs	r4, r0, r0, lsr lr

08001af4 <pad>:
 8001af4:	20004db0 			; <UNDEFINED> instruction: 0x20004db0

08001af8 <array>:
 8001af8:	20004dac 	andcs	r4, r0, ip, lsr #27

08001afc <ready>:
 8001afc:	4145520a 	cmpmi	r5, sl, lsl #4
 8001b00:	00005944 	andeq	r5, r0, r4, asr #18

08001b04 <warm_start>:
 8001b04:	f7ff ffde 	bl	8001ac4 <warm_init>
 8001b08:	f85f 0024 	ldr.w	r0, [pc, #-36]	; 8001ae8 <mstack>
 8001b0c:	4685      	mov	sp, r0
 8001b0e:	f8df 0420 	ldr.w	r0, [pc, #1056]	; 8001f30 <set_var+0x3c>
 8001b12:	b500      	push	{lr}
 8001b14:	f7fe fd5c 	bl	80005d0 <uart_puts>
 8001b18:	f85d eb04 	ldr.w	lr, [sp], #4

08001b1c <cmd_line>:
 8001b1c:	b500      	push	{lr}
 8001b1e:	f7ff f90b 	bl	8000d38 <cr>
 8001b22:	f85d eb04 	ldr.w	lr, [sp], #4
 8001b26:	ea80 0000 	eor.w	r0, r0, r0
 8001b2a:	f8c4 00cc 	str.w	r0, [r4, #204]	; 0xcc
 8001b2e:	f85f 0040 	ldr.w	r0, [pc, #-64]	; 8001af0 <tib>
 8001b32:	f04f 0150 	mov.w	r1, #80	; 0x50
 8001b36:	b500      	push	{lr}
 8001b38:	f7fe fefe 	bl	8000938 <readln>
 8001b3c:	f85d eb04 	ldr.w	lr, [sp], #4
 8001b40:	4009      	ands	r1, r1
 8001b42:	d0f4      	beq.n	8001b2e <cmd_line+0x12>
 8001b44:	b500      	push	{lr}
 8001b46:	f7ff faef 	bl	8001128 <compile>
 8001b4a:	f85d eb04 	ldr.w	lr, [sp], #4
 8001b4e:	d0ee      	beq.n	8001b2e <cmd_line+0x12>

08001b50 <interpreter>:
 8001b50:	b500      	push	{lr}
 8001b52:	f000 f821 	bl	8001b98 <next_token>
 8001b56:	f85d eb04 	ldr.w	lr, [sp], #4
 8001b5a:	2802      	cmp	r0, #2
 8001b5c:	d4f8      	bmi.n	8001b50 <interpreter>
 8001b5e:	281a      	cmp	r0, #26
 8001b60:	d0f6      	beq.n	8001b50 <interpreter>
 8001b62:	2817      	cmp	r0, #23
 8001b64:	d103      	bne.n	8001b6e <interpreter+0x1e>
 8001b66:	4608      	mov	r0, r1
 8001b68:	f000 f812 	bl	8001b90 <execute>
 8001b6c:	e7f0      	b.n	8001b50 <interpreter>
 8001b6e:	2814      	cmp	r0, #20
 8001b70:	d105      	bne.n	8001b7e <interpreter+0x2e>
 8001b72:	b500      	push	{lr}
 8001b74:	f000 fd73 	bl	800265e <let_var>
 8001b78:	f85d eb04 	ldr.w	lr, [sp], #4
 8001b7c:	e7e8      	b.n	8001b50 <interpreter>
 8001b7e:	280c      	cmp	r0, #12
 8001b80:	d105      	bne.n	8001b8e <interpreter+0x3e>
 8001b82:	b500      	push	{lr}
 8001b84:	f000 fd71 	bl	800266a <let_array>
 8001b88:	f85d eb04 	ldr.w	lr, [sp], #4
 8001b8c:	e7e0      	b.n	8001b50 <interpreter>
 8001b8e:	e60d      	b.n	80017ac <syntax_error>

08001b90 <execute>:
 8001b90:	49e8      	ldr	r1, [pc, #928]	; (8001f34 <set_var+0x40>)
 8001b92:	f851 0020 	ldr.w	r0, [r1, r0, lsl #2]
 8001b96:	4700      	bx	r0

08001b98 <next_token>:
 8001b98:	6860      	ldr	r0, [r4, #4]
 8001b9a:	4582      	cmp	sl, r0
 8001b9c:	d411      	bmi.n	8001bc2 <next_token+0x2a>
 8001b9e:	4483      	add	fp, r0
 8001ba0:	6b60      	ldr	r0, [r4, #52]	; 0x34
 8001ba2:	4583      	cmp	fp, r0
 8001ba4:	f57f afae 	bpl.w	8001b04 <warm_start>
 8001ba8:	f89b 0002 	ldrb.w	r0, [fp, #2]
 8001bac:	6060      	str	r0, [r4, #4]
 8001bae:	f04f 0a03 	mov.w	sl, #3
 8001bb2:	b500      	push	{lr}
 8001bb4:	f7ff f9d6 	bl	8000f64 <show_trace>
 8001bb8:	f85d eb04 	ldr.w	lr, [sp], #4
 8001bbc:	ea80 0000 	eor.w	r0, r0, r0
 8001bc0:	4770      	bx	lr
 8001bc2:	f8c4 a000 	str.w	sl, [r4]
 8001bc6:	f8c4 b008 	str.w	fp, [r4, #8]
 8001bca:	f81b 000a 	ldrb.w	r0, [fp, sl]
 8001bce:	f10a 0a01 	add.w	sl, sl, #1
 8001bd2:	2813      	cmp	r0, #19
 8001bd4:	d41a      	bmi.n	8001c0c <next_token+0x74>
 8001bd6:	2818      	cmp	r0, #24
 8001bd8:	d504      	bpl.n	8001be4 <next_token+0x4c>
 8001bda:	f81b 100a 	ldrb.w	r1, [fp, sl]
 8001bde:	f10a 0a01 	add.w	sl, sl, #1
 8001be2:	4770      	bx	lr
 8001be4:	281c      	cmp	r0, #28
 8001be6:	d10d      	bne.n	8001c04 <next_token+0x6c>
 8001be8:	eb0b 010a 	add.w	r1, fp, sl
 8001bec:	4608      	mov	r0, r1
 8001bee:	b500      	push	{lr}
 8001bf0:	f7ff f8c2 	bl	8000d78 <strlen>
 8001bf4:	f85d eb04 	ldr.w	lr, [sp], #4
 8001bf8:	4482      	add	sl, r0
 8001bfa:	f10a 0a01 	add.w	sl, sl, #1
 8001bfe:	f04f 001c 	mov.w	r0, #28
 8001c02:	4770      	bx	lr
 8001c04:	f85b 100a 	ldr.w	r1, [fp, sl]
 8001c08:	f10a 0a04 	add.w	sl, sl, #4
 8001c0c:	4770      	bx	lr
 8001c0e:	bf00      	nop

08001c10 <expect>:
 8001c10:	f84d 8d04 	str.w	r8, [sp, #-4]!
 8001c14:	4680      	mov	r8, r0
 8001c16:	b500      	push	{lr}
 8001c18:	f7ff ffbe 	bl	8001b98 <next_token>
 8001c1c:	f85d eb04 	ldr.w	lr, [sp], #4
 8001c20:	4540      	cmp	r0, r8
 8001c22:	f47f adc3 	bne.w	80017ac <syntax_error>
 8001c26:	f85d 8b04 	ldr.w	r8, [sp], #4
 8001c2a:	4770      	bx	lr

08001c2c <func_args>:
 8001c2c:	f04f 0005 	mov.w	r0, #5
 8001c30:	b500      	push	{lr}
 8001c32:	f7ff ffed 	bl	8001c10 <expect>
 8001c36:	f85d eb04 	ldr.w	lr, [sp], #4
 8001c3a:	b500      	push	{lr}
 8001c3c:	f000 f80c 	bl	8001c58 <arg_list>
 8001c40:	f85d eb04 	ldr.w	lr, [sp], #4
 8001c44:	b401      	push	{r0}
 8001c46:	f04f 0006 	mov.w	r0, #6
 8001c4a:	b500      	push	{lr}
 8001c4c:	f7ff ffe0 	bl	8001c10 <expect>
 8001c50:	f85d eb04 	ldr.w	lr, [sp], #4
 8001c54:	bc01      	pop	{r0}
 8001c56:	4770      	bx	lr

08001c58 <arg_list>:
 8001c58:	f84d 8d04 	str.w	r8, [sp, #-4]!
 8001c5c:	ea88 0808 	eor.w	r8, r8, r8
 8001c60:	b500      	push	{lr}
 8001c62:	f000 f8bf 	bl	8001de4 <expression>
 8001c66:	f85d eb04 	ldr.w	lr, [sp], #4
 8001c6a:	281b      	cmp	r0, #27
 8001c6c:	d10a      	bne.n	8001c84 <arg_list+0x2c>
 8001c6e:	f84c 1d04 	str.w	r1, [ip, #-4]!
 8001c72:	f108 0801 	add.w	r8, r8, #1
 8001c76:	b500      	push	{lr}
 8001c78:	f7ff ff8e 	bl	8001b98 <next_token>
 8001c7c:	f85d eb04 	ldr.w	lr, [sp], #4
 8001c80:	2802      	cmp	r0, #2
 8001c82:	d0ed      	beq.n	8001c60 <arg_list+0x8>
 8001c84:	f8d4 a000 	ldr.w	sl, [r4]
 8001c88:	f8d4 b008 	ldr.w	fp, [r4, #8]
 8001c8c:	4640      	mov	r0, r8
 8001c8e:	f85d 8b04 	ldr.w	r8, [sp], #4
 8001c92:	4770      	bx	lr

08001c94 <factor>:
 8001c94:	b40c      	push	{r2, r3}
 8001c96:	b500      	push	{lr}
 8001c98:	f7ff ff7e 	bl	8001b98 <next_token>
 8001c9c:	f85d eb04 	ldr.w	lr, [sp], #4
 8001ca0:	f04f 0301 	mov.w	r3, #1
 8001ca4:	2808      	cmp	r0, #8
 8001ca6:	d106      	bne.n	8001cb6 <factor+0x22>
 8001ca8:	f04f 33ff 	mov.w	r3, #4294967295	; 0xffffffff
 8001cac:	b500      	push	{lr}
 8001cae:	f7ff ff73 	bl	8001b98 <next_token>
 8001cb2:	f85d eb04 	ldr.w	lr, [sp], #4
 8001cb6:	281b      	cmp	r0, #27
 8001cb8:	d055      	beq.n	8001d66 <factor+0xd2>
 8001cba:	280c      	cmp	r0, #12
 8001cbc:	d11d      	bne.n	8001cfa <factor+0x66>
 8001cbe:	f04f 0005 	mov.w	r0, #5
 8001cc2:	b500      	push	{lr}
 8001cc4:	f7ff ffa4 	bl	8001c10 <expect>
 8001cc8:	f85d eb04 	ldr.w	lr, [sp], #4
 8001ccc:	b500      	push	{lr}
 8001cce:	f000 f889 	bl	8001de4 <expression>
 8001cd2:	f85d eb04 	ldr.w	lr, [sp], #4
 8001cd6:	281b      	cmp	r0, #27
 8001cd8:	f47f ad68 	bne.w	80017ac <syntax_error>
 8001cdc:	460a      	mov	r2, r1
 8001cde:	f04f 0006 	mov.w	r0, #6
 8001ce2:	b500      	push	{lr}
 8001ce4:	f7ff ff94 	bl	8001c10 <expect>
 8001ce8:	f85d eb04 	ldr.w	lr, [sp], #4
 8001cec:	4610      	mov	r0, r2
 8001cee:	b500      	push	{lr}
 8001cf0:	f000 f8e4 	bl	8001ebc <get_array_element>
 8001cf4:	f85d eb04 	ldr.w	lr, [sp], #4
 8001cf8:	e035      	b.n	8001d66 <factor+0xd2>
 8001cfa:	2805      	cmp	r0, #5
 8001cfc:	d113      	bne.n	8001d26 <factor+0x92>
 8001cfe:	b500      	push	{lr}
 8001d00:	f000 f870 	bl	8001de4 <expression>
 8001d04:	f85d eb04 	ldr.w	lr, [sp], #4
 8001d08:	281b      	cmp	r0, #27
 8001d0a:	f47f ad4f 	bne.w	80017ac <syntax_error>
 8001d0e:	460a      	mov	r2, r1
 8001d10:	f04f 0006 	mov.w	r0, #6
 8001d14:	b500      	push	{lr}
 8001d16:	f7ff ff7b 	bl	8001c10 <expect>
 8001d1a:	f85d eb04 	ldr.w	lr, [sp], #4
 8001d1e:	4611      	mov	r1, r2
 8001d20:	f04f 001b 	mov.w	r0, #27
 8001d24:	e01f      	b.n	8001d66 <factor+0xd2>
 8001d26:	2814      	cmp	r0, #20
 8001d28:	d106      	bne.n	8001d38 <factor+0xa4>
 8001d2a:	4608      	mov	r0, r1
 8001d2c:	b500      	push	{lr}
 8001d2e:	f000 f8d9 	bl	8001ee4 <get_var>
 8001d32:	f85d eb04 	ldr.w	lr, [sp], #4
 8001d36:	e016      	b.n	8001d66 <factor+0xd2>
 8001d38:	2815      	cmp	r0, #21
 8001d3a:	d106      	bne.n	8001d4a <factor+0xb6>
 8001d3c:	4608      	mov	r0, r1
 8001d3e:	b500      	push	{lr}
 8001d40:	f7ff ff26 	bl	8001b90 <execute>
 8001d44:	f85d eb04 	ldr.w	lr, [sp], #4
 8001d48:	e00d      	b.n	8001d66 <factor+0xd2>
 8001d4a:	281a      	cmp	r0, #26
 8001d4c:	d107      	bne.n	8001d5e <factor+0xca>
 8001d4e:	f041 4000 	orr.w	r0, r1, #2147483648	; 0x80000000
 8001d52:	b500      	push	{lr}
 8001d54:	f7ff f95c 	bl	8001010 <search_const>
 8001d58:	f85d eb04 	ldr.w	lr, [sp], #4
 8001d5c:	e003      	b.n	8001d66 <factor+0xd2>
 8001d5e:	2818      	cmp	r0, #24
 8001d60:	d103      	bne.n	8001d6a <factor+0xd6>
 8001d62:	f04f 001b 	mov.w	r0, #27
 8001d66:	fb03 f101 	mul.w	r1, r3, r1
 8001d6a:	bc0c      	pop	{r2, r3}
 8001d6c:	4770      	bx	lr
 8001d6e:	bf00      	nop

08001d70 <term>:
 8001d70:	b500      	push	{lr}
 8001d72:	f7ff ff8f 	bl	8001c94 <factor>
 8001d76:	f85d eb04 	ldr.w	lr, [sp], #4
 8001d7a:	281b      	cmp	r0, #27
 8001d7c:	d000      	beq.n	8001d80 <term+0x10>
 8001d7e:	4770      	bx	lr
 8001d80:	b40c      	push	{r2, r3}
 8001d82:	460a      	mov	r2, r1
 8001d84:	b500      	push	{lr}
 8001d86:	f7ff ff07 	bl	8001b98 <next_token>
 8001d8a:	f85d eb04 	ldr.w	lr, [sp], #4
 8001d8e:	4603      	mov	r3, r0
 8001d90:	2809      	cmp	r0, #9
 8001d92:	d401      	bmi.n	8001d98 <term+0x28>
 8001d94:	280c      	cmp	r0, #12
 8001d96:	d406      	bmi.n	8001da6 <term+0x36>
 8001d98:	f8d4 a000 	ldr.w	sl, [r4]
 8001d9c:	f8d4 b008 	ldr.w	fp, [r4, #8]
 8001da0:	f04f 001b 	mov.w	r0, #27
 8001da4:	e01a      	b.n	8001ddc <term+0x6c>
 8001da6:	b500      	push	{lr}
 8001da8:	f7ff ff74 	bl	8001c94 <factor>
 8001dac:	f85d eb04 	ldr.w	lr, [sp], #4
 8001db0:	281b      	cmp	r0, #27
 8001db2:	f47f acfb 	bne.w	80017ac <syntax_error>
 8001db6:	2b09      	cmp	r3, #9
 8001db8:	d102      	bne.n	8001dc0 <term+0x50>
 8001dba:	fb01 f202 	mul.w	r2, r1, r2
 8001dbe:	e7e1      	b.n	8001d84 <term+0x14>
 8001dc0:	f1b8 0f0a 	cmp.w	r8, #10
 8001dc4:	d102      	bne.n	8001dcc <term+0x5c>
 8001dc6:	fb92 f2f1 	sdiv	r2, r2, r1
 8001dca:	e7db      	b.n	8001d84 <term+0x14>
 8001dcc:	4610      	mov	r0, r2
 8001dce:	fb92 f2f1 	sdiv	r2, r2, r1
 8001dd2:	fb01 f202 	mul.w	r2, r1, r2
 8001dd6:	eba0 0202 	sub.w	r2, r0, r2
 8001dda:	e7d3      	b.n	8001d84 <term+0x14>
 8001ddc:	4611      	mov	r1, r2
 8001dde:	bc0c      	pop	{r2, r3}
 8001de0:	4770      	bx	lr
 8001de2:	bf00      	nop

08001de4 <expression>:
 8001de4:	b500      	push	{lr}
 8001de6:	f7ff ffc3 	bl	8001d70 <term>
 8001dea:	f85d eb04 	ldr.w	lr, [sp], #4
 8001dee:	281b      	cmp	r0, #27
 8001df0:	d000      	beq.n	8001df4 <expression+0x10>
 8001df2:	4770      	bx	lr
 8001df4:	b40c      	push	{r2, r3}
 8001df6:	460a      	mov	r2, r1
 8001df8:	b500      	push	{lr}
 8001dfa:	f7ff fecd 	bl	8001b98 <next_token>
 8001dfe:	f85d eb04 	ldr.w	lr, [sp], #4
 8001e02:	4603      	mov	r3, r0
 8001e04:	2807      	cmp	r0, #7
 8001e06:	d008      	beq.n	8001e1a <expression+0x36>
 8001e08:	2808      	cmp	r0, #8
 8001e0a:	d006      	beq.n	8001e1a <expression+0x36>
 8001e0c:	f8d4 a000 	ldr.w	sl, [r4]
 8001e10:	f8d4 b008 	ldr.w	fp, [r4, #8]
 8001e14:	f04f 001b 	mov.w	r0, #27
 8001e18:	e00e      	b.n	8001e38 <expression+0x54>
 8001e1a:	b500      	push	{lr}
 8001e1c:	f7ff ffa8 	bl	8001d70 <term>
 8001e20:	f85d eb04 	ldr.w	lr, [sp], #4
 8001e24:	281b      	cmp	r0, #27
 8001e26:	f47f acc1 	bne.w	80017ac <syntax_error>
 8001e2a:	2b07      	cmp	r3, #7
 8001e2c:	d002      	beq.n	8001e34 <expression+0x50>
 8001e2e:	eba2 0201 	sub.w	r2, r2, r1
 8001e32:	e7e1      	b.n	8001df8 <expression+0x14>
 8001e34:	440a      	add	r2, r1
 8001e36:	e7df      	b.n	8001df8 <expression+0x14>
 8001e38:	4611      	mov	r1, r2
 8001e3a:	bc0c      	pop	{r2, r3}
 8001e3c:	4770      	bx	lr
 8001e3e:	bf00      	nop

08001e40 <relation>:
 8001e40:	b40c      	push	{r2, r3}
 8001e42:	b500      	push	{lr}
 8001e44:	f7ff ffce 	bl	8001de4 <expression>
 8001e48:	f85d eb04 	ldr.w	lr, [sp], #4
 8001e4c:	281b      	cmp	r0, #27
 8001e4e:	f47f acad 	bne.w	80017ac <syntax_error>
 8001e52:	460a      	mov	r2, r1
 8001e54:	b500      	push	{lr}
 8001e56:	f7ff fe9f 	bl	8001b98 <next_token>
 8001e5a:	f85d eb04 	ldr.w	lr, [sp], #4
 8001e5e:	f1a0 030d 	sub.w	r3, r0, #13
 8001e62:	280d      	cmp	r0, #13
 8001e64:	d41d      	bmi.n	8001ea2 <rel_false+0x6>
 8001e66:	2813      	cmp	r0, #19
 8001e68:	d51b      	bpl.n	8001ea2 <rel_false+0x6>
 8001e6a:	b500      	push	{lr}
 8001e6c:	f7ff ffba 	bl	8001de4 <expression>
 8001e70:	f85d eb04 	ldr.w	lr, [sp], #4
 8001e74:	281b      	cmp	r0, #27
 8001e76:	f47f ac99 	bne.w	80017ac <syntax_error>
 8001e7a:	428a      	cmp	r2, r1
 8001e7c:	f04f 31ff 	mov.w	r1, #4294967295	; 0xffffffff
 8001e80:	4a2d      	ldr	r2, [pc, #180]	; (8001f38 <set_var+0x44>)
 8001e82:	e8d2 f003 	tbb	[r2, r3]

08001e86 <rel_eq>:
 8001e86:	d011      	beq.n	8001eac <rel_false+0x10>
 8001e88:	e008      	b.n	8001e9c <rel_false>

08001e8a <rel_gt>:
 8001e8a:	dc0f      	bgt.n	8001eac <rel_false+0x10>
 8001e8c:	e006      	b.n	8001e9c <rel_false>

08001e8e <rel_ge>:
 8001e8e:	da0d      	bge.n	8001eac <rel_false+0x10>
 8001e90:	e004      	b.n	8001e9c <rel_false>

08001e92 <rel_lt>:
 8001e92:	db0b      	blt.n	8001eac <rel_false+0x10>
 8001e94:	e002      	b.n	8001e9c <rel_false>

08001e96 <rel_le>:
 8001e96:	dd09      	ble.n	8001eac <rel_false+0x10>
 8001e98:	e000      	b.n	8001e9c <rel_false>

08001e9a <rel_ne>:
 8001e9a:	d107      	bne.n	8001eac <rel_false+0x10>

08001e9c <rel_false>:
 8001e9c:	ea81 0101 	eor.w	r1, r1, r1
 8001ea0:	e004      	b.n	8001eac <rel_false+0x10>
 8001ea2:	f8d4 a000 	ldr.w	sl, [r4]
 8001ea6:	f8d4 b008 	ldr.w	fp, [r4, #8]
 8001eaa:	4611      	mov	r1, r2
 8001eac:	f04f 001b 	mov.w	r0, #27
 8001eb0:	bc0c      	pop	{r2, r3}
 8001eb2:	4770      	bx	lr

08001eb4 <relop_jmp>:
 8001eb4:	04060200 	streq	r0, [r6], #-512	; 0xfffffe00
 8001eb8:	bf000a08 	svclt	0x00000a08

08001ebc <get_array_element>:
 8001ebc:	f8d4 10c8 	ldr.w	r1, [r4, #200]	; 0xc8
 8001ec0:	ea4f 0080 	mov.w	r0, r0, lsl #2
 8001ec4:	ebc0 0001 	rsb	r0, r0, r1
 8001ec8:	6801      	ldr	r1, [r0, #0]
 8001eca:	f04f 001b 	mov.w	r0, #27
 8001ece:	4770      	bx	lr

08001ed0 <set_array_element>:
 8001ed0:	b404      	push	{r2}
 8001ed2:	f8d4 10c8 	ldr.w	r1, [r4, #200]	; 0xc8
 8001ed6:	ea4f 0080 	mov.w	r0, r0, lsl #2
 8001eda:	eba1 0100 	sub.w	r1, r1, r0
 8001ede:	6009      	str	r1, [r1, #0]
 8001ee0:	bc04      	pop	{r2}
 8001ee2:	4770      	bx	lr

08001ee4 <get_var>:
 8001ee4:	f104 0160 	add.w	r1, r4, #96	; 0x60
 8001ee8:	ea4f 0080 	mov.w	r0, r0, lsl #2
 8001eec:	5809      	ldr	r1, [r1, r0]
 8001eee:	f04f 001b 	mov.w	r0, #27
 8001ef2:	4770      	bx	lr

08001ef4 <set_var>:
 8001ef4:	b404      	push	{r2}
 8001ef6:	f104 0260 	add.w	r2, r4, #96	; 0x60
 8001efa:	ea4f 0080 	mov.w	r0, r0, lsl #2
 8001efe:	5011      	str	r1, [r2, r0]
 8001f00:	bc04      	pop	{r2}
 8001f02:	4770      	bx	lr
 8001f04:	08001340 	stmdaeq	r0, {r6, r8, r9, ip}
 8001f08:	08001331 	stmdaeq	r0, {r0, r4, r5, r8, r9, ip}
 8001f0c:	0800131c 	stmdaeq	r0, {r2, r3, r4, r8, r9, ip}
 8001f10:	08003b40 	stmdaeq	r0, {r6, r8, r9, fp, ip, sp}
 8001f14:	080014ba 	stmdaeq	r0, {r1, r3, r4, r5, r7, sl, ip}
 8001f18:	08001783 	stmdaeq	r0, {r0, r1, r7, r8, r9, sl, ip}
 8001f1c:	0800176e 	stmdaeq	r0, {r1, r2, r3, r5, r6, r8, r9, sl, ip}
 8001f20:	08001896 	stmdaeq	r0, {r1, r2, r4, r7, fp, ip}
 8001f24:	080018b6 	stmdaeq	r0, {r1, r2, r4, r5, r7, fp, ip}
 8001f28:	080018a7 	stmdaeq	r0, {r0, r1, r2, r5, r7, fp, ip}
 8001f2c:	08001a3c 	stmdaeq	r0, {r2, r3, r4, r5, r9, fp, ip}
 8001f30:	08001afc 	stmdaeq	r0, {r2, r3, r4, r5, r6, r7, r9, fp, ip}
 8001f34:	08003b44 	stmdaeq	r0, {r2, r6, r8, r9, fp, ip, sp}
 8001f38:	08001eb4 	stmdaeq	r0, {r2, r4, r5, r7, r9, sl, fp, ip}

08001f3c <abs>:
 8001f3c:	b500      	push	{lr}
 8001f3e:	f7ff fe8b 	bl	8001c58 <arg_list>
 8001f42:	f85d eb04 	ldr.w	lr, [sp], #4
 8001f46:	2801      	cmp	r0, #1
 8001f48:	d001      	beq.n	8001f4e <abs+0x12>
 8001f4a:	f7ff bc2f 	b.w	80017ac <syntax_error>
 8001f4e:	f85c 1b04 	ldr.w	r1, [ip], #4
 8001f52:	f011 4f00 	tst.w	r1, #2147483648	; 0x80000000
 8001f56:	d001      	beq.n	8001f5c <abs+0x20>
 8001f58:	f1c1 0100 	rsb	r1, r1, #0
 8001f5c:	f04f 001b 	mov.w	r0, #27
 8001f60:	4770      	bx	lr
 8001f62:	bf00      	nop

08001f64 <power_adc>:
 8001f64:	4770      	bx	lr
 8001f66:	bf00      	nop

08001f68 <analog_read>:
 8001f68:	4770      	bx	lr
 8001f6a:	bf00      	nop

08001f6c <bit_and>:
 8001f6c:	b500      	push	{lr}
 8001f6e:	f7ff fe5d 	bl	8001c2c <func_args>
 8001f72:	f85d eb04 	ldr.w	lr, [sp], #4
 8001f76:	2802      	cmp	r0, #2
 8001f78:	f47f ac18 	bne.w	80017ac <syntax_error>
 8001f7c:	f85c 0b04 	ldr.w	r0, [ip], #4
 8001f80:	f85c 1b04 	ldr.w	r1, [ip], #4
 8001f84:	ea01 0100 	and.w	r1, r1, r0
 8001f88:	f04f 001b 	mov.w	r0, #27
 8001f8c:	4770      	bx	lr
 8001f8e:	bf00      	nop

08001f90 <ascii>:
 8001f90:	f04f 0005 	mov.w	r0, #5
 8001f94:	b500      	push	{lr}
 8001f96:	f7ff fe3b 	bl	8001c10 <expect>
 8001f9a:	f85d eb04 	ldr.w	lr, [sp], #4
 8001f9e:	b500      	push	{lr}
 8001fa0:	f7ff fdfa 	bl	8001b98 <next_token>
 8001fa4:	f85d eb04 	ldr.w	lr, [sp], #4
 8001fa8:	281c      	cmp	r0, #28
 8001faa:	d00a      	beq.n	8001fc2 <ascii+0x32>
 8001fac:	2813      	cmp	r0, #19
 8001fae:	d100      	bne.n	8001fb2 <ascii+0x22>
 8001fb0:	e008      	b.n	8001fc4 <ascii+0x34>
 8001fb2:	2816      	cmp	r0, #22
 8001fb4:	4608      	mov	r0, r1
 8001fb6:	b500      	push	{lr}
 8001fb8:	f7ff fdea 	bl	8001b90 <execute>
 8001fbc:	f85d eb04 	ldr.w	lr, [sp], #4
 8001fc0:	e000      	b.n	8001fc4 <ascii+0x34>
 8001fc2:	7809      	ldrb	r1, [r1, #0]
 8001fc4:	f84c 1d04 	str.w	r1, [ip, #-4]!
 8001fc8:	f04f 0006 	mov.w	r0, #6
 8001fcc:	b500      	push	{lr}
 8001fce:	f7ff fe1f 	bl	8001c10 <expect>
 8001fd2:	f85d eb04 	ldr.w	lr, [sp], #4
 8001fd6:	f04f 001b 	mov.w	r0, #27
 8001fda:	f85c 1b04 	ldr.w	r1, [ip], #4
 8001fde:	4770      	bx	lr

08001fe0 <autorun>:
 8001fe0:	4770      	bx	lr
 8001fe2:	bf00      	nop

08001fe4 <awu>:
 8001fe4:	b500      	push	{lr}
 8001fe6:	f7ff fe37 	bl	8001c58 <arg_list>
 8001fea:	f85d eb04 	ldr.w	lr, [sp], #4
 8001fee:	2801      	cmp	r0, #1
 8001ff0:	f47f abdc 	bne.w	80017ac <syntax_error>
 8001ff4:	f44f 5180 	mov.w	r1, #4096	; 0x1000
 8001ff8:	f2c4 0102 	movt	r1, #16386	; 0x4002
 8001ffc:	6a48      	ldr	r0, [r1, #36]	; 0x24
 8001ffe:	f080 0001 	eor.w	r0, r0, #1
 8002002:	6248      	str	r0, [r1, #36]	; 0x24
 8002004:	6a48      	ldr	r0, [r1, #36]	; 0x24
 8002006:	f010 0f02 	tst.w	r0, #2
 800200a:	d0fb      	beq.n	8002004 <awu+0x20>
 800200c:	f85c 2b04 	ldr.w	r2, [ip], #4
 8002010:	f04f 030a 	mov.w	r3, #10
 8002014:	fb03 f202 	mul.w	r2, r3, r2
 8002018:	ea83 0303 	eor.w	r3, r3, r3
 800201c:	f5b2 5f00 	cmp.w	r2, #8192	; 0x2000
 8002020:	d404      	bmi.n	800202c <awu+0x48>
 8002022:	ea4f 0252 	mov.w	r2, r2, lsr #1
 8002026:	f103 0301 	add.w	r3, r3, #1
 800202a:	e7f7      	b.n	800201c <awu+0x38>
 800202c:	f44f 5140 	mov.w	r1, #12288	; 0x3000
 8002030:	f2c4 0100 	movt	r1, #16384	; 0x4000
 8002034:	f245 5055 	movw	r0, #21845	; 0x5555
 8002038:	6008      	str	r0, [r1, #0]
 800203a:	604b      	str	r3, [r1, #4]
 800203c:	608a      	str	r2, [r1, #8]
 800203e:	f64c 40cc 	movw	r0, #52428	; 0xcccc
 8002042:	6008      	str	r0, [r1, #0]
 8002044:	f000 bf74 	b.w	8002f30 <sleep>
 8002048:	4770      	bx	lr
 800204a:	bf00      	nop

0800204c <bitmask>:
 800204c:	b500      	push	{lr}
 800204e:	f7ff fded 	bl	8001c2c <func_args>
 8002052:	f85d eb04 	ldr.w	lr, [sp], #4
 8002056:	2801      	cmp	r0, #1
 8002058:	f47f aba8 	bne.w	80017ac <syntax_error>
 800205c:	f85c 0b04 	ldr.w	r0, [ip], #4
 8002060:	f04f 0101 	mov.w	r1, #1
 8002064:	fa01 f100 	lsl.w	r1, r1, r0
 8002068:	f04f 001b 	mov.w	r0, #27
 800206c:	4770      	bx	lr
 800206e:	bf00      	nop

08002070 <bit_reset>:
 8002070:	b500      	push	{lr}
 8002072:	f7ff fdf1 	bl	8001c58 <arg_list>
 8002076:	f85d eb04 	ldr.w	lr, [sp], #4
 800207a:	2802      	cmp	r0, #2
 800207c:	d001      	beq.n	8002082 <bit_reset+0x12>
 800207e:	f7ff bb95 	b.w	80017ac <syntax_error>
 8002082:	f85c 1b04 	ldr.w	r1, [ip], #4
 8002086:	f85c 0b04 	ldr.w	r0, [ip], #4
 800208a:	f8d0 9000 	ldr.w	r9, [r0]
 800208e:	f081 31ff 	eor.w	r1, r1, #4294967295	; 0xffffffff
 8002092:	ea01 0109 	and.w	r1, r1, r9
 8002096:	6001      	str	r1, [r0, #0]
 8002098:	4770      	bx	lr
 800209a:	bf00      	nop

0800209c <bit_set>:
 800209c:	b500      	push	{lr}
 800209e:	f7ff fddb 	bl	8001c58 <arg_list>
 80020a2:	f85d eb04 	ldr.w	lr, [sp], #4
 80020a6:	2802      	cmp	r0, #2
 80020a8:	d001      	beq.n	80020ae <bit_set+0x12>
 80020aa:	f7ff bb7f 	b.w	80017ac <syntax_error>
 80020ae:	f85c 1b04 	ldr.w	r1, [ip], #4
 80020b2:	f85c 0b04 	ldr.w	r0, [ip], #4
 80020b6:	f8d0 9000 	ldr.w	r9, [r0]
 80020ba:	ea41 0109 	orr.w	r1, r1, r9
 80020be:	6001      	str	r1, [r0, #0]
 80020c0:	4770      	bx	lr
 80020c2:	bf00      	nop

080020c4 <bit_toggle>:
 80020c4:	b500      	push	{lr}
 80020c6:	f7ff fdc7 	bl	8001c58 <arg_list>
 80020ca:	f85d eb04 	ldr.w	lr, [sp], #4
 80020ce:	2802      	cmp	r0, #2
 80020d0:	d001      	beq.n	80020d6 <bit_toggle+0x12>
 80020d2:	f7ff bb6b 	b.w	80017ac <syntax_error>
 80020d6:	f85c 1b04 	ldr.w	r1, [ip], #4
 80020da:	f85c 0b04 	ldr.w	r0, [ip], #4
 80020de:	f8d0 9000 	ldr.w	r9, [r0]
 80020e2:	ea81 0109 	eor.w	r1, r1, r9
 80020e6:	6001      	str	r1, [r0, #0]
 80020e8:	4770      	bx	lr
 80020ea:	bf00      	nop

080020ec <bit_test>:
 80020ec:	b500      	push	{lr}
 80020ee:	f7ff fd9d 	bl	8001c2c <func_args>
 80020f2:	f85d eb04 	ldr.w	lr, [sp], #4
 80020f6:	2802      	cmp	r0, #2
 80020f8:	f47f ab58 	bne.w	80017ac <syntax_error>
 80020fc:	f85c 1b04 	ldr.w	r1, [ip], #4
 8002100:	f04f 0001 	mov.w	r0, #1
 8002104:	f001 011f 	and.w	r1, r1, #31
 8002108:	b121      	cbz	r1, 8002114 <bit_test+0x28>
 800210a:	ea4f 0040 	mov.w	r0, r0, lsl #1
 800210e:	f1a1 0101 	sub.w	r1, r1, #1
 8002112:	e7f9      	b.n	8002108 <bit_test+0x1c>
 8002114:	f85c 1b04 	ldr.w	r1, [ip], #4
 8002118:	6809      	ldr	r1, [r1, #0]
 800211a:	ea01 0100 	and.w	r1, r1, r0
 800211e:	b109      	cbz	r1, 8002124 <bit_test+0x38>
 8002120:	f04f 0101 	mov.w	r1, #1
 8002124:	f04f 001b 	mov.w	r0, #27
 8002128:	4770      	bx	lr
 800212a:	bf00      	nop

0800212c <cls>:
 800212c:	b500      	push	{lr}
 800212e:	f7fe fe0b 	bl	8000d48 <clear_screen>
 8002132:	f85d eb04 	ldr.w	lr, [sp], #4
 8002136:	4770      	bx	lr

08002138 <char>:
 8002138:	b500      	push	{lr}
 800213a:	f7ff fd77 	bl	8001c2c <func_args>
 800213e:	f85d eb04 	ldr.w	lr, [sp], #4
 8002142:	2801      	cmp	r0, #1
 8002144:	f47f ab32 	bne.w	80017ac <syntax_error>
 8002148:	f85c 1b04 	ldr.w	r1, [ip], #4
 800214c:	f001 017f 	and.w	r1, r1, #127	; 0x7f
 8002150:	f04f 0013 	mov.w	r0, #19
 8002154:	4770      	bx	lr
 8002156:	bf00      	nop

08002158 <const>:
 8002158:	6c20      	ldr	r0, [r4, #64]	; 0x40
 800215a:	f010 0f01 	tst.w	r0, #1
 800215e:	d103      	bne.n	8002168 <const+0x10>
 8002160:	f04f 0007 	mov.w	r0, #7
 8002164:	f7ff bb26 	b.w	80017b4 <tb_error>
 8002168:	f8d4 80d0 	ldr.w	r8, [r4, #208]	; 0xd0
 800216c:	f8df 9714 	ldr.w	r9, [pc, #1812]	; 8002884 <pad_adr>
 8002170:	45c8      	cmp	r8, r9
 8002172:	d403      	bmi.n	800217c <const+0x24>
 8002174:	f04f 0001 	mov.w	r0, #1
 8002178:	f7ff bb1c 	b.w	80017b4 <tb_error>
 800217c:	b500      	push	{lr}
 800217e:	f7ff fd0b 	bl	8001b98 <next_token>
 8002182:	f85d eb04 	ldr.w	lr, [sp], #4
 8002186:	281a      	cmp	r0, #26
 8002188:	f47f ab10 	bne.w	80017ac <syntax_error>
 800218c:	f041 4100 	orr.w	r1, r1, #2147483648	; 0x80000000
 8002190:	f84c 1d04 	str.w	r1, [ip, #-4]!
 8002194:	f04f 000d 	mov.w	r0, #13
 8002198:	b500      	push	{lr}
 800219a:	f7ff fd39 	bl	8001c10 <expect>
 800219e:	f85d eb04 	ldr.w	lr, [sp], #4
 80021a2:	b500      	push	{lr}
 80021a4:	f7ff fe1e 	bl	8001de4 <expression>
 80021a8:	f85d eb04 	ldr.w	lr, [sp], #4
 80021ac:	281b      	cmp	r0, #27
 80021ae:	f47f aafd 	bne.w	80017ac <syntax_error>
 80021b2:	f85c 0b04 	ldr.w	r0, [ip], #4
 80021b6:	f848 0b04 	str.w	r0, [r8], #4
 80021ba:	f848 1b04 	str.w	r1, [r8], #4
 80021be:	f8c4 80d0 	str.w	r8, [r4, #208]	; 0xd0
 80021c2:	b500      	push	{lr}
 80021c4:	f7ff fce8 	bl	8001b98 <next_token>
 80021c8:	f85d eb04 	ldr.w	lr, [sp], #4
 80021cc:	2802      	cmp	r0, #2
 80021ce:	d0cf      	beq.n	8002170 <const+0x18>
 80021d0:	f8d4 a000 	ldr.w	sl, [r4]
 80021d4:	f8d4 b008 	ldr.w	fp, [r4, #8]
 80021d8:	4770      	bx	lr
 80021da:	bf00      	nop

080021dc <data_line>:
 80021dc:	6c20      	ldr	r0, [r4, #64]	; 0x40
 80021de:	f010 0f01 	tst.w	r0, #1
 80021e2:	d103      	bne.n	80021ec <data_line+0x10>
 80021e4:	f04f 0007 	mov.w	r0, #7
 80021e8:	f7ff bae4 	b.w	80017b4 <tb_error>
 80021ec:	b500      	push	{lr}
 80021ee:	f7ff fdf9 	bl	8001de4 <expression>
 80021f2:	f85d eb04 	ldr.w	lr, [sp], #4
 80021f6:	281b      	cmp	r0, #27
 80021f8:	f47f aad8 	bne.w	80017ac <syntax_error>
 80021fc:	4608      	mov	r0, r1
 80021fe:	b500      	push	{lr}
 8002200:	f7fe ff30 	bl	8001064 <search_lineno>
 8002204:	f85d eb04 	ldr.w	lr, [sp], #4
 8002208:	2900      	cmp	r1, #0
 800220a:	d003      	beq.n	8002214 <data_line+0x38>
 800220c:	f04f 000a 	mov.w	r0, #10
 8002210:	f7ff bacc 	b.w	80017ac <syntax_error>
 8002214:	78c1      	ldrb	r1, [r0, #3]
 8002216:	2917      	cmp	r1, #23
 8002218:	d1f8      	bne.n	800220c <data_line+0x30>
 800221a:	7901      	ldrb	r1, [r0, #4]
 800221c:	290c      	cmp	r1, #12
 800221e:	d1f5      	bne.n	800220c <data_line+0x30>
 8002220:	60e0      	str	r0, [r4, #12]
 8002222:	7881      	ldrb	r1, [r0, #2]
 8002224:	6161      	str	r1, [r4, #20]
 8002226:	f04f 0105 	mov.w	r1, #5
 800222a:	6121      	str	r1, [r4, #16]
 800222c:	4770      	bx	lr
 800222e:	bf00      	nop

08002230 <read>:
 8002230:	6c20      	ldr	r0, [r4, #64]	; 0x40
 8002232:	f010 0f01 	tst.w	r0, #1
 8002236:	d103      	bne.n	8002240 <read+0x10>
 8002238:	f04f 0007 	mov.w	r0, #7
 800223c:	f7ff baba 	b.w	80017b4 <tb_error>
 8002240:	6960      	ldr	r0, [r4, #20]
 8002242:	68e1      	ldr	r1, [r4, #12]
 8002244:	6922      	ldr	r2, [r4, #16]
 8002246:	4282      	cmp	r2, r0
 8002248:	d00e      	beq.n	8002268 <seek_next>
 800224a:	5c88      	ldrb	r0, [r1, r2]
 800224c:	f102 0201 	add.w	r2, r2, #1
 8002250:	2800      	cmp	r0, #0
 8002252:	d009      	beq.n	8002268 <seek_next>
 8002254:	2802      	cmp	r0, #2
 8002256:	d0f8      	beq.n	800224a <read+0x1a>
 8002258:	281b      	cmp	r0, #27
 800225a:	f47f aaa7 	bne.w	80017ac <syntax_error>
 800225e:	5889      	ldr	r1, [r1, r2]
 8002260:	f102 0204 	add.w	r2, r2, #4
 8002264:	6122      	str	r2, [r4, #16]
 8002266:	e012      	b.n	800228e <seek_next+0x26>

08002268 <seek_next>:
 8002268:	7888      	ldrb	r0, [r1, #2]
 800226a:	4401      	add	r1, r0
 800226c:	78c8      	ldrb	r0, [r1, #3]
 800226e:	2817      	cmp	r0, #23
 8002270:	d109      	bne.n	8002286 <seek_next+0x1e>
 8002272:	7908      	ldrb	r0, [r1, #4]
 8002274:	280c      	cmp	r0, #12
 8002276:	d106      	bne.n	8002286 <seek_next+0x1e>
 8002278:	60e1      	str	r1, [r4, #12]
 800227a:	7888      	ldrb	r0, [r1, #2]
 800227c:	6160      	str	r0, [r4, #20]
 800227e:	f04f 0205 	mov.w	r2, #5
 8002282:	6122      	str	r2, [r4, #16]
 8002284:	e7e1      	b.n	800224a <read+0x1a>
 8002286:	f04f 000c 	mov.w	r0, #12
 800228a:	f7ff ba93 	b.w	80017b4 <tb_error>
 800228e:	4770      	bx	lr

08002290 <restore>:
 8002290:	6c20      	ldr	r0, [r4, #64]	; 0x40
 8002292:	f010 0f01 	tst.w	r0, #1
 8002296:	d103      	bne.n	80022a0 <restore+0x10>
 8002298:	f04f 0007 	mov.w	r0, #7
 800229c:	f7ff ba8a 	b.w	80017b4 <tb_error>
 80022a0:	6b21      	ldr	r1, [r4, #48]	; 0x30
 80022a2:	6b60      	ldr	r0, [r4, #52]	; 0x34
 80022a4:	d00f      	beq.n	80022c6 <no_data_line>
 80022a6:	7908      	ldrb	r0, [r1, #4]
 80022a8:	280c      	cmp	r0, #12
 80022aa:	d109      	bne.n	80022c0 <try_next_line>
 80022ac:	78c8      	ldrb	r0, [r1, #3]
 80022ae:	2817      	cmp	r0, #23
 80022b0:	d106      	bne.n	80022c0 <try_next_line>
 80022b2:	60e1      	str	r1, [r4, #12]
 80022b4:	7888      	ldrb	r0, [r1, #2]
 80022b6:	6160      	str	r0, [r4, #20]
 80022b8:	f04f 0005 	mov.w	r0, #5
 80022bc:	6120      	str	r0, [r4, #16]
 80022be:	e007      	b.n	80022d0 <no_data_line+0xa>

080022c0 <try_next_line>:
 80022c0:	7888      	ldrb	r0, [r1, #2]
 80022c2:	4401      	add	r1, r0
 80022c4:	e7ed      	b.n	80022a2 <restore+0x12>

080022c6 <no_data_line>:
 80022c6:	ea80 0000 	eor.w	r0, r0, r0
 80022ca:	60e0      	str	r0, [r4, #12]
 80022cc:	6120      	str	r0, [r4, #16]
 80022ce:	6160      	str	r0, [r4, #20]
 80022d0:	4770      	bx	lr
 80022d2:	bf00      	nop

080022d4 <dec_base>:
 80022d4:	f04f 000a 	mov.w	r0, #10
 80022d8:	61a0      	str	r0, [r4, #24]
 80022da:	4770      	bx	lr

080022dc <do_loop>:
 80022dc:	e92c 0c00 	stmdb	ip!, {sl, fp}
 80022e0:	4770      	bx	lr
 80022e2:	bf00      	nop

080022e4 <dump>:
 80022e4:	6c20      	ldr	r0, [r4, #64]	; 0x40
 80022e6:	f010 0f01 	tst.w	r0, #1
 80022ea:	d003      	beq.n	80022f4 <dump+0x10>
 80022ec:	f04f 0007 	mov.w	r0, #7
 80022f0:	f7ff ba60 	b.w	80017b4 <tb_error>
 80022f4:	b500      	push	{lr}
 80022f6:	f7ff fcaf 	bl	8001c58 <arg_list>
 80022fa:	f85d eb04 	ldr.w	lr, [sp], #4
 80022fe:	2802      	cmp	r0, #2
 8002300:	f47f aa54 	bne.w	80017ac <syntax_error>
 8002304:	f85c 2b04 	ldr.w	r2, [ip], #4
 8002308:	f85c 0b04 	ldr.w	r0, [ip], #4

0800230c <dump01>:
 800230c:	b500      	push	{lr}
 800230e:	f000 f80d 	bl	800232c <print_dump_header>
 8002312:	f85d eb04 	ldr.w	lr, [sp], #4
 8002316:	f04f 0110 	mov.w	r1, #16
 800231a:	b500      	push	{lr}
 800231c:	f7fe fd8e 	bl	8000e3c <prt_row>
 8002320:	f85d eb04 	ldr.w	lr, [sp], #4
 8002324:	3a10      	subs	r2, #16
 8002326:	d5f6      	bpl.n	8002316 <dump01+0xa>
 8002328:	4770      	bx	lr
 800232a:	bf00      	nop

0800232c <print_dump_header>:
 800232c:	e92d 0301 	stmdb	sp!, {r0, r8, r9}
 8002330:	f04f 000c 	mov.w	r0, #12
 8002334:	b500      	push	{lr}
 8002336:	f7fe fab5 	bl	80008a4 <cursor_x>
 800233a:	f85d eb04 	ldr.w	lr, [sp], #4
 800233e:	f04f 0000 	mov.w	r0, #0
 8002342:	f04f 0910 	mov.w	r9, #16
 8002346:	4680      	mov	r8, r0
 8002348:	b500      	push	{lr}
 800234a:	f7fe f9b7 	bl	80006bc <print_hex>
 800234e:	f85d eb04 	ldr.w	lr, [sp], #4
 8002352:	f108 0001 	add.w	r0, r8, #1
 8002356:	4548      	cmp	r0, r9
 8002358:	d4f5      	bmi.n	8002346 <print_dump_header+0x1a>
 800235a:	b500      	push	{lr}
 800235c:	f7fe fcec 	bl	8000d38 <cr>
 8002360:	f85d eb04 	ldr.w	lr, [sp], #4
 8002364:	f04f 003d 	mov.w	r0, #61	; 0x3d
 8002368:	f04f 084f 	mov.w	r8, #79	; 0x4f
 800236c:	b500      	push	{lr}
 800236e:	f7fe f80f 	bl	8000390 <uart_putc>
 8002372:	f85d eb04 	ldr.w	lr, [sp], #4
 8002376:	f1b8 0801 	subs.w	r8, r8, #1
 800237a:	d1f7      	bne.n	800236c <print_dump_header+0x40>
 800237c:	b500      	push	{lr}
 800237e:	f7fe fcdb 	bl	8000d38 <cr>
 8002382:	f85d eb04 	ldr.w	lr, [sp], #4
 8002386:	e8bd 0301 	ldmia.w	sp!, {r0, r8, r9}
 800238a:	4770      	bx	lr

0800238c <cmd_end>:
 800238c:	f7ff bbba 	b.w	8001b04 <warm_start>
 8002390:	4770      	bx	lr
 8002392:	bf00      	nop

08002394 <store>:
 8002394:	b500      	push	{lr}
 8002396:	f7ff fc5f 	bl	8001c58 <arg_list>
 800239a:	f85d eb04 	ldr.w	lr, [sp], #4
 800239e:	2802      	cmp	r0, #2
 80023a0:	f47f aa04 	bne.w	80017ac <syntax_error>
 80023a4:	e8bc 0003 	ldmia.w	ip!, {r0, r1}
 80023a8:	f8df 2030 	ldr.w	r2, [pc, #48]	; 80023dc <user_space>
 80023ac:	4291      	cmp	r1, r2
 80023ae:	d503      	bpl.n	80023b8 <store+0x24>
 80023b0:	f04f 000a 	mov.w	r0, #10
 80023b4:	f7ff b9fe 	b.w	80017b4 <tb_error>
 80023b8:	f502 6280 	add.w	r2, r2, #1024	; 0x400
 80023bc:	4291      	cmp	r1, r2
 80023be:	d5f7      	bpl.n	80023b0 <store+0x1c>
 80023c0:	b500      	push	{lr}
 80023c2:	f7fe f863 	bl	800048c <flash_store>
 80023c6:	f85d eb04 	ldr.w	lr, [sp], #4
 80023ca:	4770      	bx	lr

080023cc <erase>:
 80023cc:	f8df 000c 	ldr.w	r0, [pc, #12]	; 80023dc <user_space>
 80023d0:	b500      	push	{lr}
 80023d2:	f7fe f881 	bl	80004d8 <erase_page>
 80023d6:	f85d eb04 	ldr.w	lr, [sp], #4
 80023da:	4770      	bx	lr

080023dc <user_space>:
 80023dc:	08004000 	stmdaeq	r0, {lr}

080023e0 <for>:
 80023e0:	e92c 00e0 	stmdb	ip!, {r5, r6, r7}
 80023e4:	f04f 0701 	mov.w	r7, #1
 80023e8:	b500      	push	{lr}
 80023ea:	f7ff fbd5 	bl	8001b98 <next_token>
 80023ee:	f85d eb04 	ldr.w	lr, [sp], #4
 80023f2:	2814      	cmp	r0, #20
 80023f4:	f47f a9da 	bne.w	80017ac <syntax_error>
 80023f8:	b402      	push	{r1}
 80023fa:	b500      	push	{lr}
 80023fc:	f000 f92f 	bl	800265e <let_var>
 8002400:	f85d eb04 	ldr.w	lr, [sp], #4
 8002404:	bc20      	pop	{r5}
 8002406:	ea4f 0585 	mov.w	r5, r5, lsl #2
 800240a:	4425      	add	r5, r4
 800240c:	f105 0560 	add.w	r5, r5, #96	; 0x60
 8002410:	4770      	bx	lr
 8002412:	bf00      	nop

08002414 <to>:
 8002414:	b500      	push	{lr}
 8002416:	f7ff fce5 	bl	8001de4 <expression>
 800241a:	f85d eb04 	ldr.w	lr, [sp], #4
 800241e:	281b      	cmp	r0, #27
 8002420:	f47f a9c4 	bne.w	80017ac <syntax_error>
 8002424:	460e      	mov	r6, r1
 8002426:	e92c 0c00 	stmdb	ip!, {sl, fp}
 800242a:	4770      	bx	lr

0800242c <step>:
 800242c:	b500      	push	{lr}
 800242e:	f7ff fcd9 	bl	8001de4 <expression>
 8002432:	f85d eb04 	ldr.w	lr, [sp], #4
 8002436:	281b      	cmp	r0, #27
 8002438:	f47f a9b8 	bne.w	80017ac <syntax_error>
 800243c:	460f      	mov	r7, r1
 800243e:	e88c 0c00 	stmia.w	ip, {sl, fp}
 8002442:	4770      	bx	lr

08002444 <next>:
 8002444:	b500      	push	{lr}
 8002446:	f7ff fba7 	bl	8001b98 <next_token>
 800244a:	f85d eb04 	ldr.w	lr, [sp], #4
 800244e:	2814      	cmp	r0, #20
 8002450:	f47f a9ac 	bne.w	80017ac <syntax_error>
 8002454:	ea4f 0181 	mov.w	r1, r1, lsl #2
 8002458:	4421      	add	r1, r4
 800245a:	f101 0160 	add.w	r1, r1, #96	; 0x60
 800245e:	42a9      	cmp	r1, r5
 8002460:	f47f a9a4 	bne.w	80017ac <syntax_error>
 8002464:	6828      	ldr	r0, [r5, #0]
 8002466:	4438      	add	r0, r7
 8002468:	6028      	str	r0, [r5, #0]
 800246a:	2f00      	cmp	r7, #0
 800246c:	d402      	bmi.n	8002474 <next+0x30>
 800246e:	42b0      	cmp	r0, r6
 8002470:	dc02      	bgt.n	8002478 <next+0x34>
 8002472:	e007      	b.n	8002484 <next+0x40>
 8002474:	42b0      	cmp	r0, r6
 8002476:	da05      	bge.n	8002484 <next+0x40>
 8002478:	f04f 0008 	mov.w	r0, #8
 800247c:	4484      	add	ip, r0
 800247e:	e8bc 00e0 	ldmia.w	ip!, {r5, r6, r7}
 8002482:	4770      	bx	lr
 8002484:	e89c 0c00 	ldmia.w	ip, {sl, fp}
 8002488:	f89b 0002 	ldrb.w	r0, [fp, #2]
 800248c:	6060      	str	r0, [r4, #4]
 800248e:	b500      	push	{lr}
 8002490:	f7fe fd68 	bl	8000f64 <show_trace>
 8002494:	f85d eb04 	ldr.w	lr, [sp], #4
 8002498:	4770      	bx	lr
 800249a:	bf00      	nop

0800249c <gosub>:
 800249c:	b500      	push	{lr}
 800249e:	f7fe fd91 	bl	8000fc4 <search_target>
 80024a2:	f85d eb04 	ldr.w	lr, [sp], #4
 80024a6:	e92d 0c00 	stmdb	sp!, {sl, fp}

080024aa <target>:
 80024aa:	4683      	mov	fp, r0
 80024ac:	f04f 0a03 	mov.w	sl, #3
 80024b0:	f89b 0002 	ldrb.w	r0, [fp, #2]
 80024b4:	6060      	str	r0, [r4, #4]
 80024b6:	b500      	push	{lr}
 80024b8:	f7fe fd54 	bl	8000f64 <show_trace>
 80024bc:	f85d eb04 	ldr.w	lr, [sp], #4
 80024c0:	4770      	bx	lr
 80024c2:	bf00      	nop

080024c4 <return>:
 80024c4:	e8bd 0c00 	ldmia.w	sp!, {sl, fp}
 80024c8:	f89b 0002 	ldrb.w	r0, [fp, #2]
 80024cc:	6060      	str	r0, [r4, #4]
 80024ce:	b500      	push	{lr}
 80024d0:	f7fe fd48 	bl	8000f64 <show_trace>
 80024d4:	f85d eb04 	ldr.w	lr, [sp], #4
 80024d8:	4770      	bx	lr
 80024da:	bf00      	nop

080024dc <goto>:
 80024dc:	b500      	push	{lr}
 80024de:	f7fe fd71 	bl	8000fc4 <search_target>
 80024e2:	f85d eb04 	ldr.w	lr, [sp], #4
 80024e6:	e7e0      	b.n	80024aa <target>

080024e8 <hex_base>:
 80024e8:	f04f 0010 	mov.w	r0, #16
 80024ec:	61a0      	str	r0, [r4, #24]
 80024ee:	4770      	bx	lr

080024f0 <if>:
 80024f0:	b500      	push	{lr}
 80024f2:	f7ff fca5 	bl	8001e40 <relation>
 80024f6:	f85d eb04 	ldr.w	lr, [sp], #4
 80024fa:	b909      	cbnz	r1, 8002500 <if+0x10>
 80024fc:	f8d4 a004 	ldr.w	sl, [r4, #4]
 8002500:	4770      	bx	lr
 8002502:	bf00      	nop

08002504 <then>:
 8002504:	4770      	bx	lr
 8002506:	bf00      	nop

08002508 <input_var>:
 8002508:	e92d 0104 	stmdb	sp!, {r2, r8}
 800250c:	b500      	push	{lr}
 800250e:	f7ff fb43 	bl	8001b98 <next_token>
 8002512:	f85d eb04 	ldr.w	lr, [sp], #4
 8002516:	2802      	cmp	r0, #2
 8002518:	d471      	bmi.n	80025fe <input_var+0xf6>
 800251a:	281c      	cmp	r0, #28
 800251c:	d111      	bne.n	8002542 <input_var+0x3a>
 800251e:	4608      	mov	r0, r1
 8002520:	f8df 10ec 	ldr.w	r1, [pc, #236]	; 8002610 <str_buffer>
 8002524:	b500      	push	{lr}
 8002526:	f7fe fc49 	bl	8000dbc <strcpy>
 800252a:	f85d eb04 	ldr.w	lr, [sp], #4
 800252e:	f04f 0014 	mov.w	r0, #20
 8002532:	b500      	push	{lr}
 8002534:	f7ff fb6c 	bl	8001c10 <expect>
 8002538:	f85d eb04 	ldr.w	lr, [sp], #4
 800253c:	4688      	mov	r8, r1
 800253e:	4834      	ldr	r0, [pc, #208]	; (8002610 <str_buffer>)
 8002540:	e008      	b.n	8002554 <input_var+0x4c>
 8002542:	2814      	cmp	r0, #20
 8002544:	f47f a932 	bne.w	80017ac <syntax_error>
 8002548:	4688      	mov	r8, r1
 800254a:	f101 0041 	add.w	r0, r1, #65	; 0x41
 800254e:	4930      	ldr	r1, [pc, #192]	; (8002610 <str_buffer>)
 8002550:	8008      	strh	r0, [r1, #0]
 8002552:	4608      	mov	r0, r1
 8002554:	b500      	push	{lr}
 8002556:	f7fe f83b 	bl	80005d0 <uart_puts>
 800255a:	f85d eb04 	ldr.w	lr, [sp], #4
 800255e:	f04f 003d 	mov.w	r0, #61	; 0x3d
 8002562:	b500      	push	{lr}
 8002564:	f7fd ff14 	bl	8000390 <uart_putc>
 8002568:	f85d eb04 	ldr.w	lr, [sp], #4
 800256c:	f8df 009c 	ldr.w	r0, [pc, #156]	; 800260c <input_buffer>
 8002570:	f04f 0122 	mov.w	r1, #34	; 0x22
 8002574:	b500      	push	{lr}
 8002576:	f7fe f9df 	bl	8000938 <readln>
 800257a:	f85d eb04 	ldr.w	lr, [sp], #4
 800257e:	b379      	cbz	r1, 80025e0 <input_var+0xd8>
 8002580:	7801      	ldrb	r1, [r0, #0]
 8002582:	b401      	push	{r0}
 8002584:	4608      	mov	r0, r1
 8002586:	b500      	push	{lr}
 8002588:	f7fe ffd0 	bl	800152c <is_letter>
 800258c:	f85d eb04 	ldr.w	lr, [sp], #4
 8002590:	bc01      	pop	{r0}
 8002592:	d102      	bne.n	800259a <input_var+0x92>
 8002594:	f001 015f 	and.w	r1, r1, #95	; 0x5f
 8002598:	e024      	b.n	80025e4 <input_var+0xdc>
 800259a:	f04f 0201 	mov.w	r2, #1
 800259e:	292d      	cmp	r1, #45	; 0x2d
 80025a0:	d104      	bne.n	80025ac <input_var+0xa4>
 80025a2:	f04f 32ff 	mov.w	r2, #4294967295	; 0xffffffff
 80025a6:	f100 0001 	add.w	r0, r0, #1
 80025aa:	e00d      	b.n	80025c8 <input_var+0xc0>
 80025ac:	2924      	cmp	r1, #36	; 0x24
 80025ae:	d104      	bne.n	80025ba <input_var+0xb2>
 80025b0:	f04f 0110 	mov.w	r1, #16
 80025b4:	f100 0001 	add.w	r0, r0, #1
 80025b8:	e008      	b.n	80025cc <input_var+0xc4>
 80025ba:	2926      	cmp	r1, #38	; 0x26
 80025bc:	d104      	bne.n	80025c8 <input_var+0xc0>
 80025be:	f04f 0102 	mov.w	r1, #2
 80025c2:	f100 0001 	add.w	r0, r0, #1
 80025c6:	e001      	b.n	80025cc <input_var+0xc4>
 80025c8:	f04f 010a 	mov.w	r1, #10
 80025cc:	b500      	push	{lr}
 80025ce:	f7fe ffbd 	bl	800154c <atoi>
 80025d2:	f85d eb04 	ldr.w	lr, [sp], #4
 80025d6:	b918      	cbnz	r0, 80025e0 <input_var+0xd8>
 80025d8:	f04f 000a 	mov.w	r0, #10
 80025dc:	f7ff b8ea 	b.w	80017b4 <tb_error>
 80025e0:	fb02 f101 	mul.w	r1, r2, r1
 80025e4:	4640      	mov	r0, r8
 80025e6:	b500      	push	{lr}
 80025e8:	f7ff fc84 	bl	8001ef4 <set_var>
 80025ec:	f85d eb04 	ldr.w	lr, [sp], #4
 80025f0:	b500      	push	{lr}
 80025f2:	f7ff fad1 	bl	8001b98 <next_token>
 80025f6:	f85d eb04 	ldr.w	lr, [sp], #4
 80025fa:	2802      	cmp	r0, #2
 80025fc:	d086      	beq.n	800250c <input_var+0x4>
 80025fe:	f8d4 a000 	ldr.w	sl, [r4]
 8002602:	f8d4 b008 	ldr.w	fp, [r4, #8]
 8002606:	e8bd 0104 	ldmia.w	sp!, {r2, r8}
 800260a:	4770      	bx	lr

0800260c <input_buffer>:
 800260c:	20004e30 	andcs	r4, r0, r0, lsr lr

08002610 <str_buffer>:
 8002610:	20004db0 			; <UNDEFINED> instruction: 0x20004db0

08002614 <invert>:
 8002614:	b500      	push	{lr}
 8002616:	f7ff fb09 	bl	8001c2c <func_args>
 800261a:	f85d eb04 	ldr.w	lr, [sp], #4
 800261e:	2801      	cmp	r0, #1
 8002620:	f47f a8c4 	bne.w	80017ac <syntax_error>
 8002624:	f85c 1b04 	ldr.w	r1, [ip], #4
 8002628:	ea6f 0101 	mvn.w	r1, r1
 800262c:	f04f 001b 	mov.w	r0, #27
 8002630:	4770      	bx	lr
 8002632:	bf00      	nop

08002634 <key>:
 8002634:	b500      	push	{lr}
 8002636:	f7fd fec1 	bl	80003bc <uart_getc>
 800263a:	f85d eb04 	ldr.w	lr, [sp], #4
 800263e:	4601      	mov	r1, r0
 8002640:	f04f 0013 	mov.w	r0, #19
 8002644:	4770      	bx	lr
 8002646:	bf00      	nop

08002648 <let>:
 8002648:	b500      	push	{lr}
 800264a:	f7ff faa5 	bl	8001b98 <next_token>
 800264e:	f85d eb04 	ldr.w	lr, [sp], #4
 8002652:	2814      	cmp	r0, #20
 8002654:	d003      	beq.n	800265e <let_var>
 8002656:	280c      	cmp	r0, #12
 8002658:	d007      	beq.n	800266a <let_array>
 800265a:	f7ff b8a7 	b.w	80017ac <syntax_error>

0800265e <let_var>:
 800265e:	ea4f 0181 	mov.w	r1, r1, lsl #2
 8002662:	f104 0060 	add.w	r0, r4, #96	; 0x60
 8002666:	4408      	add	r0, r1
 8002668:	e01f      	b.n	80026aa <let_array+0x40>

0800266a <let_array>:
 800266a:	f04f 0005 	mov.w	r0, #5
 800266e:	b500      	push	{lr}
 8002670:	f7ff face 	bl	8001c10 <expect>
 8002674:	f85d eb04 	ldr.w	lr, [sp], #4
 8002678:	b500      	push	{lr}
 800267a:	f7ff fbb3 	bl	8001de4 <expression>
 800267e:	f85d eb04 	ldr.w	lr, [sp], #4
 8002682:	281b      	cmp	r0, #27
 8002684:	f47f a892 	bne.w	80017ac <syntax_error>
 8002688:	f84c 1d04 	str.w	r1, [ip, #-4]!
 800268c:	f04f 0006 	mov.w	r0, #6
 8002690:	b500      	push	{lr}
 8002692:	f7ff fabd 	bl	8001c10 <expect>
 8002696:	f85d eb04 	ldr.w	lr, [sp], #4
 800269a:	f85c 1b04 	ldr.w	r1, [ip], #4
 800269e:	f8d4 00c8 	ldr.w	r0, [r4, #200]	; 0xc8
 80026a2:	ea4f 0181 	mov.w	r1, r1, lsl #2
 80026a6:	eba0 0001 	sub.w	r0, r0, r1
 80026aa:	f84c 0d04 	str.w	r0, [ip, #-4]!
 80026ae:	f04f 000d 	mov.w	r0, #13
 80026b2:	b500      	push	{lr}
 80026b4:	f7ff faac 	bl	8001c10 <expect>
 80026b8:	f85d eb04 	ldr.w	lr, [sp], #4
 80026bc:	b500      	push	{lr}
 80026be:	f7ff fb91 	bl	8001de4 <expression>
 80026c2:	f85d eb04 	ldr.w	lr, [sp], #4
 80026c6:	281b      	cmp	r0, #27
 80026c8:	f47f a870 	bne.w	80017ac <syntax_error>
 80026cc:	f85c 0b04 	ldr.w	r0, [ip], #4
 80026d0:	6001      	str	r1, [r0, #0]
 80026d2:	4770      	bx	lr

080026d4 <list>:
 80026d4:	6c20      	ldr	r0, [r4, #64]	; 0x40
 80026d6:	f010 0f01 	tst.w	r0, #1
 80026da:	d003      	beq.n	80026e4 <list+0x10>
 80026dc:	f04f 0007 	mov.w	r0, #7
 80026e0:	f7ff b868 	b.w	80017b4 <tb_error>
 80026e4:	f8d4 8030 	ldr.w	r8, [r4, #48]	; 0x30
 80026e8:	f8d4 9034 	ldr.w	r9, [r4, #52]	; 0x34
 80026ec:	f8b8 2000 	ldrh.w	r2, [r8]
 80026f0:	f64f 73ff 	movw	r3, #65535	; 0xffff
 80026f4:	b500      	push	{lr}
 80026f6:	f7ff fa4f 	bl	8001b98 <next_token>
 80026fa:	f85d eb04 	ldr.w	lr, [sp], #4
 80026fe:	b310      	cbz	r0, 8002746 <list+0x72>
 8002700:	281b      	cmp	r0, #27
 8002702:	d109      	bne.n	8002718 <list+0x44>
 8002704:	460a      	mov	r2, r1
 8002706:	b500      	push	{lr}
 8002708:	f7ff fa46 	bl	8001b98 <next_token>
 800270c:	f85d eb04 	ldr.w	lr, [sp], #4
 8002710:	2800      	cmp	r0, #0
 8002712:	d101      	bne.n	8002718 <list+0x44>
 8002714:	4613      	mov	r3, r2
 8002716:	e00c      	b.n	8002732 <list+0x5e>
 8002718:	2808      	cmp	r0, #8
 800271a:	f47f a847 	bne.w	80017ac <syntax_error>
 800271e:	b500      	push	{lr}
 8002720:	f7ff fa3a 	bl	8001b98 <next_token>
 8002724:	f85d eb04 	ldr.w	lr, [sp], #4
 8002728:	b118      	cbz	r0, 8002732 <list+0x5e>
 800272a:	281b      	cmp	r0, #27
 800272c:	f47f a83e 	bne.w	80017ac <syntax_error>
 8002730:	460b      	mov	r3, r1
 8002732:	f8b8 0000 	ldrh.w	r0, [r8]
 8002736:	4290      	cmp	r0, r2
 8002738:	d505      	bpl.n	8002746 <list+0x72>
 800273a:	f898 0002 	ldrb.w	r0, [r8, #2]
 800273e:	4480      	add	r8, r0
 8002740:	45c8      	cmp	r8, r9
 8002742:	d4f6      	bmi.n	8002732 <list+0x5e>
 8002744:	e01a      	b.n	800277c <list+0xa8>
 8002746:	45c8      	cmp	r8, r9
 8002748:	d518      	bpl.n	800277c <list+0xa8>
 800274a:	4640      	mov	r0, r8
 800274c:	f8df 1030 	ldr.w	r1, [pc, #48]	; 8002780 <out_buff>
 8002750:	b500      	push	{lr}
 8002752:	f7fe ff33 	bl	80015bc <decompile_line>
 8002756:	f85d eb04 	ldr.w	lr, [sp], #4
 800275a:	b500      	push	{lr}
 800275c:	f7fd ff38 	bl	80005d0 <uart_puts>
 8002760:	f85d eb04 	ldr.w	lr, [sp], #4
 8002764:	b500      	push	{lr}
 8002766:	f7fe fae7 	bl	8000d38 <cr>
 800276a:	f85d eb04 	ldr.w	lr, [sp], #4
 800276e:	f898 0002 	ldrb.w	r0, [r8, #2]
 8002772:	4480      	add	r8, r0
 8002774:	f8b8 0000 	ldrh.w	r0, [r8]
 8002778:	4298      	cmp	r0, r3
 800277a:	dde4      	ble.n	8002746 <list+0x72>
 800277c:	f7ff b9c2 	b.w	8001b04 <warm_start>

08002780 <out_buff>:
 8002780:	20004e30 	andcs	r4, r0, r0, lsr lr

08002784 <locate>:
 8002784:	b500      	push	{lr}
 8002786:	f7ff fa67 	bl	8001c58 <arg_list>
 800278a:	f85d eb04 	ldr.w	lr, [sp], #4
 800278e:	2802      	cmp	r0, #2
 8002790:	f47f a80c 	bne.w	80017ac <syntax_error>
 8002794:	f85c 1b04 	ldr.w	r1, [ip], #4
 8002798:	f85c 0b04 	ldr.w	r0, [ip], #4
 800279c:	b500      	push	{lr}
 800279e:	f7fe fa87 	bl	8000cb0 <set_curpos>
 80027a2:	f85d eb04 	ldr.w	lr, [sp], #4
 80027a6:	4770      	bx	lr

080027a8 <lshift>:
 80027a8:	b500      	push	{lr}
 80027aa:	f7ff fa3f 	bl	8001c2c <func_args>
 80027ae:	f85d eb04 	ldr.w	lr, [sp], #4
 80027b2:	2802      	cmp	r0, #2
 80027b4:	f47e affa 	bne.w	80017ac <syntax_error>
 80027b8:	e8bc 0003 	ldmia.w	ip!, {r0, r1}
 80027bc:	fa01 f100 	lsl.w	r1, r1, r0
 80027c0:	f04f 001b 	mov.w	r0, #27
 80027c4:	4770      	bx	lr
 80027c6:	bf00      	nop

080027c8 <new>:
 80027c8:	6c20      	ldr	r0, [r4, #64]	; 0x40
 80027ca:	f010 0f01 	tst.w	r0, #1
 80027ce:	d003      	beq.n	80027d8 <new+0x10>
 80027d0:	f04f 0007 	mov.w	r0, #7
 80027d4:	f7fe bfee 	b.w	80017b4 <tb_error>
 80027d8:	b500      	push	{lr}
 80027da:	f7ff f94f 	bl	8001a7c <clear_basic>
 80027de:	f85d eb04 	ldr.w	lr, [sp], #4
 80027e2:	f7ff b98f 	b.w	8001b04 <warm_start>
 80027e6:	bf00      	nop

080027e8 <func_not>:
 80027e8:	b500      	push	{lr}
 80027ea:	f7ff fb29 	bl	8001e40 <relation>
 80027ee:	f85d eb04 	ldr.w	lr, [sp], #4
 80027f2:	b111      	cbz	r1, 80027fa <func_not+0x12>
 80027f4:	ea81 0101 	eor.w	r1, r1, r1
 80027f8:	e001      	b.n	80027fe <func_not+0x16>
 80027fa:	f04f 31ff 	mov.w	r1, #4294967295	; 0xffffffff
 80027fe:	4770      	bx	lr

08002800 <bit_or>:
 8002800:	b500      	push	{lr}
 8002802:	f7ff fa13 	bl	8001c2c <func_args>
 8002806:	f85d eb04 	ldr.w	lr, [sp], #4
 800280a:	2802      	cmp	r0, #2
 800280c:	f47e afce 	bne.w	80017ac <syntax_error>
 8002810:	f85c 0b04 	ldr.w	r0, [ip], #4
 8002814:	f85c 1b04 	ldr.w	r1, [ip], #4
 8002818:	ea41 0100 	orr.w	r1, r1, r0
 800281c:	f04f 001b 	mov.w	r0, #27
 8002820:	4770      	bx	lr
 8002822:	bf00      	nop

08002824 <pin_input>:
 8002824:	b500      	push	{lr}
 8002826:	f7ff fa01 	bl	8001c2c <func_args>
 800282a:	f85d eb04 	ldr.w	lr, [sp], #4
 800282e:	2802      	cmp	r0, #2
 8002830:	f47e afbc 	bne.w	80017ac <syntax_error>
 8002834:	e8bc 0003 	ldmia.w	ip!, {r0, r1}
 8002838:	f04f 0208 	mov.w	r2, #8
 800283c:	588a      	ldr	r2, [r1, r2]
 800283e:	f000 000f 	and.w	r0, r0, #15
 8002842:	fa22 f200 	lsr.w	r2, r2, r0
 8002846:	f002 0101 	and.w	r1, r2, #1
 800284a:	f04f 001b 	mov.w	r0, #27
 800284e:	4770      	bx	lr

08002850 <out>:
 8002850:	b500      	push	{lr}
 8002852:	f7ff fa01 	bl	8001c58 <arg_list>
 8002856:	f85d eb04 	ldr.w	lr, [sp], #4
 800285a:	2803      	cmp	r0, #3
 800285c:	f47e afa6 	bne.w	80017ac <syntax_error>
 8002860:	e8bc 0007 	ldmia.w	ip!, {r0, r1, r2}
 8002864:	f04f 0310 	mov.w	r3, #16
 8002868:	b908      	cbnz	r0, 800286e <out+0x1e>
 800286a:	f101 0110 	add.w	r1, r1, #16
 800286e:	f04f 0001 	mov.w	r0, #1
 8002872:	fa00 f001 	lsl.w	r0, r0, r1
 8002876:	50d0      	str	r0, [r2, r3]
 8002878:	4770      	bx	lr
 800287a:	bf00      	nop

0800287c <pad_ref>:
 800287c:	4901      	ldr	r1, [pc, #4]	; (8002884 <pad_adr>)
 800287e:	f04f 001b 	mov.w	r0, #27
 8002882:	4770      	bx	lr

08002884 <pad_adr>:
 8002884:	20004db0 			; <UNDEFINED> instruction: 0x20004db0

08002888 <pause>:
 8002888:	b500      	push	{lr}
 800288a:	f7ff faab 	bl	8001de4 <expression>
 800288e:	f85d eb04 	ldr.w	lr, [sp], #4
 8002892:	281b      	cmp	r0, #27
 8002894:	f47e af8a 	bne.w	80017ac <syntax_error>
 8002898:	69e0      	ldr	r0, [r4, #28]
 800289a:	4408      	add	r0, r1
 800289c:	69e1      	ldr	r1, [r4, #28]
 800289e:	4288      	cmp	r0, r1
 80028a0:	d1fc      	bne.n	800289c <pause+0x14>
 80028a2:	4770      	bx	lr

080028a4 <pin_mode>:
 80028a4:	f04f 0013 	mov.w	r0, #19
 80028a8:	b500      	push	{lr}
 80028aa:	f7ff f9b1 	bl	8001c10 <expect>
 80028ae:	f85d eb04 	ldr.w	lr, [sp], #4
 80028b2:	4608      	mov	r0, r1
 80028b4:	b500      	push	{lr}
 80028b6:	f7fe fe11 	bl	80014dc <upper>
 80028ba:	f85d eb04 	ldr.w	lr, [sp], #4
 80028be:	f1a0 0941 	sub.w	r9, r0, #65	; 0x41
 80028c2:	f04f 0002 	mov.w	r0, #2
 80028c6:	b500      	push	{lr}
 80028c8:	f7ff f9a2 	bl	8001c10 <expect>
 80028cc:	f85d eb04 	ldr.w	lr, [sp], #4
 80028d0:	b500      	push	{lr}
 80028d2:	f7ff f9c1 	bl	8001c58 <arg_list>
 80028d6:	f85d eb04 	ldr.w	lr, [sp], #4
 80028da:	2802      	cmp	r0, #2
 80028dc:	f53e af66 	bmi.w	80017ac <syntax_error>
 80028e0:	2804      	cmp	r0, #4
 80028e2:	d401      	bmi.n	80028e8 <pin_mode+0x44>
 80028e4:	f7fe bf62 	b.w	80017ac <syntax_error>
 80028e8:	f04f 0200 	mov.w	r2, #0
 80028ec:	2802      	cmp	r0, #2
 80028ee:	d002      	beq.n	80028f6 <pin_mode+0x52>
 80028f0:	e8bc 010c 	ldmia.w	ip!, {r2, r3, r8}
 80028f4:	e001      	b.n	80028fa <pin_mode+0x56>
 80028f6:	e8bc 0108 	ldmia.w	ip!, {r3, r8}
 80028fa:	f44f 6080 	mov.w	r0, #1024	; 0x400
 80028fe:	fb00 f909 	mul.w	r9, r0, r9
 8002902:	f44f 6000 	mov.w	r0, #2048	; 0x800
 8002906:	f2c4 0001 	movt	r0, #16385	; 0x4001
 800290a:	4481      	add	r9, r0
 800290c:	b983      	cbnz	r3, 8002930 <pin_mode+0x8c>
 800290e:	2a02      	cmp	r2, #2
 8002910:	d40e      	bmi.n	8002930 <pin_mode+0x8c>
 8002912:	f04f 0001 	mov.w	r0, #1
 8002916:	4641      	mov	r1, r8
 8002918:	2a03      	cmp	r2, #3
 800291a:	d001      	beq.n	8002920 <pin_mode+0x7c>
 800291c:	f101 0110 	add.w	r1, r1, #16
 8002920:	fa00 f001 	lsl.w	r0, r0, r1
 8002924:	f8c9 0010 	str.w	r0, [r9, #16]
 8002928:	2a03      	cmp	r2, #3
 800292a:	d401      	bmi.n	8002930 <pin_mode+0x8c>
 800292c:	f1a2 0201 	sub.w	r2, r2, #1
 8002930:	f1b8 0f08 	cmp.w	r8, #8
 8002934:	d403      	bmi.n	800293e <pin_mode+0x9a>
 8002936:	f1a8 0808 	sub.w	r8, r8, #8
 800293a:	f109 0904 	add.w	r9, r9, #4
 800293e:	f04f 000f 	mov.w	r0, #15
 8002942:	ea4f 0188 	mov.w	r1, r8, lsl #2
 8002946:	fa00 f001 	lsl.w	r0, r0, r1
 800294a:	ea6f 0000 	mvn.w	r0, r0
 800294e:	f8d9 1000 	ldr.w	r1, [r9]
 8002952:	ea01 0100 	and.w	r1, r1, r0
 8002956:	ea4f 0082 	mov.w	r0, r2, lsl #2
 800295a:	ea40 0003 	orr.w	r0, r0, r3
 800295e:	ea4f 0388 	mov.w	r3, r8, lsl #2
 8002962:	fa00 f003 	lsl.w	r0, r0, r3
 8002966:	ea41 0100 	orr.w	r1, r1, r0
 800296a:	f8c9 1000 	str.w	r1, [r9]
 800296e:	4770      	bx	lr

08002970 <peek8>:
 8002970:	b500      	push	{lr}
 8002972:	f7ff f95b 	bl	8001c2c <func_args>
 8002976:	f85d eb04 	ldr.w	lr, [sp], #4
 800297a:	2801      	cmp	r0, #1
 800297c:	f53e af16 	bmi.w	80017ac <syntax_error>
 8002980:	f85c 1b04 	ldr.w	r1, [ip], #4
 8002984:	7809      	ldrb	r1, [r1, #0]
 8002986:	f04f 001b 	mov.w	r0, #27
 800298a:	4770      	bx	lr

0800298c <peek16>:
 800298c:	b500      	push	{lr}
 800298e:	f7ff f94d 	bl	8001c2c <func_args>
 8002992:	f85d eb04 	ldr.w	lr, [sp], #4
 8002996:	2801      	cmp	r0, #1
 8002998:	f53e af08 	bmi.w	80017ac <syntax_error>
 800299c:	f85c 1b04 	ldr.w	r1, [ip], #4
 80029a0:	8809      	ldrh	r1, [r1, #0]
 80029a2:	f04f 001b 	mov.w	r0, #27
 80029a6:	4770      	bx	lr

080029a8 <peek32>:
 80029a8:	b500      	push	{lr}
 80029aa:	f7ff f93f 	bl	8001c2c <func_args>
 80029ae:	f85d eb04 	ldr.w	lr, [sp], #4
 80029b2:	2801      	cmp	r0, #1
 80029b4:	f53e aefa 	bmi.w	80017ac <syntax_error>
 80029b8:	f85c 1b04 	ldr.w	r1, [ip], #4
 80029bc:	6809      	ldr	r1, [r1, #0]
 80029be:	f04f 001b 	mov.w	r0, #27
 80029c2:	4770      	bx	lr

080029c4 <poke8>:
 80029c4:	b500      	push	{lr}
 80029c6:	f7ff f947 	bl	8001c58 <arg_list>
 80029ca:	f85d eb04 	ldr.w	lr, [sp], #4
 80029ce:	2802      	cmp	r0, #2
 80029d0:	f47e aeec 	bne.w	80017ac <syntax_error>
 80029d4:	e8bc 0003 	ldmia.w	ip!, {r0, r1}
 80029d8:	7008      	strb	r0, [r1, #0]
 80029da:	4770      	bx	lr

080029dc <poke16>:
 80029dc:	b500      	push	{lr}
 80029de:	f7ff f93b 	bl	8001c58 <arg_list>
 80029e2:	f85d eb04 	ldr.w	lr, [sp], #4
 80029e6:	2802      	cmp	r0, #2
 80029e8:	f47e aee0 	bne.w	80017ac <syntax_error>
 80029ec:	e8bc 0003 	ldmia.w	ip!, {r0, r1}
 80029f0:	8008      	strh	r0, [r1, #0]
 80029f2:	4770      	bx	lr

080029f4 <poke32>:
 80029f4:	b500      	push	{lr}
 80029f6:	f7ff f92f 	bl	8001c58 <arg_list>
 80029fa:	f85d eb04 	ldr.w	lr, [sp], #4
 80029fe:	2802      	cmp	r0, #2
 8002a00:	f47e aed4 	bne.w	80017ac <syntax_error>
 8002a04:	e8bc 0003 	ldmia.w	ip!, {r0, r1}
 8002a08:	6008      	str	r0, [r1, #0]
 8002a0a:	4770      	bx	lr

08002a0c <print>:
 8002a0c:	6c20      	ldr	r0, [r4, #64]	; 0x40
 8002a0e:	f040 0080 	orr.w	r0, r0, #128	; 0x80
 8002a12:	6420      	str	r0, [r4, #64]	; 0x40
 8002a14:	ea88 0808 	eor.w	r8, r8, r8
 8002a18:	b500      	push	{lr}
 8002a1a:	f7ff f9e3 	bl	8001de4 <expression>
 8002a1e:	f85d eb04 	ldr.w	lr, [sp], #4
 8002a22:	281b      	cmp	r0, #27
 8002a24:	d107      	bne.n	8002a36 <print+0x2a>
 8002a26:	4608      	mov	r0, r1
 8002a28:	69a1      	ldr	r1, [r4, #24]
 8002a2a:	b500      	push	{lr}
 8002a2c:	f7fd fe3a 	bl	80006a4 <print_int>
 8002a30:	f85d eb04 	ldr.w	lr, [sp], #4
 8002a34:	e039      	b.n	8002aaa <print+0x9e>
 8002a36:	2801      	cmp	r0, #1
 8002a38:	dc00      	bgt.n	8002a3c <print+0x30>
 8002a3a:	e04d      	b.n	8002ad8 <unget_exit>
 8002a3c:	281c      	cmp	r0, #28
 8002a3e:	d106      	bne.n	8002a4e <print+0x42>
 8002a40:	4608      	mov	r0, r1
 8002a42:	b500      	push	{lr}
 8002a44:	f7fd fdc4 	bl	80005d0 <uart_puts>
 8002a48:	f85d eb04 	ldr.w	lr, [sp], #4
 8002a4c:	e02d      	b.n	8002aaa <print+0x9e>
 8002a4e:	2816      	cmp	r0, #22
 8002a50:	d105      	bne.n	8002a5e <print+0x52>
 8002a52:	4608      	mov	r0, r1
 8002a54:	b500      	push	{lr}
 8002a56:	f7ff f89b 	bl	8001b90 <execute>
 8002a5a:	f85d eb04 	ldr.w	lr, [sp], #4
 8002a5e:	2813      	cmp	r0, #19
 8002a60:	d106      	bne.n	8002a70 <print+0x64>
 8002a62:	4608      	mov	r0, r1
 8002a64:	b500      	push	{lr}
 8002a66:	f7fd fc93 	bl	8000390 <uart_putc>
 8002a6a:	f85d eb04 	ldr.w	lr, [sp], #4
 8002a6e:	e01c      	b.n	8002aaa <print+0x9e>
 8002a70:	2804      	cmp	r0, #4
 8002a72:	d109      	bne.n	8002a88 <print+0x7c>
 8002a74:	b500      	push	{lr}
 8002a76:	f7ff f88f 	bl	8001b98 <next_token>
 8002a7a:	f85d eb04 	ldr.w	lr, [sp], #4
 8002a7e:	281b      	cmp	r0, #27
 8002a80:	f47e ae94 	bne.w	80017ac <syntax_error>
 8002a84:	6461      	str	r1, [r4, #68]	; 0x44
 8002a86:	e010      	b.n	8002aaa <print+0x9e>
 8002a88:	2817      	cmp	r0, #23
 8002a8a:	d125      	bne.n	8002ad8 <unget_exit>
 8002a8c:	2946      	cmp	r1, #70	; 0x46
 8002a8e:	d105      	bne.n	8002a9c <print+0x90>
 8002a90:	b500      	push	{lr}
 8002a92:	f000 fa9b 	bl	8002fcc <tab>
 8002a96:	f85d eb04 	ldr.w	lr, [sp], #4
 8002a9a:	e006      	b.n	8002aaa <print+0x9e>
 8002a9c:	2942      	cmp	r1, #66	; 0x42
 8002a9e:	d11b      	bne.n	8002ad8 <unget_exit>
 8002aa0:	b500      	push	{lr}
 8002aa2:	f000 fa55 	bl	8002f50 <spc>
 8002aa6:	f85d eb04 	ldr.w	lr, [sp], #4
 8002aaa:	ea88 0808 	eor.w	r8, r8, r8
 8002aae:	b500      	push	{lr}
 8002ab0:	f7ff f872 	bl	8001b98 <next_token>
 8002ab4:	f85d eb04 	ldr.w	lr, [sp], #4
 8002ab8:	b190      	cbz	r0, 8002ae0 <print_exit>
 8002aba:	2802      	cmp	r0, #2
 8002abc:	d102      	bne.n	8002ac4 <print+0xb8>
 8002abe:	f04f 38ff 	mov.w	r8, #4294967295	; 0xffffffff
 8002ac2:	e7a9      	b.n	8002a18 <print+0xc>
 8002ac4:	2803      	cmp	r0, #3
 8002ac6:	d107      	bne.n	8002ad8 <unget_exit>
 8002ac8:	b500      	push	{lr}
 8002aca:	f7fe f911 	bl	8000cf0 <tabulation>
 8002ace:	f85d eb04 	ldr.w	lr, [sp], #4
 8002ad2:	f04f 38ff 	mov.w	r8, #4294967295	; 0xffffffff
 8002ad6:	e79f      	b.n	8002a18 <print+0xc>

08002ad8 <unget_exit>:
 8002ad8:	f8d4 a000 	ldr.w	sl, [r4]
 8002adc:	f8d4 b008 	ldr.w	fp, [r4, #8]

08002ae0 <print_exit>:
 8002ae0:	ea18 0808 	ands.w	r8, r8, r8
 8002ae4:	d108      	bne.n	8002af8 <print_exit+0x18>
 8002ae6:	b500      	push	{lr}
 8002ae8:	f7fe f926 	bl	8000d38 <cr>
 8002aec:	f85d eb04 	ldr.w	lr, [sp], #4
 8002af0:	6c20      	ldr	r0, [r4, #64]	; 0x40
 8002af2:	f080 0080 	eor.w	r0, r0, #128	; 0x80
 8002af6:	6420      	str	r0, [r4, #64]	; 0x40
 8002af8:	4770      	bx	lr
 8002afa:	bf00      	nop

08002afc <qkey>:
 8002afc:	f04f 0100 	mov.w	r1, #0
 8002b00:	b500      	push	{lr}
 8002b02:	f7fd fc55 	bl	80003b0 <uart_qkey>
 8002b06:	f85d eb04 	ldr.w	lr, [sp], #4
 8002b0a:	d001      	beq.n	8002b10 <qkey+0x14>
 8002b0c:	f04f 31ff 	mov.w	r1, #4294967295	; 0xffffffff
 8002b10:	f04f 001b 	mov.w	r0, #27
 8002b14:	4770      	bx	lr
 8002b16:	bf00      	nop

08002b18 <random>:
 8002b18:	b500      	push	{lr}
 8002b1a:	f7ff f887 	bl	8001c2c <func_args>
 8002b1e:	f85d eb04 	ldr.w	lr, [sp], #4
 8002b22:	2801      	cmp	r0, #1
 8002b24:	f47e ae42 	bne.w	80017ac <syntax_error>
 8002b28:	6a60      	ldr	r0, [r4, #36]	; 0x24
 8002b2a:	ea4f 3140 	mov.w	r1, r0, lsl #13
 8002b2e:	ea81 0100 	eor.w	r1, r1, r0
 8002b32:	ea4f 4051 	mov.w	r0, r1, lsr #17
 8002b36:	ea81 0100 	eor.w	r1, r1, r0
 8002b3a:	ea4f 1041 	mov.w	r0, r1, lsl #5
 8002b3e:	ea81 0100 	eor.w	r1, r1, r0
 8002b42:	6261      	str	r1, [r4, #36]	; 0x24
 8002b44:	f85c 0b04 	ldr.w	r0, [ip], #4
 8002b48:	fbb1 f2f0 	udiv	r2, r1, r0
 8002b4c:	fb00 f202 	mul.w	r2, r0, r2
 8002b50:	eba1 0102 	sub.w	r1, r1, r2
 8002b54:	f04f 001b 	mov.w	r0, #27
 8002b58:	4770      	bx	lr
 8002b5a:	bf00      	nop

08002b5c <rshift>:
 8002b5c:	b500      	push	{lr}
 8002b5e:	f7ff f865 	bl	8001c2c <func_args>
 8002b62:	f85d eb04 	ldr.w	lr, [sp], #4
 8002b66:	2802      	cmp	r0, #2
 8002b68:	f47e ae20 	bne.w	80017ac <syntax_error>
 8002b6c:	e8bc 0003 	ldmia.w	ip!, {r0, r1}
 8002b70:	fa21 f100 	lsr.w	r1, r1, r0
 8002b74:	f04f 001b 	mov.w	r0, #27
 8002b78:	4770      	bx	lr
 8002b7a:	bf00      	nop

08002b7c <run>:
 8002b7c:	6c20      	ldr	r0, [r4, #64]	; 0x40
 8002b7e:	f010 0f01 	tst.w	r0, #1
 8002b82:	d003      	beq.n	8002b8c <run+0x10>
 8002b84:	f04f 0007 	mov.w	r0, #7
 8002b88:	f7fe be14 	b.w	80017b4 <tb_error>
 8002b8c:	6b20      	ldr	r0, [r4, #48]	; 0x30
 8002b8e:	6b61      	ldr	r1, [r4, #52]	; 0x34
 8002b90:	f8c4 10d0 	str.w	r1, [r4, #208]	; 0xd0
 8002b94:	4288      	cmp	r0, r1
 8002b96:	d021      	beq.n	8002bdc <run+0x60>
 8002b98:	6c21      	ldr	r1, [r4, #64]	; 0x40
 8002b9a:	f011 0f08 	tst.w	r1, #8
 8002b9e:	d009      	beq.n	8002bb4 <run+0x38>
 8002ba0:	e8bc 0c01 	ldmia.w	ip!, {r0, sl, fp}
 8002ba4:	6060      	str	r0, [r4, #4]
 8002ba6:	6c20      	ldr	r0, [r4, #64]	; 0x40
 8002ba8:	f04f 0109 	mov.w	r1, #9
 8002bac:	ea80 0001 	eor.w	r0, r0, r1
 8002bb0:	6420      	str	r0, [r4, #64]	; 0x40
 8002bb2:	e013      	b.n	8002bdc <run+0x60>
 8002bb4:	7881      	ldrb	r1, [r0, #2]
 8002bb6:	6061      	str	r1, [r4, #4]
 8002bb8:	4683      	mov	fp, r0
 8002bba:	f04f 0a03 	mov.w	sl, #3
 8002bbe:	6b60      	ldr	r0, [r4, #52]	; 0x34
 8002bc0:	ea80 0000 	eor.w	r0, r0, r0
 8002bc4:	60e0      	str	r0, [r4, #12]
 8002bc6:	6120      	str	r0, [r4, #16]
 8002bc8:	6160      	str	r0, [r4, #20]
 8002bca:	6c20      	ldr	r0, [r4, #64]	; 0x40
 8002bcc:	f040 0001 	orr.w	r0, r0, #1
 8002bd0:	6420      	str	r0, [r4, #64]	; 0x40
 8002bd2:	b500      	push	{lr}
 8002bd4:	f7fe f9c6 	bl	8000f64 <show_trace>
 8002bd8:	f85d eb04 	ldr.w	lr, [sp], #4
 8002bdc:	4770      	bx	lr
 8002bde:	bf00      	nop

08002be0 <search_free>:
 8002be0:	b406      	push	{r1, r2}
 8002be2:	f8df 1064 	ldr.w	r1, [pc, #100]	; 8002c48 <fs_addr>
 8002be6:	f04f 0200 	mov.w	r2, #0
 8002bea:	f6c0 0202 	movt	r2, #2050	; 0x802
 8002bee:	6808      	ldr	r0, [r1, #0]
 8002bf0:	f1b0 3fff 	cmp.w	r0, #4294967295	; 0xffffffff
 8002bf4:	d003      	beq.n	8002bfe <search_free+0x1e>
 8002bf6:	f501 6180 	add.w	r1, r1, #1024	; 0x400
 8002bfa:	4291      	cmp	r1, r2
 8002bfc:	d4f7      	bmi.n	8002bee <search_free+0xe>
 8002bfe:	4608      	mov	r0, r1
 8002c00:	bc06      	pop	{r1, r2}
 8002c02:	4770      	bx	lr

08002c04 <search_file>:
 8002c04:	b40e      	push	{r1, r2, r3}
 8002c06:	f8df 2040 	ldr.w	r2, [pc, #64]	; 8002c48 <fs_addr>
 8002c0a:	4603      	mov	r3, r0

08002c0c <cmp_loop>:
 8002c0c:	6810      	ldr	r0, [r2, #0]
 8002c0e:	f1b0 3fff 	cmp.w	r0, #4294967295	; 0xffffffff
 8002c12:	ea80 0000 	eor.w	r0, r0, r0
 8002c16:	d015      	beq.n	8002c44 <cmp_loop+0x38>
 8002c18:	4618      	mov	r0, r3
 8002c1a:	f102 0102 	add.w	r1, r2, #2
 8002c1e:	b500      	push	{lr}
 8002c20:	f7fe f8d6 	bl	8000dd0 <strcmp>
 8002c24:	f85d eb04 	ldr.w	lr, [sp], #4
 8002c28:	b908      	cbnz	r0, 8002c2e <cmp_loop+0x22>
 8002c2a:	4610      	mov	r0, r2
 8002c2c:	e00a      	b.n	8002c44 <cmp_loop+0x38>
 8002c2e:	8810      	ldrh	r0, [r2, #0]
 8002c30:	4402      	add	r2, r0
 8002c32:	8810      	ldrh	r0, [r2, #0]
 8002c34:	4410      	add	r0, r2
 8002c36:	b500      	push	{lr}
 8002c38:	f7fd fc88 	bl	800054c <page_align>
 8002c3c:	f85d eb04 	ldr.w	lr, [sp], #4
 8002c40:	4602      	mov	r2, r0
 8002c42:	e7e3      	b.n	8002c0c <cmp_loop>
 8002c44:	bc0e      	pop	{r1, r2, r3}
 8002c46:	4770      	bx	lr

08002c48 <fs_addr>:
 8002c48:	08004400 	stmdaeq	r0, {sl, lr}

08002c4c <directory>:
 8002c4c:	6c20      	ldr	r0, [r4, #64]	; 0x40
 8002c4e:	f010 0f01 	tst.w	r0, #1
 8002c52:	d003      	beq.n	8002c5c <directory+0x10>
 8002c54:	f04f 0007 	mov.w	r0, #7
 8002c58:	f7fe bdac 	b.w	80017b4 <tb_error>
 8002c5c:	ea82 0202 	eor.w	r2, r2, r2
 8002c60:	f85f 801c 	ldr.w	r8, [pc, #-28]	; 8002c48 <fs_addr>
 8002c64:	f8d8 0000 	ldr.w	r0, [r8]
 8002c68:	f1b0 3fff 	cmp.w	r0, #4294967295	; 0xffffffff
 8002c6c:	d02a      	beq.n	8002cc4 <no_more_file>
 8002c6e:	f000 030f 	and.w	r3, r0, #15
 8002c72:	f108 0002 	add.w	r0, r8, #2
 8002c76:	b500      	push	{lr}
 8002c78:	f7fd fcaa 	bl	80005d0 <uart_puts>
 8002c7c:	f85d eb04 	ldr.w	lr, [sp], #4
 8002c80:	f04f 0010 	mov.w	r0, #16
 8002c84:	b500      	push	{lr}
 8002c86:	f7fd fe0d 	bl	80008a4 <cursor_x>
 8002c8a:	f85d eb04 	ldr.w	lr, [sp], #4
 8002c8e:	4498      	add	r8, r3
 8002c90:	f8b8 3000 	ldrh.w	r3, [r8]
 8002c94:	4618      	mov	r0, r3
 8002c96:	f04f 010a 	mov.w	r1, #10
 8002c9a:	b500      	push	{lr}
 8002c9c:	f7fd fd02 	bl	80006a4 <print_int>
 8002ca0:	f85d eb04 	ldr.w	lr, [sp], #4
 8002ca4:	b500      	push	{lr}
 8002ca6:	f7fe f847 	bl	8000d38 <cr>
 8002caa:	f85d eb04 	ldr.w	lr, [sp], #4
 8002cae:	eb08 0003 	add.w	r0, r8, r3
 8002cb2:	b500      	push	{lr}
 8002cb4:	f7fd fc4a 	bl	800054c <page_align>
 8002cb8:	f85d eb04 	ldr.w	lr, [sp], #4
 8002cbc:	4680      	mov	r8, r0
 8002cbe:	f102 0201 	add.w	r2, r2, #1
 8002cc2:	e7cf      	b.n	8002c64 <directory+0x18>

08002cc4 <no_more_file>:
 8002cc4:	b500      	push	{lr}
 8002cc6:	f7fe f837 	bl	8000d38 <cr>
 8002cca:	f85d eb04 	ldr.w	lr, [sp], #4
 8002cce:	f04f 0010 	mov.w	r0, #16
 8002cd2:	b500      	push	{lr}
 8002cd4:	f7fd fde6 	bl	80008a4 <cursor_x>
 8002cd8:	f85d eb04 	ldr.w	lr, [sp], #4
 8002cdc:	4610      	mov	r0, r2
 8002cde:	f04f 010a 	mov.w	r1, #10
 8002ce2:	b500      	push	{lr}
 8002ce4:	f7fd fcde 	bl	80006a4 <print_int>
 8002ce8:	f85d eb04 	ldr.w	lr, [sp], #4
 8002cec:	f8df 0554 	ldr.w	r0, [pc, #1364]	; 8003244 <put+0x28>
 8002cf0:	b500      	push	{lr}
 8002cf2:	f7fd fc6d 	bl	80005d0 <uart_puts>
 8002cf6:	f85d eb04 	ldr.w	lr, [sp], #4
 8002cfa:	4770      	bx	lr

08002cfc <fcount>:
 8002cfc:	656c6966 	strbvs	r6, [ip, #-2406]!	; 0xfffff69a
 8002d00:	00000a73 	andeq	r0, r0, r3, ror sl

08002d04 <forget>:
 8002d04:	e92d 0208 	stmdb	sp!, {r3, r9}
 8002d08:	f85f 90c4 	ldr.w	r9, [pc, #-196]	; 8002c48 <fs_addr>
 8002d0c:	6ae3      	ldr	r3, [r4, #44]	; 0x2c
 8002d0e:	b500      	push	{lr}
 8002d10:	f7fe ff42 	bl	8001b98 <next_token>
 8002d14:	f85d eb04 	ldr.w	lr, [sp], #4
 8002d18:	b138      	cbz	r0, 8002d2a <forget+0x26>
 8002d1a:	4608      	mov	r0, r1
 8002d1c:	b500      	push	{lr}
 8002d1e:	f7ff ff71 	bl	8002c04 <search_file>
 8002d22:	f85d eb04 	ldr.w	lr, [sp], #4
 8002d26:	b158      	cbz	r0, 8002d40 <forget+0x3c>
 8002d28:	4681      	mov	r9, r0
 8002d2a:	4599      	cmp	r9, r3
 8002d2c:	d508      	bpl.n	8002d40 <forget+0x3c>
 8002d2e:	4648      	mov	r0, r9
 8002d30:	b500      	push	{lr}
 8002d32:	f7fd fbd1 	bl	80004d8 <erase_page>
 8002d36:	f85d eb04 	ldr.w	lr, [sp], #4
 8002d3a:	f509 6980 	add.w	r9, r9, #1024	; 0x400
 8002d3e:	e7f4      	b.n	8002d2a <forget+0x26>
 8002d40:	b500      	push	{lr}
 8002d42:	f7ff ff4d 	bl	8002be0 <search_free>
 8002d46:	f85d eb04 	ldr.w	lr, [sp], #4
 8002d4a:	e8bd 0208 	ldmia.w	sp!, {r3, r9}
 8002d4e:	4770      	bx	lr

08002d50 <load>:
 8002d50:	6c20      	ldr	r0, [r4, #64]	; 0x40
 8002d52:	f010 0f01 	tst.w	r0, #1
 8002d56:	d003      	beq.n	8002d60 <load+0x10>
 8002d58:	f04f 0007 	mov.w	r0, #7
 8002d5c:	f7fe bd2a 	b.w	80017b4 <tb_error>
 8002d60:	b500      	push	{lr}
 8002d62:	f7fe ff19 	bl	8001b98 <next_token>
 8002d66:	f85d eb04 	ldr.w	lr, [sp], #4
 8002d6a:	281c      	cmp	r0, #28
 8002d6c:	f47e ad1e 	bne.w	80017ac <syntax_error>
 8002d70:	4608      	mov	r0, r1
 8002d72:	b500      	push	{lr}
 8002d74:	f7ff ff46 	bl	8002c04 <search_file>
 8002d78:	f85d eb04 	ldr.w	lr, [sp], #4
 8002d7c:	b918      	cbnz	r0, 8002d86 <load+0x36>
 8002d7e:	f04f 0009 	mov.w	r0, #9
 8002d82:	f7fe bd17 	b.w	80017b4 <tb_error>
 8002d86:	4601      	mov	r1, r0
 8002d88:	8808      	ldrh	r0, [r1, #0]
 8002d8a:	4401      	add	r1, r0
 8002d8c:	f831 3b02 	ldrh.w	r3, [r1], #2
 8002d90:	6b22      	ldr	r2, [r4, #48]	; 0x30
 8002d92:	eb02 0003 	add.w	r0, r2, r3
 8002d96:	6360      	str	r0, [r4, #52]	; 0x34
 8002d98:	f103 0301 	add.w	r3, r3, #1
 8002d9c:	ea4f 0353 	mov.w	r3, r3, lsr #1
 8002da0:	f831 0b02 	ldrh.w	r0, [r1], #2
 8002da4:	f822 0b02 	strh.w	r0, [r2], #2
 8002da8:	3b01      	subs	r3, #1
 8002daa:	d1f9      	bne.n	8002da0 <load+0x50>
 8002dac:	f8df 0498 	ldr.w	r0, [pc, #1176]	; 8003248 <put+0x2c>
 8002db0:	b500      	push	{lr}
 8002db2:	f7fd fc0d 	bl	80005d0 <uart_puts>
 8002db6:	f85d eb04 	ldr.w	lr, [sp], #4
 8002dba:	6b60      	ldr	r0, [r4, #52]	; 0x34
 8002dbc:	6b23      	ldr	r3, [r4, #48]	; 0x30
 8002dbe:	eba0 0003 	sub.w	r0, r0, r3
 8002dc2:	f04f 010a 	mov.w	r1, #10
 8002dc6:	b500      	push	{lr}
 8002dc8:	f7fd fc6c 	bl	80006a4 <print_int>
 8002dcc:	f85d eb04 	ldr.w	lr, [sp], #4
 8002dd0:	f8df 0478 	ldr.w	r0, [pc, #1144]	; 800324c <put+0x30>
 8002dd4:	b500      	push	{lr}
 8002dd6:	f7fd fbfb 	bl	80005d0 <uart_puts>
 8002dda:	f85d eb04 	ldr.w	lr, [sp], #4
 8002dde:	4770      	bx	lr

08002de0 <save>:
 8002de0:	6c20      	ldr	r0, [r4, #64]	; 0x40
 8002de2:	f010 0f01 	tst.w	r0, #1
 8002de6:	d003      	beq.n	8002df0 <save+0x10>
 8002de8:	f04f 0007 	mov.w	r0, #7
 8002dec:	f7fe bce2 	b.w	80017b4 <tb_error>
 8002df0:	6b60      	ldr	r0, [r4, #52]	; 0x34
 8002df2:	6b21      	ldr	r1, [r4, #48]	; 0x30
 8002df4:	4288      	cmp	r0, r1
 8002df6:	d103      	bne.n	8002e00 <save+0x20>
 8002df8:	f04f 000d 	mov.w	r0, #13
 8002dfc:	f7fe bcda 	b.w	80017b4 <tb_error>
 8002e00:	b500      	push	{lr}
 8002e02:	f7fe fec9 	bl	8001b98 <next_token>
 8002e06:	f85d eb04 	ldr.w	lr, [sp], #4
 8002e0a:	281c      	cmp	r0, #28
 8002e0c:	f47e acce 	bne.w	80017ac <syntax_error>
 8002e10:	460b      	mov	r3, r1
 8002e12:	4618      	mov	r0, r3
 8002e14:	b500      	push	{lr}
 8002e16:	f7ff fef5 	bl	8002c04 <search_file>
 8002e1a:	f85d eb04 	ldr.w	lr, [sp], #4
 8002e1e:	b118      	cbz	r0, 8002e28 <new_file>
 8002e20:	f04f 0008 	mov.w	r0, #8
 8002e24:	f7fe bcc6 	b.w	80017b4 <tb_error>

08002e28 <new_file>:
 8002e28:	f04f 0001 	mov.w	r0, #1
 8002e2c:	b500      	push	{lr}
 8002e2e:	f7fd fadd 	bl	80003ec <unlock>
 8002e32:	f85d eb04 	ldr.w	lr, [sp], #4
 8002e36:	6ae2      	ldr	r2, [r4, #44]	; 0x2c
 8002e38:	4618      	mov	r0, r3
 8002e3a:	b500      	push	{lr}
 8002e3c:	f7fd ff9c 	bl	8000d78 <strlen>
 8002e40:	f85d eb04 	ldr.w	lr, [sp], #4
 8002e44:	f100 0004 	add.w	r0, r0, #4
 8002e48:	f020 0001 	bic.w	r0, r0, #1
 8002e4c:	f1a0 0802 	sub.w	r8, r0, #2
 8002e50:	4611      	mov	r1, r2
 8002e52:	b500      	push	{lr}
 8002e54:	f7fd faf8 	bl	8000448 <hword_write>
 8002e58:	f85d eb04 	ldr.w	lr, [sp], #4
 8002e5c:	f102 0202 	add.w	r2, r2, #2
 8002e60:	f833 0b02 	ldrh.w	r0, [r3], #2
 8002e64:	4611      	mov	r1, r2
 8002e66:	b500      	push	{lr}
 8002e68:	f7fd faee 	bl	8000448 <hword_write>
 8002e6c:	f85d eb04 	ldr.w	lr, [sp], #4
 8002e70:	f102 0202 	add.w	r2, r2, #2
 8002e74:	f1b8 0802 	subs.w	r8, r8, #2
 8002e78:	d1f2      	bne.n	8002e60 <new_file+0x38>
 8002e7a:	6b60      	ldr	r0, [r4, #52]	; 0x34
 8002e7c:	6b23      	ldr	r3, [r4, #48]	; 0x30
 8002e7e:	eba0 0003 	sub.w	r0, r0, r3
 8002e82:	4680      	mov	r8, r0
 8002e84:	4611      	mov	r1, r2
 8002e86:	b500      	push	{lr}
 8002e88:	f7fd fade 	bl	8000448 <hword_write>
 8002e8c:	f85d eb04 	ldr.w	lr, [sp], #4
 8002e90:	f102 0202 	add.w	r2, r2, #2
 8002e94:	f108 0801 	add.w	r8, r8, #1
 8002e98:	ea4f 0858 	mov.w	r8, r8, lsr #1
 8002e9c:	f833 0b02 	ldrh.w	r0, [r3], #2
 8002ea0:	4611      	mov	r1, r2
 8002ea2:	b500      	push	{lr}
 8002ea4:	f7fd fad0 	bl	8000448 <hword_write>
 8002ea8:	f85d eb04 	ldr.w	lr, [sp], #4
 8002eac:	f102 0202 	add.w	r2, r2, #2
 8002eb0:	f1b8 0801 	subs.w	r8, r8, #1
 8002eb4:	d1f2      	bne.n	8002e9c <new_file+0x74>
 8002eb6:	f04f 0000 	mov.w	r0, #0
 8002eba:	b500      	push	{lr}
 8002ebc:	f7fd fa96 	bl	80003ec <unlock>
 8002ec0:	f85d eb04 	ldr.w	lr, [sp], #4
 8002ec4:	6b60      	ldr	r0, [r4, #52]	; 0x34
 8002ec6:	6b21      	ldr	r1, [r4, #48]	; 0x30
 8002ec8:	eba0 0001 	sub.w	r0, r0, r1
 8002ecc:	4680      	mov	r8, r0
 8002ece:	6ae1      	ldr	r1, [r4, #44]	; 0x2c
 8002ed0:	4408      	add	r0, r1
 8002ed2:	b500      	push	{lr}
 8002ed4:	f7fd fb3a 	bl	800054c <page_align>
 8002ed8:	f85d eb04 	ldr.w	lr, [sp], #4
 8002edc:	62e0      	str	r0, [r4, #44]	; 0x2c
 8002ede:	48da      	ldr	r0, [pc, #872]	; (8003248 <put+0x2c>)
 8002ee0:	b500      	push	{lr}
 8002ee2:	f7fd fb75 	bl	80005d0 <uart_puts>
 8002ee6:	f85d eb04 	ldr.w	lr, [sp], #4
 8002eea:	4640      	mov	r0, r8
 8002eec:	f04f 010a 	mov.w	r1, #10
 8002ef0:	b500      	push	{lr}
 8002ef2:	f7fd fbd7 	bl	80006a4 <print_int>
 8002ef6:	f85d eb04 	ldr.w	lr, [sp], #4
 8002efa:	48d4      	ldr	r0, [pc, #848]	; (800324c <put+0x30>)
 8002efc:	b500      	push	{lr}
 8002efe:	f7fd fb67 	bl	80005d0 <uart_puts>
 8002f02:	f85d eb04 	ldr.w	lr, [sp], #4
 8002f06:	4770      	bx	lr

08002f08 <fsize>:
 8002f08:	656c6966 	strbvs	r6, [ip, #-2406]!	; 0xfffff69a
 8002f0c:	7a697320 	bvc	9a5fb94 <FLASH_HIDDEN_END+0x1a3fb94>
 8002f10:	00203a65 	eoreq	r3, r0, r5, ror #20

08002f14 <data_bytes>:
 8002f14:	65747962 	ldrbvs	r7, [r4, #-2402]!	; 0xfffff69e
 8002f18:	bf000073 	svclt	0x00000073

08002f1c <free>:
 8002f1c:	f8d4 00d0 	ldr.w	r0, [r4, #208]	; 0xd0
 8002f20:	f8d4 10c8 	ldr.w	r1, [r4, #200]	; 0xc8
 8002f24:	eba1 0100 	sub.w	r1, r1, r0
 8002f28:	f04f 001b 	mov.w	r0, #27
 8002f2c:	4770      	bx	lr
 8002f2e:	bf00      	nop

08002f30 <sleep>:
 8002f30:	f64e 5010 	movw	r0, #60688	; 0xed10
 8002f34:	f2ce 0000 	movt	r0, #57344	; 0xe000
 8002f38:	f04f 0104 	mov.w	r1, #4
 8002f3c:	6001      	str	r1, [r0, #0]
 8002f3e:	f44f 40e0 	mov.w	r0, #28672	; 0x7000
 8002f42:	f2c4 0000 	movt	r0, #16384	; 0x4000
 8002f46:	f04f 0106 	mov.w	r1, #6
 8002f4a:	6001      	str	r1, [r0, #0]
 8002f4c:	bf20      	wfe
 8002f4e:	4770      	bx	lr

08002f50 <spc>:
 8002f50:	b500      	push	{lr}
 8002f52:	f7fe fe6b 	bl	8001c2c <func_args>
 8002f56:	f85d eb04 	ldr.w	lr, [sp], #4
 8002f5a:	2801      	cmp	r0, #1
 8002f5c:	f47e ac26 	bne.w	80017ac <syntax_error>
 8002f60:	6c20      	ldr	r0, [r4, #64]	; 0x40
 8002f62:	f010 0f80 	tst.w	r0, #128	; 0x80
 8002f66:	f85c 0b04 	ldr.w	r0, [ip], #4
 8002f6a:	d004      	beq.n	8002f76 <spc+0x26>
 8002f6c:	b500      	push	{lr}
 8002f6e:	f7fd fc67 	bl	8000840 <spaces>
 8002f72:	f85d eb04 	ldr.w	lr, [sp], #4
 8002f76:	4770      	bx	lr

08002f78 <spi_read>:
 8002f78:	4770      	bx	lr
 8002f7a:	bf00      	nop

08002f7c <spi_enable>:
 8002f7c:	4770      	bx	lr
 8002f7e:	bf00      	nop

08002f80 <spi_select>:
 8002f80:	4770      	bx	lr
 8002f82:	bf00      	nop

08002f84 <spi_write>:
 8002f84:	4770      	bx	lr
 8002f86:	bf00      	nop

08002f88 <stop>:
 8002f88:	6c20      	ldr	r0, [r4, #64]	; 0x40
 8002f8a:	f010 0f01 	tst.w	r0, #1
 8002f8e:	d103      	bne.n	8002f98 <stop+0x10>
 8002f90:	f04f 0007 	mov.w	r0, #7
 8002f94:	f7fe bc0e 	b.w	80017b4 <tb_error>
 8002f98:	6860      	ldr	r0, [r4, #4]
 8002f9a:	e92c 0c01 	stmdb	ip!, {r0, sl, fp}
 8002f9e:	6c20      	ldr	r0, [r4, #64]	; 0x40
 8002fa0:	f04f 0109 	mov.w	r1, #9
 8002fa4:	ea80 0001 	eor.w	r0, r0, r1
 8002fa8:	6420      	str	r0, [r4, #64]	; 0x40
 8002faa:	ea8a 0a0a 	eor.w	sl, sl, sl
 8002fae:	ea8b 0b0b 	eor.w	fp, fp, fp
 8002fb2:	f8c4 a004 	str.w	sl, [r4, #4]
 8002fb6:	f8c4 a000 	str.w	sl, [r4]
 8002fba:	f8c4 a008 	str.w	sl, [r4, #8]
 8002fbe:	f44f 40a0 	mov.w	r0, #20480	; 0x5000
 8002fc2:	f2c2 0000 	movt	r0, #8192	; 0x2000
 8002fc6:	4685      	mov	sp, r0
 8002fc8:	f7fe bda8 	b.w	8001b1c <cmd_line>

08002fcc <tab>:
 8002fcc:	b500      	push	{lr}
 8002fce:	f7fe fe2d 	bl	8001c2c <func_args>
 8002fd2:	f85d eb04 	ldr.w	lr, [sp], #4
 8002fd6:	2801      	cmp	r0, #1
 8002fd8:	f47e abe8 	bne.w	80017ac <syntax_error>
 8002fdc:	6c20      	ldr	r0, [r4, #64]	; 0x40
 8002fde:	f010 0f80 	tst.w	r0, #128	; 0x80
 8002fe2:	f85c 0b04 	ldr.w	r0, [ip], #4
 8002fe6:	d004      	beq.n	8002ff2 <tab+0x26>
 8002fe8:	b500      	push	{lr}
 8002fea:	f7fd fc5b 	bl	80008a4 <cursor_x>
 8002fee:	f85d eb04 	ldr.w	lr, [sp], #4
 8002ff2:	4770      	bx	lr

08002ff4 <get_ticks>:
 8002ff4:	69e1      	ldr	r1, [r4, #28]
 8002ff6:	f04f 001b 	mov.w	r0, #27
 8002ffa:	4770      	bx	lr

08002ffc <set_timer>:
 8002ffc:	b500      	push	{lr}
 8002ffe:	f7fe fef1 	bl	8001de4 <expression>
 8003002:	f85d eb04 	ldr.w	lr, [sp], #4
 8003006:	281b      	cmp	r0, #27
 8003008:	f47e abd0 	bne.w	80017ac <syntax_error>
 800300c:	6221      	str	r1, [r4, #32]
 800300e:	4770      	bx	lr

08003010 <timeout>:
 8003010:	ea81 0101 	eor.w	r1, r1, r1
 8003014:	6a20      	ldr	r0, [r4, #32]
 8003016:	b908      	cbnz	r0, 800301c <timeout+0xc>
 8003018:	ea6f 0101 	mvn.w	r1, r1
 800301c:	f04f 001b 	mov.w	r0, #27
 8003020:	4770      	bx	lr
 8003022:	bf00      	nop

08003024 <tone>:
 8003024:	b500      	push	{lr}
 8003026:	f7fe fe17 	bl	8001c58 <arg_list>
 800302a:	f85d eb04 	ldr.w	lr, [sp], #4
 800302e:	2802      	cmp	r0, #2
 8003030:	f47e abbc 	bne.w	80017ac <syntax_error>
 8003034:	e8bc 0300 	ldmia.w	ip!, {r8, r9}
 8003038:	4770      	bx	lr
 800303a:	bf00      	nop

0800303c <trace>:
 800303c:	b500      	push	{lr}
 800303e:	f7fe fdab 	bl	8001b98 <next_token>
 8003042:	f85d eb04 	ldr.w	lr, [sp], #4
 8003046:	281b      	cmp	r0, #27
 8003048:	f47e abb0 	bne.w	80017ac <syntax_error>
 800304c:	f001 0103 	and.w	r1, r1, #3
 8003050:	f8c4 10cc 	str.w	r1, [r4, #204]	; 0xcc
 8003054:	4770      	bx	lr
 8003056:	bf00      	nop

08003058 <ubound>:
 8003058:	f8d4 10c8 	ldr.w	r1, [r4, #200]	; 0xc8
 800305c:	f8d4 00d0 	ldr.w	r0, [r4, #208]	; 0xd0
 8003060:	eba1 0100 	sub.w	r1, r1, r0
 8003064:	ea4f 0191 	mov.w	r1, r1, lsr #2
 8003068:	f04f 001b 	mov.w	r0, #27
 800306c:	4770      	bx	lr
 800306e:	bf00      	nop

08003070 <uflash>:
 8003070:	4977      	ldr	r1, [pc, #476]	; (8003250 <put+0x34>)
 8003072:	f04f 001b 	mov.w	r0, #27
 8003076:	4770      	bx	lr

08003078 <until>:
 8003078:	b500      	push	{lr}
 800307a:	f7fe fee1 	bl	8001e40 <relation>
 800307e:	f85d eb04 	ldr.w	lr, [sp], #4
 8003082:	b111      	cbz	r1, 800308a <until+0x12>
 8003084:	f10c 0c08 	add.w	ip, ip, #8
 8003088:	4770      	bx	lr
 800308a:	e89c 0c00 	ldmia.w	ip, {sl, fp}
 800308e:	f89b 0002 	ldrb.w	r0, [fp, #2]
 8003092:	6060      	str	r0, [r4, #4]
 8003094:	4770      	bx	lr
 8003096:	bf00      	nop

08003098 <wait>:
 8003098:	b500      	push	{lr}
 800309a:	f7fe fddd 	bl	8001c58 <arg_list>
 800309e:	f85d eb04 	ldr.w	lr, [sp], #4
 80030a2:	2802      	cmp	r0, #2
 80030a4:	d003      	beq.n	80030ae <wait+0x16>
 80030a6:	2803      	cmp	r0, #3
 80030a8:	d007      	beq.n	80030ba <wait+0x22>
 80030aa:	f7fe bb7f 	b.w	80017ac <syntax_error>
 80030ae:	e8bc 0003 	ldmia.w	ip!, {r0, r1}
 80030b2:	880a      	ldrh	r2, [r1, #0]
 80030b4:	4002      	ands	r2, r0
 80030b6:	d0fc      	beq.n	80030b2 <wait+0x1a>
 80030b8:	e006      	b.n	80030c8 <wait+0x30>
 80030ba:	e8bc 0007 	ldmia.w	ip!, {r0, r1, r2}
 80030be:	8813      	ldrh	r3, [r2, #0]
 80030c0:	ea83 0300 	eor.w	r3, r3, r0
 80030c4:	400b      	ands	r3, r1
 80030c6:	d0fa      	beq.n	80030be <wait+0x26>
 80030c8:	4770      	bx	lr
 80030ca:	bf00      	nop

080030cc <words>:
 80030cc:	6c20      	ldr	r0, [r4, #64]	; 0x40
 80030ce:	f010 0f01 	tst.w	r0, #1
 80030d2:	d003      	beq.n	80030dc <words+0x10>
 80030d4:	f04f 0007 	mov.w	r0, #7
 80030d8:	f7fe bb6c 	b.w	80017b4 <tb_error>
 80030dc:	f8df 8174 	ldr.w	r8, [pc, #372]	; 8003254 <put+0x38>
 80030e0:	ea89 0909 	eor.w	r9, r9, r9
 80030e4:	ea82 0202 	eor.w	r2, r2, r2
 80030e8:	4640      	mov	r0, r8
 80030ea:	b500      	push	{lr}
 80030ec:	f7fd fe44 	bl	8000d78 <strlen>
 80030f0:	f85d eb04 	ldr.w	lr, [sp], #4
 80030f4:	b1f0      	cbz	r0, 8003134 <words+0x68>
 80030f6:	4481      	add	r9, r0
 80030f8:	f1b9 0f50 	cmp.w	r9, #80	; 0x50
 80030fc:	d406      	bmi.n	800310c <words+0x40>
 80030fe:	ea89 0909 	eor.w	r9, r9, r9
 8003102:	b500      	push	{lr}
 8003104:	f7fd fe18 	bl	8000d38 <cr>
 8003108:	f85d eb04 	ldr.w	lr, [sp], #4
 800310c:	4640      	mov	r0, r8
 800310e:	b500      	push	{lr}
 8003110:	f7fd fa5e 	bl	80005d0 <uart_puts>
 8003114:	f85d eb04 	ldr.w	lr, [sp], #4
 8003118:	f04f 0020 	mov.w	r0, #32
 800311c:	f109 0901 	add.w	r9, r9, #1
 8003120:	b500      	push	{lr}
 8003122:	f7fd f935 	bl	8000390 <uart_putc>
 8003126:	f85d eb04 	ldr.w	lr, [sp], #4
 800312a:	f102 0201 	add.w	r2, r2, #1
 800312e:	f858 8c0c 	ldr.w	r8, [r8, #-12]
 8003132:	e7d9      	b.n	80030e8 <words+0x1c>
 8003134:	ea19 0909 	ands.w	r9, r9, r9
 8003138:	d004      	beq.n	8003144 <words+0x78>
 800313a:	b500      	push	{lr}
 800313c:	f7fd fdfc 	bl	8000d38 <cr>
 8003140:	f85d eb04 	ldr.w	lr, [sp], #4
 8003144:	4610      	mov	r0, r2
 8003146:	f04f 010a 	mov.w	r1, #10
 800314a:	b500      	push	{lr}
 800314c:	f7fd faaa 	bl	80006a4 <print_int>
 8003150:	f85d eb04 	ldr.w	lr, [sp], #4
 8003154:	4840      	ldr	r0, [pc, #256]	; (8003258 <put+0x3c>)
 8003156:	b500      	push	{lr}
 8003158:	f7fd fa3a 	bl	80005d0 <uart_puts>
 800315c:	f85d eb04 	ldr.w	lr, [sp], #4
 8003160:	4770      	bx	lr

08003162 <dict_words>:
 8003162:	64726f77 	ldrbtvs	r6, [r2], #-3959	; 0xfffff089
 8003166:	6e692073 	mcrvs	0, 3, r2, cr9, cr3, {3}
 800316a:	63696420 	cmnvs	r9, #32, 8	; 0x20000000
 800316e:	6e6f6974 			; <UNDEFINED> instruction: 0x6e6f6974
 8003172:	00797261 	rsbseq	r7, r9, r1, ror #4
 8003176:	bf00      	nop

08003178 <bit_xor>:
 8003178:	b500      	push	{lr}
 800317a:	f7fe fd57 	bl	8001c2c <func_args>
 800317e:	f85d eb04 	ldr.w	lr, [sp], #4
 8003182:	2802      	cmp	r0, #2
 8003184:	f47e ab12 	bne.w	80017ac <syntax_error>
 8003188:	f85c 0b04 	ldr.w	r0, [ip], #4
 800318c:	f85c 1b04 	ldr.w	r1, [ip], #4
 8003190:	ea81 0100 	eor.w	r1, r1, r0
 8003194:	f04f 001b 	mov.w	r0, #27
 8003198:	4770      	bx	lr
 800319a:	bf00      	nop

0800319c <xpos>:
 800319c:	b500      	push	{lr}
 800319e:	f7fd fd51 	bl	8000c44 <get_curpos>
 80031a2:	f85d eb04 	ldr.w	lr, [sp], #4
 80031a6:	f04f 001b 	mov.w	r0, #27
 80031aa:	4770      	bx	lr

080031ac <ypos>:
 80031ac:	b500      	push	{lr}
 80031ae:	f7fd fd49 	bl	8000c44 <get_curpos>
 80031b2:	f85d eb04 	ldr.w	lr, [sp], #4
 80031b6:	4601      	mov	r1, r0
 80031b8:	f04f 001b 	mov.w	r0, #27
 80031bc:	4770      	bx	lr
 80031be:	bf00      	nop

080031c0 <cmd_push>:
 80031c0:	b500      	push	{lr}
 80031c2:	f7fe fd49 	bl	8001c58 <arg_list>
 80031c6:	f85d eb04 	ldr.w	lr, [sp], #4
 80031ca:	4770      	bx	lr

080031cc <fn_pop>:
 80031cc:	f85c 1b04 	ldr.w	r1, [ip], #4
 80031d0:	f04f 001b 	mov.w	r0, #27
 80031d4:	4770      	bx	lr
 80031d6:	bf00      	nop

080031d8 <drop>:
 80031d8:	b500      	push	{lr}
 80031da:	f7fe fe03 	bl	8001de4 <expression>
 80031de:	f85d eb04 	ldr.w	lr, [sp], #4
 80031e2:	281b      	cmp	r0, #27
 80031e4:	f47e aae2 	bne.w	80017ac <syntax_error>
 80031e8:	f04f 0004 	mov.w	r0, #4
 80031ec:	fb01 f000 	mul.w	r0, r1, r0
 80031f0:	4484      	add	ip, r0
 80031f2:	4770      	bx	lr

080031f4 <get>:
 80031f4:	b500      	push	{lr}
 80031f6:	f7fe fd19 	bl	8001c2c <func_args>
 80031fa:	f85d eb04 	ldr.w	lr, [sp], #4
 80031fe:	2801      	cmp	r0, #1
 8003200:	f47e aad4 	bne.w	80017ac <syntax_error>
 8003204:	f85c 0b04 	ldr.w	r0, [ip], #4
 8003208:	f04f 0104 	mov.w	r1, #4
 800320c:	fb01 f000 	mul.w	r0, r1, r0
 8003210:	f85c 1000 	ldr.w	r1, [ip, r0]
 8003214:	f04f 001b 	mov.w	r0, #27
 8003218:	4770      	bx	lr
 800321a:	bf00      	nop

0800321c <put>:
 800321c:	b500      	push	{lr}
 800321e:	f7fe fd1b 	bl	8001c58 <arg_list>
 8003222:	f85d eb04 	ldr.w	lr, [sp], #4
 8003226:	2802      	cmp	r0, #2
 8003228:	f47e aac0 	bne.w	80017ac <syntax_error>
 800322c:	f85c 0b04 	ldr.w	r0, [ip], #4
 8003230:	f04f 0104 	mov.w	r1, #4
 8003234:	fb01 f000 	mul.w	r0, r1, r0
 8003238:	f85c 1b04 	ldr.w	r1, [ip], #4
 800323c:	f84c 1000 	str.w	r1, [ip, r0]
 8003240:	4770      	bx	lr
 8003242:	2cfc0000 	ldclcs	0, cr0, [ip]
 8003246:	2f080800 	svccs	0x00080800
 800324a:	2f140800 	svccs	0x00140800
 800324e:	40000800 	andmi	r0, r0, r0, lsl #16
 8003252:	3b400800 	blcc	900525a <FLASH_HIDDEN_END+0xfe525a>
 8003256:	31620800 	cmncc	r2, r0, lsl #16
 800325a:	Address 0x000000000800325a is out of bounds.


Disassembly of section .rodata:

0800325c <__data_start>:
	...
 8003274:	0000000a 	andeq	r0, r0, sl
	...
 8003280:	aa5555aa 	bge	9558930 <FLASH_HIDDEN_END+0x1538930>
 8003284:	08004400 	stmdaeq	r0, {sl, lr}
	...
 80032a0:	00000004 	andeq	r0, r0, r4
	...
 8003324:	20004db0 			; <UNDEFINED> instruction: 0x20004db0
	...

Disassembly of section .rodata.tb_error:

08003330 <err_mem_full>:
 8003330:	6f6d654d 	svcvs	0x006d654d
 8003334:	66207972 			; <UNDEFINED> instruction: 0x66207972
 8003338:	0a6c6c75 	beq	9b1e514 <FLASH_HIDDEN_END+0x1afe514>
	...

0800333d <err_syntax>:
 800333d:	746e7973 	strbtvc	r7, [lr], #-2419	; 0xfffff68d
 8003341:	65207861 	strvs	r7, [r0, #-2145]!	; 0xfffff79f
 8003345:	726f7272 	rsbvc	r7, pc, #536870919	; 0x20000007
 8003349:	 	cmnvs	sp, sl

0800334b <err_math_ovf>:
 800334b:	6874616d 	ldmdavs	r4!, {r0, r2, r3, r5, r6, r8, sp, lr}^
 800334f:	65706f20 	ldrbvs	r6, [r0, #-3872]!	; 0xfffff0e0
 8003353:	69746172 	ldmdbvs	r4!, {r1, r4, r5, r6, r8, sp, lr}^
 8003357:	6f206e6f 	svcvs	0x00206e6f
 800335b:	66726576 			; <UNDEFINED> instruction: 0x66726576
 800335f:	0a776f6c 	beq	9ddf117 <FLASH_HIDDEN_END+0x1dbf117>
	...

08003364 <err_div0>:
 8003364:	69766964 	ldmdbvs	r6!, {r2, r5, r6, r8, fp, sp, lr}^
 8003368:	6e6f6973 			; <UNDEFINED> instruction: 0x6e6f6973
 800336c:	20796220 	rsbscs	r6, r9, r0, lsr #4
 8003370:	 	stmdbvs	r0, {r4, r5, r9, fp}

08003373 <err_no_line>:
 8003373:	61766e69 	cmnvs	r6, r9, ror #28
 8003377:	2064696c 	rsbcs	r6, r4, ip, ror #18
 800337b:	656e696c 	strbvs	r6, [lr, #-2412]!	; 0xfffff694
 800337f:	6d756e20 	ldclvs	14, cr6, [r5, #-128]!	; 0xffffff80
 8003383:	2e726562 	cdpcs	5, 7, cr6, cr2, cr2, {3}
 8003387:	 	ldrbvc	r0, [r2, #-10]!

08003389 <err_run_only>:
 8003389:	206e7572 	rsbcs	r7, lr, r2, ror r5
 800338d:	656d6974 	strbvs	r6, [sp, #-2420]!	; 0xfffff68c
 8003391:	6c6e6f20 	stclvs	15, cr6, [lr], #-128	; 0xffffff80
 8003395:	73752079 	cmnvc	r5, #121	; 0x79
 8003399:	2e656761 	cdpcs	7, 6, cr6, cr5, cr1, {3}
 800339d:	 	svcvs	0x0063000a

0800339f <err_cmd_only>:
 800339f:	6d6d6f63 	stclvs	15, cr6, [sp, #-396]!	; 0xfffffe74
 80033a3:	20646e61 	rsbcs	r6, r4, r1, ror #28
 80033a7:	656e696c 	strbvs	r6, [lr, #-2412]!	; 0xfffff694
 80033ab:	6c6e6f20 	stclvs	15, cr6, [lr], #-128	; 0xffffff80
 80033af:	73752079 	cmnvc	r5, #121	; 0x79
 80033b3:	2e656761 	cdpcs	7, 6, cr6, cr5, cr1, {3}
 80033b7:	 	strbvc	r0, [r4, #-10]!

080033b9 <err_duplicate>:
 80033b9:	6c707564 	cfldr64vs	mvdx7, [r0], #-400	; 0xfffffe70
 80033bd:	74616369 	strbtvc	r6, [r1], #-873	; 0xfffffc97
 80033c1:	616e2065 	cmnvs	lr, r5, rrx
 80033c5:	0a2e656d 	beq	8b9c981 <FLASH_HIDDEN_END+0xb7c981>
	...

080033ca <err_not_file>:
 80033ca:	656c6946 	strbvs	r6, [ip, #-2374]!	; 0xfffff6ba
 80033ce:	746f6e20 	strbtvc	r6, [pc], #-3616	; 80033d6 <err_not_file+0xc>
 80033d2:	756f6620 	strbvc	r6, [pc, #-1568]!	; 8002dba <load+0x6a>
 80033d6:	0a2e646e 	beq	8b9c596 <FLASH_HIDDEN_END+0xb7c596>
	...

080033db <err_bad_value>:
 80033db:	20646162 	rsbcs	r6, r4, r2, ror #2
 80033df:	756c6176 	strbvc	r6, [ip, #-374]!	; 0xfffffe8a
 80033e3:	000a2e65 	andeq	r2, sl, r5, ror #28

080033e7 <err_no_access>:
 80033e7:	656c6946 	strbvs	r6, [ip, #-2374]!	; 0xfffff6ba
 80033eb:	206e6920 	rsbcs	r6, lr, r0, lsr #18
 80033ef:	65747865 	ldrbvs	r7, [r4, #-2149]!	; 0xfffff79b
 80033f3:	6465646e 	strbtvs	r6, [r5], #-1134	; 0xfffffb92
 80033f7:	6d656d20 	stclvs	13, cr6, [r5, #-128]!	; 0xffffff80
 80033fb:	2c79726f 	lfmcs	f7, 2, [r9], #-444	; 0xfffffe44
 80033ff:	6e616320 	cdpvs	3, 6, cr6, cr1, cr0, {1}
 8003403:	62207427 	eorvs	r7, r0, #654311424	; 0x27000000
 8003407:	75722065 	ldrbvc	r2, [r2, #-101]!	; 0xffffff9b
 800340b:	7266206e 	rsbvc	r2, r6, #110	; 0x6e
 800340f:	74206d6f 	strtvc	r6, [r0], #-3439	; 0xfffff291
 8003413:	65726568 	ldrbvs	r6, [r2, #-1384]!	; 0xfffffa98
 8003417:	 	vmlami.f32	s0, s0, s29

0800341a <err_no_data>:
 800341a:	64206f4e 	strtvs	r6, [r0], #-3918	; 0xfffff0b2
 800341e:	20617461 	rsbcs	r7, r1, r1, ror #8
 8003422:	6e756f66 	cdpvs	15, 7, cr6, cr5, cr6, {3}
 8003426:	000a2e64 	andeq	r2, sl, r4, ror #28

0800342a <err_no_prog>:
 800342a:	70206f4e 	eorvc	r6, r0, lr, asr #30
 800342e:	72676f72 	rsbvc	r6, r7, #456	; 0x1c8
 8003432:	69206d61 	stmdbvs	r0!, {r0, r5, r6, r8, sl, fp, sp, lr}
 8003436:	4152206e 	cmpmi	r2, lr, rrx
 800343a:	000a214d 	andeq	r2, sl, sp, asr #2

0800343e <err_no_fspace>:
 800343e:	656c6946 	strbvs	r6, [ip, #-2374]!	; 0xfffff6ba
 8003442:	73797320 	cmnvc	r9, #32, 6	; 0x80000000
 8003446:	206d6574 	rsbcs	r6, sp, r4, ror r5
 800344a:	6c6c7566 	cfstr64vs	mvdx7, [ip], #-408	; 0xfffffe68
 800344e:	 	andmi	r0, r0, #188416	; 0x2e000

08003451 <err_buf_full>:
 8003451:	66667542 	strbtvs	r7, [r6], -r2, asr #10
 8003455:	66207265 	strtvs	r7, [r0], -r5, ror #4
 8003459:	0a6c6c75 	beq	9b1e635 <FLASH_HIDDEN_END+0x1afe635>
	...

0800345e <err_cant_prog>:
 800345e:	276e6143 	strbcs	r6, [lr, -r3, asr #2]!
 8003462:	6f6d2074 	svcvs	0x006d2074
 8003466:	79666964 	stmdbvc	r6!, {r2, r5, r6, r8, fp, sp, lr}^
 800346a:	6f727020 	svcvs	0x00727020
 800346e:	6d617267 	sfmvs	f7, 2, [r1, #-412]!	; 0xfffffe64
 8003472:	206e6920 	rsbcs	r6, lr, r0, lsr #18
 8003476:	504f5453 	subpl	r5, pc, r3, asr r4	; <UNPREDICTABLE>
 800347a:	646f6d20 	strbtvs	r6, [pc], #-3360	; 8003482 <err_cant_prog+0x24>
 800347e:	55202e65 	strpl	r2, [r0, #-3685]!	; 0xfffff19b
 8003482:	45206573 	strmi	r6, [r0, #-1395]!	; 0xfffffa8d
 8003486:	6320444e 			; <UNDEFINED> instruction: 0x6320444e
 800348a:	616d6d6f 	cmnvs	sp, pc, ror #26
 800348e:	6220646e 	eorvs	r6, r0, #1845493760	; 0x6e000000
 8003492:	726f6665 	rsbvc	r6, pc, #105906176	; 0x6500000
 8003496:	000a2e65 	andeq	r2, sl, r5, ror #28

0800349a <rt_msg>:
 800349a:	6e75720a 	cdpvs	2, 7, cr7, cr5, cr10, {0}
 800349e:	6d697420 	cfstrdvs	mvd7, [r9, #-128]!	; 0xffffff80
 80034a2:	72652065 	rsbvc	r2, r5, #101	; 0x65
 80034a6:	2c726f72 	ldclcs	15, cr6, [r2], #-456	; 0xfffffe38
 80034aa:	 	movwvs	r0, #40992	; 0xa020

080034ac <comp_msg>:
 80034ac:	6d6f630a 	stclvs	3, cr6, [pc, #-40]!	; 800348c <err_cant_prog+0x2e>
 80034b0:	656c6970 	strbvs	r6, [ip, #-2416]!	; 0xfffff690
 80034b4:	72726520 	rsbsvc	r6, r2, #32, 10	; 0x8000000
 80034b8:	202c726f 	eorcs	r7, ip, pc, ror #4
	...

080034bd <tk_id>:
 80034bd:	7473616c 	ldrbtvc	r6, [r3], #-364	; 0xfffffe94
 80034c1:	6b6f7420 	blvs	9be0549 <FLASH_HIDDEN_END+0x1bc0549>
 80034c5:	69206e65 	stmdbvs	r0!, {r0, r2, r5, r6, r9, sl, fp, sp, lr}
 80034c9:	00203a64 	eoreq	r3, r0, r4, ror #20

Disassembly of section .rodata.dictionary:

080034d0 <kword_end>:
 80034d0:	080034dc 	stmdaeq	r0, {r2, r3, r4, r6, r7, sl, ip, sp}
	...
 80034e0:	080034dc 	stmdaeq	r0, {r2, r3, r4, r6, r7, sl, ip, sp}
 80034e4:	00000054 	andeq	r0, r0, r4, asr r0
 80034e8:	00000015 	andeq	r0, r0, r5, lsl r0
 80034ec:	534f5059 	movtpl	r5, #61529	; 0xf059
 80034f0:	00000000 	andeq	r0, r0, r0
 80034f4:	080034ec 	stmdaeq	r0, {r2, r3, r5, r6, r7, sl, ip, sp}
 80034f8:	00000053 	andeq	r0, r0, r3, asr r0
 80034fc:	00000015 	andeq	r0, r0, r5, lsl r0
 8003500:	534f5058 	movtpl	r5, #61528	; 0xf058
 8003504:	00000000 	andeq	r0, r0, r0
 8003508:	08003500 	stmdaeq	r0, {r8, sl, ip, sp}
 800350c:	00000052 	andeq	r0, r0, r2, asr r0
 8003510:	00000015 	andeq	r0, r0, r5, lsl r0
 8003514:	00524f58 	subseq	r4, r2, r8, asr pc
 8003518:	08003514 	stmdaeq	r0, {r2, r4, r8, sl, ip, sp}
 800351c:	00000051 	andeq	r0, r0, r1, asr r0
 8003520:	00000017 	andeq	r0, r0, r7, lsl r0
 8003524:	44524f57 	ldrbmi	r4, [r2], #-3927	; 0xfffff0a9
 8003528:	00000053 	andeq	r0, r0, r3, asr r0
 800352c:	08003524 	stmdaeq	r0, {r2, r5, r8, sl, ip, sp}
 8003530:	00000050 	andeq	r0, r0, r0, asr r0
 8003534:	00000017 	andeq	r0, r0, r7, lsl r0
 8003538:	54494157 	strbpl	r4, [r9], #-343	; 0xfffffea9
 800353c:	00000000 	andeq	r0, r0, r0
 8003540:	08003538 	stmdaeq	r0, {r3, r4, r5, r8, sl, ip, sp}
 8003544:	0000004f 	andeq	r0, r0, pc, asr #32
 8003548:	00000017 	andeq	r0, r0, r7, lsl r0
 800354c:	49544e55 	ldmdbmi	r4, {r0, r2, r4, r6, r9, sl, fp, lr}^
 8003550:	0000004c 	andeq	r0, r0, ip, asr #32
 8003554:	0800354c 	stmdaeq	r0, {r2, r3, r6, r8, sl, ip, sp}
 8003558:	0000004e 	andeq	r0, r0, lr, asr #32
 800355c:	00000015 	andeq	r0, r0, r5, lsl r0
 8003560:	414c4655 	cmpmi	ip, r5, asr r6
 8003564:	00004853 	andeq	r4, r0, r3, asr r8
 8003568:	08003560 	stmdaeq	r0, {r5, r6, r8, sl, ip, sp}
 800356c:	0000004d 	andeq	r0, r0, sp, asr #32
 8003570:	00000015 	andeq	r0, r0, r5, lsl r0
 8003574:	554f4255 	strbpl	r4, [pc, #-597]	; 8003327 <__data_start+0xcb>
 8003578:	0000444e 	andeq	r4, r0, lr, asr #8
 800357c:	08003574 	stmdaeq	r0, {r2, r4, r5, r6, r8, sl, ip, sp}
 8003580:	0000004c 	andeq	r0, r0, ip, asr #32
 8003584:	00000017 	andeq	r0, r0, r7, lsl r0
 8003588:	43415254 	movtmi	r5, #4692	; 0x1254
 800358c:	00000045 	andeq	r0, r0, r5, asr #32
 8003590:	08003588 	stmdaeq	r0, {r3, r7, r8, sl, ip, sp}
 8003594:	0000004b 	andeq	r0, r0, fp, asr #32
 8003598:	00000017 	andeq	r0, r0, r7, lsl r0
 800359c:	00004f54 	andeq	r4, r0, r4, asr pc
 80035a0:	0800359c 	stmdaeq	r0, {r2, r3, r4, r7, r8, sl, ip, sp}
 80035a4:	00000049 	andeq	r0, r0, r9, asr #32
 80035a8:	00000017 	andeq	r0, r0, r7, lsl r0
 80035ac:	454d4954 	strbmi	r4, [sp, #-2388]	; 0xfffff6ac
 80035b0:	00000052 	andeq	r0, r0, r2, asr r0
 80035b4:	080035ac 	stmdaeq	r0, {r2, r3, r5, r7, r8, sl, ip, sp}
 80035b8:	0000004a 	andeq	r0, r0, sl, asr #32
 80035bc:	00000015 	andeq	r0, r0, r5, lsl r0
 80035c0:	454d4954 	strbmi	r4, [sp, #-2388]	; 0xfffff6ac
 80035c4:	0054554f 	subseq	r5, r4, pc, asr #10
 80035c8:	080035c0 	stmdaeq	r0, {r6, r7, r8, sl, ip, sp}
 80035cc:	00000048 	andeq	r0, r0, r8, asr #32
 80035d0:	00000015 	andeq	r0, r0, r5, lsl r0
 80035d4:	4b434954 	blmi	90d5b2c <FLASH_HIDDEN_END+0x10b5b2c>
 80035d8:	00000053 	andeq	r0, r0, r3, asr r0
 80035dc:	080035d4 	stmdaeq	r0, {r2, r4, r6, r7, r8, sl, ip, sp}
 80035e0:	00000047 	andeq	r0, r0, r7, asr #32
 80035e4:	00000017 	andeq	r0, r0, r7, lsl r0
 80035e8:	4e454854 	mcrmi	8, 2, r4, cr5, cr4, {2}
 80035ec:	00000000 	andeq	r0, r0, r0
 80035f0:	080035e8 	stmdaeq	r0, {r3, r5, r6, r7, r8, sl, ip, sp}
 80035f4:	00000046 	andeq	r0, r0, r6, asr #32
 80035f8:	00000017 	andeq	r0, r0, r7, lsl r0
 80035fc:	00424154 	subeq	r4, r2, r4, asr r1
 8003600:	080035fc 	stmdaeq	r0, {r2, r3, r4, r5, r6, r7, r8, sl, ip, sp}
 8003604:	00000045 	andeq	r0, r0, r5, asr #32
 8003608:	00000017 	andeq	r0, r0, r7, lsl r0
 800360c:	524f5453 	subpl	r5, pc, #1392508928	; 0x53000000
 8003610:	00000045 	andeq	r0, r0, r5, asr #32
 8003614:	0800360c 	stmdaeq	r0, {r2, r3, r9, sl, ip, sp}
 8003618:	00000044 	andeq	r0, r0, r4, asr #32
 800361c:	00000017 	andeq	r0, r0, r7, lsl r0
 8003620:	504f5453 	subpl	r5, pc, r3, asr r4	; <UNPREDICTABLE>
 8003624:	00000000 	andeq	r0, r0, r0
 8003628:	08003620 	stmdaeq	r0, {r5, r9, sl, ip, sp}
 800362c:	00000043 	andeq	r0, r0, r3, asr #32
 8003630:	00000017 	andeq	r0, r0, r7, lsl r0
 8003634:	50455453 	subpl	r5, r5, r3, asr r4
 8003638:	00000000 	andeq	r0, r0, r0
 800363c:	08003634 	stmdaeq	r0, {r2, r4, r5, r9, sl, ip, sp}
 8003640:	00000042 	andeq	r0, r0, r2, asr #32
 8003644:	00000017 	andeq	r0, r0, r7, lsl r0
 8003648:	00435053 	subeq	r5, r3, r3, asr r0
 800364c:	08003648 	stmdaeq	r0, {r3, r6, r9, sl, ip, sp}
 8003650:	00000041 	andeq	r0, r0, r1, asr #32
 8003654:	00000017 	andeq	r0, r0, r7, lsl r0
 8003658:	45454c53 	strbmi	r4, [r5, #-3155]	; 0xfffff3ad
 800365c:	00000050 	andeq	r0, r0, r0, asr r0
 8003660:	08003658 	stmdaeq	r0, {r3, r4, r6, r9, sl, ip, sp}
 8003664:	00000040 	andeq	r0, r0, r0, asr #32
 8003668:	00000017 	andeq	r0, r0, r7, lsl r0
 800366c:	45564153 	ldrbmi	r4, [r6, #-339]	; 0xfffffead
 8003670:	00000000 	andeq	r0, r0, r0
 8003674:	0800366c 	stmdaeq	r0, {r2, r3, r5, r6, r9, sl, ip, sp}
 8003678:	0000003f 	andeq	r0, r0, pc, lsr r0
 800367c:	00000017 	andeq	r0, r0, r7, lsl r0
 8003680:	004e5552 	subeq	r5, lr, r2, asr r5
 8003684:	08003680 	stmdaeq	r0, {r7, r9, sl, ip, sp}
 8003688:	0000003e 	andeq	r0, r0, lr, lsr r0
 800368c:	00000015 	andeq	r0, r0, r5, lsl r0
 8003690:	49485352 	stmdbmi	r8, {r1, r4, r6, r8, r9, ip, lr}^
 8003694:	00005446 	andeq	r5, r0, r6, asr #8
 8003698:	08003690 	stmdaeq	r0, {r4, r7, r9, sl, ip, sp}
 800369c:	0000003d 	andeq	r0, r0, sp, lsr r0
 80036a0:	00000015 	andeq	r0, r0, r5, lsl r0
 80036a4:	00444e52 	subeq	r4, r4, r2, asr lr
 80036a8:	080036a4 	stmdaeq	r0, {r2, r5, r7, r9, sl, ip, sp}
 80036ac:	0000003c 	andeq	r0, r0, ip, lsr r0
 80036b0:	00000017 	andeq	r0, r0, r7, lsl r0
 80036b4:	55544552 	ldrbpl	r4, [r4, #-1362]	; 0xfffffaae
 80036b8:	00004e52 	andeq	r4, r0, r2, asr lr
 80036bc:	080036b4 	stmdaeq	r0, {r2, r4, r5, r7, r9, sl, ip, sp}
 80036c0:	0000003b 	andeq	r0, r0, fp, lsr r0
 80036c4:	00000017 	andeq	r0, r0, r7, lsl r0
 80036c8:	54534552 	ldrbpl	r4, [r3], #-1362	; 0xfffffaae
 80036cc:	0045524f 	subeq	r5, r5, pc, asr #4
 80036d0:	080036c8 	stmdaeq	r0, {r3, r6, r7, r9, sl, ip, sp}
 80036d4:	0000003a 	andeq	r0, r0, sl, lsr r0
 80036d8:	00000017 	andeq	r0, r0, r7, lsl r0
 80036dc:	004d4552 	subeq	r4, sp, r2, asr r5
 80036e0:	080036dc 	stmdaeq	r0, {r2, r3, r4, r6, r7, r9, sl, ip, sp}
 80036e4:	00000039 	andeq	r0, r0, r9, lsr r0
 80036e8:	00000015 	andeq	r0, r0, r5, lsl r0
 80036ec:	44414552 	strbmi	r4, [r1], #-1362	; 0xfffffaae
 80036f0:	00000000 	andeq	r0, r0, r0
 80036f4:	080036ec 	stmdaeq	r0, {r2, r3, r5, r6, r7, r9, sl, ip, sp}
 80036f8:	00000038 	andeq	r0, r0, r8, lsr r0
 80036fc:	00000015 	andeq	r0, r0, r5, lsl r0
 8003700:	59454b51 	stmdbpl	r5, {r0, r4, r6, r8, r9, fp, lr}^
 8003704:	00000000 	andeq	r0, r0, r0
 8003708:	08003700 	stmdaeq	r0, {r8, r9, sl, ip, sp}
 800370c:	00000037 	andeq	r0, r0, r7, lsr r0
 8003710:	00000017 	andeq	r0, r0, r7, lsl r0
 8003714:	00545550 	subseq	r5, r4, r0, asr r5
 8003718:	08003714 	stmdaeq	r0, {r2, r4, r8, r9, sl, ip, sp}
 800371c:	00000036 	andeq	r0, r0, r6, lsr r0
 8003720:	00000017 	andeq	r0, r0, r7, lsl r0
 8003724:	48535550 	ldmdami	r3, {r4, r6, r8, sl, ip, lr}^
 8003728:	00000000 	andeq	r0, r0, r0
 800372c:	08003724 	stmdaeq	r0, {r2, r5, r8, r9, sl, ip, sp}
 8003730:	00000035 	andeq	r0, r0, r5, lsr r0
 8003734:	00000017 	andeq	r0, r0, r7, lsl r0
 8003738:	4e495250 	mcrmi	2, 2, r5, cr9, cr0, {2}
 800373c:	00000054 	andeq	r0, r0, r4, asr r0
 8003740:	08003738 	stmdaeq	r0, {r3, r4, r5, r8, r9, sl, ip, sp}
 8003744:	00000034 	andeq	r0, r0, r4, lsr r0
 8003748:	00000015 	andeq	r0, r0, r5, lsl r0
 800374c:	00504f50 	subseq	r4, r0, r0, asr pc
 8003750:	0800374c 	stmdaeq	r0, {r2, r3, r6, r8, r9, sl, ip, sp}
 8003754:	00000033 	andeq	r0, r0, r3, lsr r0
 8003758:	00000017 	andeq	r0, r0, r7, lsl r0
 800375c:	454b4f50 	strbmi	r4, [fp, #-3920]	; 0xfffff0b0
 8003760:	00000057 	andeq	r0, r0, r7, asr r0
 8003764:	0800375c 	stmdaeq	r0, {r2, r3, r4, r6, r8, r9, sl, ip, sp}
 8003768:	00000032 	andeq	r0, r0, r2, lsr r0
 800376c:	00000017 	andeq	r0, r0, r7, lsl r0
 8003770:	454b4f50 	strbmi	r4, [fp, #-3920]	; 0xfffff0b0
 8003774:	00000048 	andeq	r0, r0, r8, asr #32
 8003778:	08003770 	stmdaeq	r0, {r4, r5, r6, r8, r9, sl, ip, sp}
 800377c:	00000031 	andeq	r0, r0, r1, lsr r0
 8003780:	00000017 	andeq	r0, r0, r7, lsl r0
 8003784:	454b4f50 	strbmi	r4, [fp, #-3920]	; 0xfffff0b0
 8003788:	00000042 	andeq	r0, r0, r2, asr #32
 800378c:	08003784 	stmdaeq	r0, {r2, r7, r8, r9, sl, ip, sp}
 8003790:	0000002d 	andeq	r0, r0, sp, lsr #32
 8003794:	00000017 	andeq	r0, r0, r7, lsl r0
 8003798:	444f4d50 	strbmi	r4, [pc], #-3408	; 80037a0 <kword_end+0x2d0>
 800379c:	00000045 	andeq	r0, r0, r5, asr #32
 80037a0:	08003798 	stmdaeq	r0, {r3, r4, r7, r8, r9, sl, ip, sp}
 80037a4:	00000030 	andeq	r0, r0, r0, lsr r0
 80037a8:	00000015 	andeq	r0, r0, r5, lsl r0
 80037ac:	4b454550 	blmi	9154cf4 <FLASH_HIDDEN_END+0x1134cf4>
 80037b0:	00000057 	andeq	r0, r0, r7, asr r0
 80037b4:	080037ac 	stmdaeq	r0, {r2, r3, r5, r7, r8, r9, sl, ip, sp}
 80037b8:	0000002f 	andeq	r0, r0, pc, lsr #32
 80037bc:	00000015 	andeq	r0, r0, r5, lsl r0
 80037c0:	4b454550 	blmi	9154d08 <FLASH_HIDDEN_END+0x1134d08>
 80037c4:	00000048 	andeq	r0, r0, r8, asr #32
 80037c8:	080037c0 	stmdaeq	r0, {r6, r7, r8, r9, sl, ip, sp}
 80037cc:	0000002e 	andeq	r0, r0, lr, lsr #32
 80037d0:	00000015 	andeq	r0, r0, r5, lsl r0
 80037d4:	4b454550 	blmi	9154d1c <FLASH_HIDDEN_END+0x1134d1c>
 80037d8:	00000042 	andeq	r0, r0, r2, asr #32
 80037dc:	080037d4 	stmdaeq	r0, {r2, r4, r6, r7, r8, r9, sl, ip, sp}
 80037e0:	0000002c 	andeq	r0, r0, ip, lsr #32
 80037e4:	00000017 	andeq	r0, r0, r7, lsl r0
 80037e8:	53554150 	cmppl	r5, #80, 2
 80037ec:	00000045 	andeq	r0, r0, r5, asr #32
 80037f0:	080037e8 	stmdaeq	r0, {r3, r5, r6, r7, r8, r9, sl, ip, sp}
 80037f4:	0000002b 	andeq	r0, r0, fp, lsr #32
 80037f8:	00000015 	andeq	r0, r0, r5, lsl r0
 80037fc:	00444150 	subeq	r4, r4, r0, asr r1
 8003800:	080037fc 	stmdaeq	r0, {r2, r3, r4, r5, r6, r7, r8, r9, sl, ip, sp}
 8003804:	0000002a 	andeq	r0, r0, sl, lsr #32
 8003808:	00000017 	andeq	r0, r0, r7, lsl r0
 800380c:	0054554f 	subseq	r5, r4, pc, asr #10
 8003810:	0800380c 	stmdaeq	r0, {r2, r3, fp, ip, sp}
 8003814:	00000029 	andeq	r0, r0, r9, lsr #32
 8003818:	00000015 	andeq	r0, r0, r5, lsl r0
 800381c:	0000524f 	andeq	r5, r0, pc, asr #4
 8003820:	0800381c 	stmdaeq	r0, {r2, r3, r4, fp, ip, sp}
 8003824:	00000028 	andeq	r0, r0, r8, lsr #32
 8003828:	00000015 	andeq	r0, r0, r5, lsl r0
 800382c:	00544f4e 	subseq	r4, r4, lr, asr #30
 8003830:	0800382c 	stmdaeq	r0, {r2, r3, r5, fp, ip, sp}
 8003834:	00000027 	andeq	r0, r0, r7, lsr #32
 8003838:	00000017 	andeq	r0, r0, r7, lsl r0
 800383c:	5458454e 	ldrbpl	r4, [r8], #-1358	; 0xfffffab2
 8003840:	00000000 	andeq	r0, r0, r0
 8003844:	0800383c 	stmdaeq	r0, {r2, r3, r4, r5, fp, ip, sp}
 8003848:	00000026 	andeq	r0, r0, r6, lsr #32
 800384c:	00000017 	andeq	r0, r0, r7, lsl r0
 8003850:	0057454e 	subseq	r4, r7, lr, asr #10
 8003854:	08003850 	stmdaeq	r0, {r4, r6, fp, ip, sp}
 8003858:	00000025 	andeq	r0, r0, r5, lsr #32
 800385c:	00000015 	andeq	r0, r0, r5, lsl r0
 8003860:	4948534c 	stmdbmi	r8, {r2, r3, r6, r8, r9, ip, lr}^
 8003864:	00005446 	andeq	r5, r0, r6, asr #8
 8003868:	08003860 	stmdaeq	r0, {r5, r6, fp, ip, sp}
 800386c:	00000024 	andeq	r0, r0, r4, lsr #32
 8003870:	00000017 	andeq	r0, r0, r7, lsl r0
 8003874:	41434f4c 	cmpmi	r3, ip, asr #30
 8003878:	00004554 	andeq	r4, r0, r4, asr r5
 800387c:	08003874 	stmdaeq	r0, {r2, r4, r5, r6, fp, ip, sp}
 8003880:	00000023 	andeq	r0, r0, r3, lsr #32
 8003884:	00000017 	andeq	r0, r0, r7, lsl r0
 8003888:	44414f4c 	strbmi	r4, [r1], #-3916	; 0xfffff0b4
 800388c:	00000000 	andeq	r0, r0, r0
 8003890:	08003888 	stmdaeq	r0, {r3, r7, fp, ip, sp}
 8003894:	00000022 	andeq	r0, r0, r2, lsr #32
 8003898:	00000017 	andeq	r0, r0, r7, lsl r0
 800389c:	5453494c 	ldrbpl	r4, [r3], #-2380	; 0xfffff6b4
 80038a0:	00000000 	andeq	r0, r0, r0
 80038a4:	0800389c 	stmdaeq	r0, {r2, r3, r4, r7, fp, ip, sp}
 80038a8:	00000021 	andeq	r0, r0, r1, lsr #32
 80038ac:	00000017 	andeq	r0, r0, r7, lsl r0
 80038b0:	0054454c 	subseq	r4, r4, ip, asr #10
 80038b4:	080038b0 	stmdaeq	r0, {r4, r5, r7, fp, ip, sp}
 80038b8:	00000020 	andeq	r0, r0, r0, lsr #32
 80038bc:	00000016 	andeq	r0, r0, r6, lsl r0
 80038c0:	0059454b 	subseq	r4, r9, fp, asr #10
 80038c4:	080038c0 	stmdaeq	r0, {r6, r7, fp, ip, sp}
 80038c8:	0000001f 	andeq	r0, r0, pc, lsl r0
 80038cc:	00000015 	andeq	r0, r0, r5, lsl r0
 80038d0:	45564e49 	ldrbmi	r4, [r6, #-3657]	; 0xfffff1b7
 80038d4:	00005452 	andeq	r5, r0, r2, asr r4
 80038d8:	080038d0 	stmdaeq	r0, {r4, r6, r7, fp, ip, sp}
 80038dc:	0000001e 	andeq	r0, r0, lr, lsl r0
 80038e0:	00000017 	andeq	r0, r0, r7, lsl r0
 80038e4:	55504e49 	ldrbpl	r4, [r0, #-3657]	; 0xfffff1b7
 80038e8:	00000054 	andeq	r0, r0, r4, asr r0
 80038ec:	080038e4 	stmdaeq	r0, {r2, r5, r6, r7, fp, ip, sp}
 80038f0:	0000001d 	andeq	r0, r0, sp, lsl r0
 80038f4:	00000015 	andeq	r0, r0, r5, lsl r0
 80038f8:	00004e49 	andeq	r4, r0, r9, asr #28
 80038fc:	080038f8 	stmdaeq	r0, {r3, r4, r5, r6, r7, fp, ip, sp}
 8003900:	0000001c 	andeq	r0, r0, ip, lsl r0
 8003904:	00000017 	andeq	r0, r0, r7, lsl r0
 8003908:	00004649 	andeq	r4, r0, r9, asr #12
 800390c:	08003908 	stmdaeq	r0, {r3, r8, fp, ip, sp}
 8003910:	0000001b 	andeq	r0, r0, fp, lsl r0
 8003914:	00000017 	andeq	r0, r0, r7, lsl r0
 8003918:	00584548 	subseq	r4, r8, r8, asr #10
 800391c:	08003918 	stmdaeq	r0, {r3, r4, r8, fp, ip, sp}
 8003920:	40011000 	andmi	r1, r1, r0
 8003924:	00000018 	andeq	r0, r0, r8, lsl r0
 8003928:	4f495047 	svcmi	0x00495047
 800392c:	00000043 	andeq	r0, r0, r3, asr #32
 8003930:	08003928 	stmdaeq	r0, {r3, r5, r8, fp, ip, sp}
 8003934:	40010c00 	andmi	r0, r1, r0, lsl #24
 8003938:	00000018 	andeq	r0, r0, r8, lsl r0
 800393c:	4f495047 	svcmi	0x00495047
 8003940:	00000042 	andeq	r0, r0, r2, asr #32
 8003944:	0800393c 	stmdaeq	r0, {r2, r3, r4, r5, r8, fp, ip, sp}
 8003948:	40010800 	andmi	r0, r1, r0, lsl #16
 800394c:	00000018 	andeq	r0, r0, r8, lsl r0
 8003950:	4f495047 	svcmi	0x00495047
 8003954:	00000041 	andeq	r0, r0, r1, asr #32
 8003958:	08003950 	stmdaeq	r0, {r4, r6, r8, fp, ip, sp}
 800395c:	0000001a 	andeq	r0, r0, sl, lsl r0
 8003960:	00000017 	andeq	r0, r0, r7, lsl r0
 8003964:	4f544f47 	svcmi	0x00544f47
 8003968:	00000000 	andeq	r0, r0, r0
 800396c:	08003964 	stmdaeq	r0, {r2, r5, r6, r8, fp, ip, sp}
 8003970:	00000019 	andeq	r0, r0, r9, lsl r0
 8003974:	00000017 	andeq	r0, r0, r7, lsl r0
 8003978:	55534f47 	ldrbpl	r4, [r3, #-3911]	; 0xfffff0b9
 800397c:	00000042 	andeq	r0, r0, r2, asr #32
 8003980:	08003978 	stmdaeq	r0, {r3, r4, r5, r6, r8, fp, ip, sp}
 8003984:	00000018 	andeq	r0, r0, r8, lsl r0
 8003988:	00000015 	andeq	r0, r0, r5, lsl r0
 800398c:	00544547 	subseq	r4, r4, r7, asr #10
 8003990:	0800398c 	stmdaeq	r0, {r2, r3, r7, r8, fp, ip, sp}
 8003994:	00000017 	andeq	r0, r0, r7, lsl r0
 8003998:	00000015 	andeq	r0, r0, r5, lsl r0
 800399c:	45455246 	strbmi	r5, [r5, #-582]	; 0xfffffdba
 80039a0:	00000000 	andeq	r0, r0, r0
 80039a4:	0800399c 	stmdaeq	r0, {r2, r3, r4, r7, r8, fp, ip, sp}
 80039a8:	00000016 	andeq	r0, r0, r6, lsl r0
 80039ac:	00000017 	andeq	r0, r0, r7, lsl r0
 80039b0:	47524f46 	ldrbmi	r4, [r2, -r6, asr #30]
 80039b4:	00005445 	andeq	r5, r0, r5, asr #8
 80039b8:	080039b0 	stmdaeq	r0, {r4, r5, r7, r8, fp, ip, sp}
 80039bc:	00000015 	andeq	r0, r0, r5, lsl r0
 80039c0:	00000017 	andeq	r0, r0, r7, lsl r0
 80039c4:	00524f46 	subseq	r4, r2, r6, asr #30
 80039c8:	080039c4 	stmdaeq	r0, {r2, r6, r7, r8, fp, ip, sp}
 80039cc:	00000014 	andeq	r0, r0, r4, lsl r0
 80039d0:	00000017 	andeq	r0, r0, r7, lsl r0
 80039d4:	53415245 	movtpl	r5, #4677	; 0x1245
 80039d8:	00000045 	andeq	r0, r0, r5, asr #32
 80039dc:	080039d4 	stmdaeq	r0, {r2, r4, r6, r7, r8, fp, ip, sp}
 80039e0:	00000013 	andeq	r0, r0, r3, lsl r0
 80039e4:	00000017 	andeq	r0, r0, r7, lsl r0
 80039e8:	00444e45 	subeq	r4, r4, r5, asr #28
 80039ec:	080039e8 	stmdaeq	r0, {r3, r5, r6, r7, r8, fp, ip, sp}
 80039f0:	00000012 	andeq	r0, r0, r2, lsl r0
 80039f4:	00000017 	andeq	r0, r0, r7, lsl r0
 80039f8:	504d5544 	subpl	r5, sp, r4, asr #10
 80039fc:	00000000 	andeq	r0, r0, r0
 8003a00:	080039f8 	stmdaeq	r0, {r3, r4, r5, r6, r7, r8, fp, ip, sp}
 8003a04:	00000011 	andeq	r0, r0, r1, lsl r0
 8003a08:	00000017 	andeq	r0, r0, r7, lsl r0
 8003a0c:	504f5244 	subpl	r5, pc, r4, asr #4
 8003a10:	00000000 	andeq	r0, r0, r0
 8003a14:	08003a0c 	stmdaeq	r0, {r2, r3, r9, fp, ip, sp}
 8003a18:	00000010 	andeq	r0, r0, r0, lsl r0
 8003a1c:	00000017 	andeq	r0, r0, r7, lsl r0
 8003a20:	00004f44 	andeq	r4, r0, r4, asr #30
 8003a24:	08003a20 	stmdaeq	r0, {r5, r9, fp, ip, sp}
 8003a28:	0000000f 	andeq	r0, r0, pc
 8003a2c:	00000017 	andeq	r0, r0, r7, lsl r0
 8003a30:	00524944 	subseq	r4, r2, r4, asr #18
 8003a34:	08003a30 	stmdaeq	r0, {r4, r5, r9, fp, ip, sp}
 8003a38:	0000000e 	andeq	r0, r0, lr
 8003a3c:	00000017 	andeq	r0, r0, r7, lsl r0
 8003a40:	00434544 	subeq	r4, r3, r4, asr #10
 8003a44:	08003a40 	stmdaeq	r0, {r6, r9, fp, ip, sp}
 8003a48:	0000000d 	andeq	r0, r0, sp
 8003a4c:	00000017 	andeq	r0, r0, r7, lsl r0
 8003a50:	41544144 	cmpmi	r4, r4, asr #2
 8003a54:	00004e4c 	andeq	r4, r0, ip, asr #28
 8003a58:	08003a50 	stmdaeq	r0, {r4, r6, r9, fp, ip, sp}
 8003a5c:	0000000c 	andeq	r0, r0, ip
 8003a60:	00000017 	andeq	r0, r0, r7, lsl r0
 8003a64:	41544144 	cmpmi	r4, r4, asr #2
 8003a68:	00000000 	andeq	r0, r0, r0
 8003a6c:	08003a64 	stmdaeq	r0, {r2, r5, r6, r9, fp, ip, sp}
 8003a70:	0000000b 	andeq	r0, r0, fp
 8003a74:	00000017 	andeq	r0, r0, r7, lsl r0
 8003a78:	534e4f43 	movtpl	r4, #61251	; 0xef43
 8003a7c:	00000054 	andeq	r0, r0, r4, asr r0
 8003a80:	08003a78 	stmdaeq	r0, {r3, r4, r5, r6, r9, fp, ip, sp}
 8003a84:	0000000a 	andeq	r0, r0, sl
 8003a88:	00000017 	andeq	r0, r0, r7, lsl r0
 8003a8c:	00534c43 	subseq	r4, r3, r3, asr #24
 8003a90:	08003a8c 	stmdaeq	r0, {r2, r3, r7, r9, fp, ip, sp}
 8003a94:	00000009 	andeq	r0, r0, r9
 8003a98:	00000016 	andeq	r0, r0, r6, lsl r0
 8003a9c:	52414843 	subpl	r4, r1, #4390912	; 0x430000
 8003aa0:	00000000 	andeq	r0, r0, r0
 8003aa4:	08003a9c 	stmdaeq	r0, {r2, r3, r4, r7, r9, fp, ip, sp}
 8003aa8:	00000008 	andeq	r0, r0, r8
 8003aac:	00000017 	andeq	r0, r0, r7, lsl r0
 8003ab0:	474f5442 	strbmi	r5, [pc, -r2, asr #8]
 8003ab4:	0000004c 	andeq	r0, r0, ip, asr #32
 8003ab8:	08003ab0 	stmdaeq	r0, {r4, r5, r7, r9, fp, ip, sp}
 8003abc:	00000007 	andeq	r0, r0, r7
 8003ac0:	00000015 	andeq	r0, r0, r5, lsl r0
 8003ac4:	53455442 	movtpl	r5, #21570	; 0x5442
 8003ac8:	00000054 	andeq	r0, r0, r4, asr r0
 8003acc:	08003ac4 	stmdaeq	r0, {r2, r6, r7, r9, fp, ip, sp}
 8003ad0:	00000006 	andeq	r0, r0, r6
 8003ad4:	00000017 	andeq	r0, r0, r7, lsl r0
 8003ad8:	54455342 	strbpl	r5, [r5], #-834	; 0xfffffcbe
 8003adc:	00000000 	andeq	r0, r0, r0
 8003ae0:	08003ad8 	stmdaeq	r0, {r3, r4, r6, r7, r9, fp, ip, sp}
 8003ae4:	00000005 	andeq	r0, r0, r5
 8003ae8:	00000017 	andeq	r0, r0, r7, lsl r0
 8003aec:	53455242 	movtpl	r5, #21058	; 0x5242
 8003af0:	00000000 	andeq	r0, r0, r0
 8003af4:	08003aec 	stmdaeq	r0, {r2, r3, r5, r6, r7, r9, fp, ip, sp}
 8003af8:	00000004 	andeq	r0, r0, r4
 8003afc:	00000015 	andeq	r0, r0, r5, lsl r0
 8003b00:	00544942 	subseq	r4, r4, r2, asr #18
 8003b04:	08003b00 	stmdaeq	r0, {r8, r9, fp, ip, sp}
 8003b08:	00000003 	andeq	r0, r0, r3
 8003b0c:	00000017 	andeq	r0, r0, r7, lsl r0
 8003b10:	00555741 	subseq	r5, r5, r1, asr #14
 8003b14:	08003b10 	stmdaeq	r0, {r4, r8, r9, fp, ip, sp}
 8003b18:	00000002 	andeq	r0, r0, r2
 8003b1c:	00000015 	andeq	r0, r0, r5, lsl r0
 8003b20:	00435341 	subeq	r5, r3, r1, asr #6
 8003b24:	08003b20 	stmdaeq	r0, {r5, r8, r9, fp, ip, sp}
 8003b28:	00000001 	andeq	r0, r0, r1
 8003b2c:	00000015 	andeq	r0, r0, r5, lsl r0
 8003b30:	00444e41 	subeq	r4, r4, r1, asr #28

08003b34 <first_link>:
 8003b34:	08003b30 	stmdaeq	r0, {r4, r5, r8, r9, fp, ip, sp}
 8003b38:	00000000 	andeq	r0, r0, r0
 8003b3c:	00000015 	andeq	r0, r0, r5, lsl r0

08003b40 <LINK>:
 8003b40:	00534241 	subseq	r4, r3, r1, asr #4

Disassembly of section .rodata.fn_tabld:

08003b44 <fn_table>:
 8003b44:	08001f3d 	stmdaeq	r0, {r0, r2, r3, r4, r5, r8, r9, sl, fp, ip}
 8003b48:	08001f6d 	stmdaeq	r0, {r0, r2, r3, r5, r6, r8, r9, sl, fp, ip}
 8003b4c:	08001f91 	stmdaeq	r0, {r0, r4, r7, r8, r9, sl, fp, ip}
 8003b50:	08001fe5 	stmdaeq	r0, {r0, r2, r5, r6, r7, r8, r9, sl, fp, ip}
 8003b54:	0800204d 	stmdaeq	r0, {r0, r2, r3, r6, sp}
 8003b58:	08002071 	stmdaeq	r0, {r0, r4, r5, r6, sp}
 8003b5c:	0800209d 	stmdaeq	r0, {r0, r2, r3, r4, r7, sp}
 8003b60:	080020ed 	stmdaeq	r0, {r0, r2, r3, r5, r6, r7, sp}
 8003b64:	080020c5 	stmdaeq	r0, {r0, r2, r6, r7, sp}
 8003b68:	08002139 	stmdaeq	r0, {r0, r3, r4, r5, r8, sp}
 8003b6c:	0800212d 	stmdaeq	r0, {r0, r2, r3, r5, r8, sp}
 8003b70:	08002159 	stmdaeq	r0, {r0, r3, r4, r6, r8, sp}
 8003b74:	080018fd 	stmdaeq	r0, {r0, r2, r3, r4, r5, r6, r7, fp, ip}
 8003b78:	080021dd 	stmdaeq	r0, {r0, r2, r3, r4, r6, r7, r8, sp}
 8003b7c:	080022d5 	stmdaeq	r0, {r0, r2, r4, r6, r7, r9, sp}
 8003b80:	08002c4d 	stmdaeq	r0, {r0, r2, r3, r6, sl, fp, sp}
 8003b84:	080022dd 	stmdaeq	r0, {r0, r2, r3, r4, r6, r7, r9, sp}
 8003b88:	080031d9 	stmdaeq	r0, {r0, r3, r4, r6, r7, r8, ip, sp}
 8003b8c:	080022e5 	stmdaeq	r0, {r0, r2, r5, r6, r7, r9, sp}
 8003b90:	0800238d 	stmdaeq	r0, {r0, r2, r3, r7, r8, r9, sp}
 8003b94:	080023cd 	stmdaeq	r0, {r0, r2, r3, r6, r7, r8, r9, sp}
 8003b98:	080023e1 	stmdaeq	r0, {r0, r5, r6, r7, r8, r9, sp}
 8003b9c:	08002d05 	stmdaeq	r0, {r0, r2, r8, sl, fp, sp}
 8003ba0:	08002f1d 	stmdaeq	r0, {r0, r2, r3, r4, r8, r9, sl, fp, sp}
 8003ba4:	080031f5 	stmdaeq	r0, {r0, r2, r4, r5, r6, r7, r8, ip, sp}
 8003ba8:	0800249d 	stmdaeq	r0, {r0, r2, r3, r4, r7, sl, sp}
 8003bac:	080024dd 	stmdaeq	r0, {r0, r2, r3, r4, r6, r7, sl, sp}
 8003bb0:	080024e9 	stmdaeq	r0, {r0, r3, r5, r6, r7, sl, sp}
 8003bb4:	080024f1 	stmdaeq	r0, {r0, r4, r5, r6, r7, sl, sp}
 8003bb8:	08002825 	stmdaeq	r0, {r0, r2, r5, fp, sp}
 8003bbc:	08002509 	stmdaeq	r0, {r0, r3, r8, sl, sp}
 8003bc0:	08002615 	stmdaeq	r0, {r0, r2, r4, r9, sl, sp}
 8003bc4:	08002635 	stmdaeq	r0, {r0, r2, r4, r5, r9, sl, sp}
 8003bc8:	08002649 	stmdaeq	r0, {r0, r3, r6, r9, sl, sp}
 8003bcc:	080026d5 	stmdaeq	r0, {r0, r2, r4, r6, r7, r9, sl, sp}
 8003bd0:	08002d51 	stmdaeq	r0, {r0, r4, r6, r8, sl, fp, sp}
 8003bd4:	08002785 	stmdaeq	r0, {r0, r2, r7, r8, r9, sl, sp}
 8003bd8:	080027a9 	stmdaeq	r0, {r0, r3, r5, r7, r8, r9, sl, sp}
 8003bdc:	080027c9 	stmdaeq	r0, {r0, r3, r6, r7, r8, r9, sl, sp}
 8003be0:	08002445 	stmdaeq	r0, {r0, r2, r6, sl, sp}
 8003be4:	080027e9 	stmdaeq	r0, {r0, r3, r5, r6, r7, r8, r9, sl, sp}
 8003be8:	08002801 	stmdaeq	r0, {r0, fp, sp}
 8003bec:	08002851 	stmdaeq	r0, {r0, r4, r6, fp, sp}
 8003bf0:	0800287d 	stmdaeq	r0, {r0, r2, r3, r4, r5, r6, fp, sp}
 8003bf4:	08002889 	stmdaeq	r0, {r0, r3, r7, fp, sp}
 8003bf8:	080028a5 	stmdaeq	r0, {r0, r2, r5, r7, fp, sp}
 8003bfc:	08002971 	stmdaeq	r0, {r0, r4, r5, r6, r8, fp, sp}
 8003c00:	0800298d 	stmdaeq	r0, {r0, r2, r3, r7, r8, fp, sp}
 8003c04:	080029a9 	stmdaeq	r0, {r0, r3, r5, r7, r8, fp, sp}
 8003c08:	080029c5 	stmdaeq	r0, {r0, r2, r6, r7, r8, fp, sp}
 8003c0c:	080029dd 	stmdaeq	r0, {r0, r2, r3, r4, r6, r7, r8, fp, sp}
 8003c10:	080029f5 	stmdaeq	r0, {r0, r2, r4, r5, r6, r7, r8, fp, sp}
 8003c14:	080031cd 	stmdaeq	r0, {r0, r2, r3, r6, r7, r8, ip, sp}
 8003c18:	08002a0d 	stmdaeq	r0, {r0, r2, r3, r9, fp, sp}
 8003c1c:	080031c1 	stmdaeq	r0, {r0, r6, r7, r8, ip, sp}
 8003c20:	0800321d 	stmdaeq	r0, {r0, r2, r3, r4, r9, ip, sp}
 8003c24:	08002afd 	stmdaeq	r0, {r0, r2, r3, r4, r5, r6, r7, r9, fp, sp}
 8003c28:	08002231 	stmdaeq	r0, {r0, r4, r5, r9, sp}
 8003c2c:	080018fd 	stmdaeq	r0, {r0, r2, r3, r4, r5, r6, r7, fp, ip}
 8003c30:	08002291 	stmdaeq	r0, {r0, r4, r7, r9, sp}
 8003c34:	080024c5 	stmdaeq	r0, {r0, r2, r6, r7, sl, sp}
 8003c38:	08002b19 	stmdaeq	r0, {r0, r3, r4, r8, r9, fp, sp}
 8003c3c:	08002b5d 	stmdaeq	r0, {r0, r2, r3, r4, r6, r8, r9, fp, sp}
 8003c40:	08002b7d 	stmdaeq	r0, {r0, r2, r3, r4, r5, r6, r8, r9, fp, sp}
 8003c44:	08002de1 	stmdaeq	r0, {r0, r5, r6, r7, r8, sl, fp, sp}
 8003c48:	08002f31 	stmdaeq	r0, {r0, r4, r5, r8, r9, sl, fp, sp}
 8003c4c:	08002f51 	stmdaeq	r0, {r0, r4, r6, r8, r9, sl, fp, sp}
 8003c50:	0800242d 	stmdaeq	r0, {r0, r2, r3, r5, sl, sp}
 8003c54:	08002f89 	stmdaeq	r0, {r0, r3, r7, r8, r9, sl, fp, sp}
 8003c58:	08002395 	stmdaeq	r0, {r0, r2, r4, r7, r8, r9, sp}
 8003c5c:	08002fcd 	stmdaeq	r0, {r0, r2, r3, r6, r7, r8, r9, sl, fp, sp}
 8003c60:	08002505 	stmdaeq	r0, {r0, r2, r8, sl, sp}
 8003c64:	08002ff5 	stmdaeq	r0, {r0, r2, r4, r5, r6, r7, r8, r9, sl, fp, sp}
 8003c68:	08002ffd 	stmdaeq	r0, {r0, r2, r3, r4, r5, r6, r7, r8, r9, sl, fp, sp}
 8003c6c:	08003011 	stmdaeq	r0, {r0, r4, ip, sp}
 8003c70:	08002415 	stmdaeq	r0, {r0, r2, r4, sl, sp}
 8003c74:	0800303d 	stmdaeq	r0, {r0, r2, r3, r4, r5, ip, sp}
 8003c78:	08003059 	stmdaeq	r0, {r0, r3, r4, r6, ip, sp}
 8003c7c:	08003071 	stmdaeq	r0, {r0, r4, r5, r6, ip, sp}
 8003c80:	08003079 	stmdaeq	r0, {r0, r3, r4, r5, r6, ip, sp}
 8003c84:	08003099 	stmdaeq	r0, {r0, r3, r4, r7, ip, sp}
 8003c88:	080030cd 	stmdaeq	r0, {r0, r2, r3, r6, r7, ip, sp}
 8003c8c:	08003179 	stmdaeq	r0, {r0, r3, r4, r5, r6, r8, ip, sp}
 8003c90:	0800319d 	stmdaeq	r0, {r0, r2, r3, r4, r7, r8, ip, sp}
 8003c94:	080031ad 	stmdaeq	r0, {r0, r2, r3, r5, r7, r8, ip, sp}
 8003c98:	00000000 	andeq	r0, r0, r0

Disassembly of section .rodata.user:

08004000 <user>:
 8004000:	ffffffff 			; <UNDEFINED> instruction: 0xffffffff
 8004004:	ffffffff 			; <UNDEFINED> instruction: 0xffffffff
 8004008:	ffffffff 			; <UNDEFINED> instruction: 0xffffffff
 800400c:	ffffffff 			; <UNDEFINED> instruction: 0xffffffff
 8004010:	ffffffff 			; <UNDEFINED> instruction: 0xffffffff
 8004014:	ffffffff 			; <UNDEFINED> instruction: 0xffffffff
 8004018:	ffffffff 			; <UNDEFINED> instruction: 0xffffffff
 800401c:	ffffffff 			; <UNDEFINED> instruction: 0xffffffff
 8004020:	ffffffff 			; <UNDEFINED> instruction: 0xffffffff
 8004024:	ffffffff 			; <UNDEFINED> instruction: 0xffffffff
 8004028:	ffffffff 			; <UNDEFINED> instruction: 0xffffffff
 800402c:	ffffffff 			; <UNDEFINED> instruction: 0xffffffff
 8004030:	ffffffff 			; <UNDEFINED> instruction: 0xffffffff
 8004034:	ffffffff 			; <UNDEFINED> instruction: 0xffffffff
 8004038:	ffffffff 			; <UNDEFINED> instruction: 0xffffffff
 800403c:	ffffffff 			; <UNDEFINED> instruction: 0xffffffff
 8004040:	ffffffff 			; <UNDEFINED> instruction: 0xffffffff
 8004044:	ffffffff 			; <UNDEFINED> instruction: 0xffffffff
 8004048:	ffffffff 			; <UNDEFINED> instruction: 0xffffffff
 800404c:	ffffffff 			; <UNDEFINED> instruction: 0xffffffff
 8004050:	ffffffff 			; <UNDEFINED> instruction: 0xffffffff
 8004054:	ffffffff 			; <UNDEFINED> instruction: 0xffffffff
 8004058:	ffffffff 			; <UNDEFINED> instruction: 0xffffffff
 800405c:	ffffffff 			; <UNDEFINED> instruction: 0xffffffff
 8004060:	ffffffff 			; <UNDEFINED> instruction: 0xffffffff
 8004064:	ffffffff 			; <UNDEFINED> instruction: 0xffffffff
 8004068:	ffffffff 			; <UNDEFINED> instruction: 0xffffffff
 800406c:	ffffffff 			; <UNDEFINED> instruction: 0xffffffff
 8004070:	ffffffff 			; <UNDEFINED> instruction: 0xffffffff
 8004074:	ffffffff 			; <UNDEFINED> instruction: 0xffffffff
 8004078:	ffffffff 			; <UNDEFINED> instruction: 0xffffffff
 800407c:	ffffffff 			; <UNDEFINED> instruction: 0xffffffff
 8004080:	ffffffff 			; <UNDEFINED> instruction: 0xffffffff
 8004084:	ffffffff 			; <UNDEFINED> instruction: 0xffffffff
 8004088:	ffffffff 			; <UNDEFINED> instruction: 0xffffffff
 800408c:	ffffffff 			; <UNDEFINED> instruction: 0xffffffff
 8004090:	ffffffff 			; <UNDEFINED> instruction: 0xffffffff
 8004094:	ffffffff 			; <UNDEFINED> instruction: 0xffffffff
 8004098:	ffffffff 			; <UNDEFINED> instruction: 0xffffffff
 800409c:	ffffffff 			; <UNDEFINED> instruction: 0xffffffff
 80040a0:	ffffffff 			; <UNDEFINED> instruction: 0xffffffff
 80040a4:	ffffffff 			; <UNDEFINED> instruction: 0xffffffff
 80040a8:	ffffffff 			; <UNDEFINED> instruction: 0xffffffff
 80040ac:	ffffffff 			; <UNDEFINED> instruction: 0xffffffff
 80040b0:	ffffffff 			; <UNDEFINED> instruction: 0xffffffff
 80040b4:	ffffffff 			; <UNDEFINED> instruction: 0xffffffff
 80040b8:	ffffffff 			; <UNDEFINED> instruction: 0xffffffff
 80040bc:	ffffffff 			; <UNDEFINED> instruction: 0xffffffff
 80040c0:	ffffffff 			; <UNDEFINED> instruction: 0xffffffff
 80040c4:	ffffffff 			; <UNDEFINED> instruction: 0xffffffff
 80040c8:	ffffffff 			; <UNDEFINED> instruction: 0xffffffff
 80040cc:	ffffffff 			; <UNDEFINED> instruction: 0xffffffff
 80040d0:	ffffffff 			; <UNDEFINED> instruction: 0xffffffff
 80040d4:	ffffffff 			; <UNDEFINED> instruction: 0xffffffff
 80040d8:	ffffffff 			; <UNDEFINED> instruction: 0xffffffff
 80040dc:	ffffffff 			; <UNDEFINED> instruction: 0xffffffff
 80040e0:	ffffffff 			; <UNDEFINED> instruction: 0xffffffff
 80040e4:	ffffffff 			; <UNDEFINED> instruction: 0xffffffff
 80040e8:	ffffffff 			; <UNDEFINED> instruction: 0xffffffff
 80040ec:	ffffffff 			; <UNDEFINED> instruction: 0xffffffff
 80040f0:	ffffffff 			; <UNDEFINED> instruction: 0xffffffff
 80040f4:	ffffffff 			; <UNDEFINED> instruction: 0xffffffff
 80040f8:	ffffffff 			; <UNDEFINED> instruction: 0xffffffff
 80040fc:	ffffffff 			; <UNDEFINED> instruction: 0xffffffff
 8004100:	ffffffff 			; <UNDEFINED> instruction: 0xffffffff
 8004104:	ffffffff 			; <UNDEFINED> instruction: 0xffffffff
 8004108:	ffffffff 			; <UNDEFINED> instruction: 0xffffffff
 800410c:	ffffffff 			; <UNDEFINED> instruction: 0xffffffff
 8004110:	ffffffff 			; <UNDEFINED> instruction: 0xffffffff
 8004114:	ffffffff 			; <UNDEFINED> instruction: 0xffffffff
 8004118:	ffffffff 			; <UNDEFINED> instruction: 0xffffffff
 800411c:	ffffffff 			; <UNDEFINED> instruction: 0xffffffff
 8004120:	ffffffff 			; <UNDEFINED> instruction: 0xffffffff
 8004124:	ffffffff 			; <UNDEFINED> instruction: 0xffffffff
 8004128:	ffffffff 			; <UNDEFINED> instruction: 0xffffffff
 800412c:	ffffffff 			; <UNDEFINED> instruction: 0xffffffff
 8004130:	ffffffff 			; <UNDEFINED> instruction: 0xffffffff
 8004134:	ffffffff 			; <UNDEFINED> instruction: 0xffffffff
 8004138:	ffffffff 			; <UNDEFINED> instruction: 0xffffffff
 800413c:	ffffffff 			; <UNDEFINED> instruction: 0xffffffff
 8004140:	ffffffff 			; <UNDEFINED> instruction: 0xffffffff
 8004144:	ffffffff 			; <UNDEFINED> instruction: 0xffffffff
 8004148:	ffffffff 			; <UNDEFINED> instruction: 0xffffffff
 800414c:	ffffffff 			; <UNDEFINED> instruction: 0xffffffff
 8004150:	ffffffff 			; <UNDEFINED> instruction: 0xffffffff
 8004154:	ffffffff 			; <UNDEFINED> instruction: 0xffffffff
 8004158:	ffffffff 			; <UNDEFINED> instruction: 0xffffffff
 800415c:	ffffffff 			; <UNDEFINED> instruction: 0xffffffff
 8004160:	ffffffff 			; <UNDEFINED> instruction: 0xffffffff
 8004164:	ffffffff 			; <UNDEFINED> instruction: 0xffffffff
 8004168:	ffffffff 			; <UNDEFINED> instruction: 0xffffffff
 800416c:	ffffffff 			; <UNDEFINED> instruction: 0xffffffff
 8004170:	ffffffff 			; <UNDEFINED> instruction: 0xffffffff
 8004174:	ffffffff 			; <UNDEFINED> instruction: 0xffffffff
 8004178:	ffffffff 			; <UNDEFINED> instruction: 0xffffffff
 800417c:	ffffffff 			; <UNDEFINED> instruction: 0xffffffff
 8004180:	ffffffff 			; <UNDEFINED> instruction: 0xffffffff
 8004184:	ffffffff 			; <UNDEFINED> instruction: 0xffffffff
 8004188:	ffffffff 			; <UNDEFINED> instruction: 0xffffffff
 800418c:	ffffffff 			; <UNDEFINED> instruction: 0xffffffff
 8004190:	ffffffff 			; <UNDEFINED> instruction: 0xffffffff
 8004194:	ffffffff 			; <UNDEFINED> instruction: 0xffffffff
 8004198:	ffffffff 			; <UNDEFINED> instruction: 0xffffffff
 800419c:	ffffffff 			; <UNDEFINED> instruction: 0xffffffff
 80041a0:	ffffffff 			; <UNDEFINED> instruction: 0xffffffff
 80041a4:	ffffffff 			; <UNDEFINED> instruction: 0xffffffff
 80041a8:	ffffffff 			; <UNDEFINED> instruction: 0xffffffff
 80041ac:	ffffffff 			; <UNDEFINED> instruction: 0xffffffff
 80041b0:	ffffffff 			; <UNDEFINED> instruction: 0xffffffff
 80041b4:	ffffffff 			; <UNDEFINED> instruction: 0xffffffff
 80041b8:	ffffffff 			; <UNDEFINED> instruction: 0xffffffff
 80041bc:	ffffffff 			; <UNDEFINED> instruction: 0xffffffff
 80041c0:	ffffffff 			; <UNDEFINED> instruction: 0xffffffff
 80041c4:	ffffffff 			; <UNDEFINED> instruction: 0xffffffff
 80041c8:	ffffffff 			; <UNDEFINED> instruction: 0xffffffff
 80041cc:	ffffffff 			; <UNDEFINED> instruction: 0xffffffff
 80041d0:	ffffffff 			; <UNDEFINED> instruction: 0xffffffff
 80041d4:	ffffffff 			; <UNDEFINED> instruction: 0xffffffff
 80041d8:	ffffffff 			; <UNDEFINED> instruction: 0xffffffff
 80041dc:	ffffffff 			; <UNDEFINED> instruction: 0xffffffff
 80041e0:	ffffffff 			; <UNDEFINED> instruction: 0xffffffff
 80041e4:	ffffffff 			; <UNDEFINED> instruction: 0xffffffff
 80041e8:	ffffffff 			; <UNDEFINED> instruction: 0xffffffff
 80041ec:	ffffffff 			; <UNDEFINED> instruction: 0xffffffff
 80041f0:	ffffffff 			; <UNDEFINED> instruction: 0xffffffff
 80041f4:	ffffffff 			; <UNDEFINED> instruction: 0xffffffff
 80041f8:	ffffffff 			; <UNDEFINED> instruction: 0xffffffff
 80041fc:	ffffffff 			; <UNDEFINED> instruction: 0xffffffff
 8004200:	ffffffff 			; <UNDEFINED> instruction: 0xffffffff
 8004204:	ffffffff 			; <UNDEFINED> instruction: 0xffffffff
 8004208:	ffffffff 			; <UNDEFINED> instruction: 0xffffffff
 800420c:	ffffffff 			; <UNDEFINED> instruction: 0xffffffff
 8004210:	ffffffff 			; <UNDEFINED> instruction: 0xffffffff
 8004214:	ffffffff 			; <UNDEFINED> instruction: 0xffffffff
 8004218:	ffffffff 			; <UNDEFINED> instruction: 0xffffffff
 800421c:	ffffffff 			; <UNDEFINED> instruction: 0xffffffff
 8004220:	ffffffff 			; <UNDEFINED> instruction: 0xffffffff
 8004224:	ffffffff 			; <UNDEFINED> instruction: 0xffffffff
 8004228:	ffffffff 			; <UNDEFINED> instruction: 0xffffffff
 800422c:	ffffffff 			; <UNDEFINED> instruction: 0xffffffff
 8004230:	ffffffff 			; <UNDEFINED> instruction: 0xffffffff
 8004234:	ffffffff 			; <UNDEFINED> instruction: 0xffffffff
 8004238:	ffffffff 			; <UNDEFINED> instruction: 0xffffffff
 800423c:	ffffffff 			; <UNDEFINED> instruction: 0xffffffff
 8004240:	ffffffff 			; <UNDEFINED> instruction: 0xffffffff
 8004244:	ffffffff 			; <UNDEFINED> instruction: 0xffffffff
 8004248:	ffffffff 			; <UNDEFINED> instruction: 0xffffffff
 800424c:	ffffffff 			; <UNDEFINED> instruction: 0xffffffff
 8004250:	ffffffff 			; <UNDEFINED> instruction: 0xffffffff
 8004254:	ffffffff 			; <UNDEFINED> instruction: 0xffffffff
 8004258:	ffffffff 			; <UNDEFINED> instruction: 0xffffffff
 800425c:	ffffffff 			; <UNDEFINED> instruction: 0xffffffff
 8004260:	ffffffff 			; <UNDEFINED> instruction: 0xffffffff
 8004264:	ffffffff 			; <UNDEFINED> instruction: 0xffffffff
 8004268:	ffffffff 			; <UNDEFINED> instruction: 0xffffffff
 800426c:	ffffffff 			; <UNDEFINED> instruction: 0xffffffff
 8004270:	ffffffff 			; <UNDEFINED> instruction: 0xffffffff
 8004274:	ffffffff 			; <UNDEFINED> instruction: 0xffffffff
 8004278:	ffffffff 			; <UNDEFINED> instruction: 0xffffffff
 800427c:	ffffffff 			; <UNDEFINED> instruction: 0xffffffff
 8004280:	ffffffff 			; <UNDEFINED> instruction: 0xffffffff
 8004284:	ffffffff 			; <UNDEFINED> instruction: 0xffffffff
 8004288:	ffffffff 			; <UNDEFINED> instruction: 0xffffffff
 800428c:	ffffffff 			; <UNDEFINED> instruction: 0xffffffff
 8004290:	ffffffff 			; <UNDEFINED> instruction: 0xffffffff
 8004294:	ffffffff 			; <UNDEFINED> instruction: 0xffffffff
 8004298:	ffffffff 			; <UNDEFINED> instruction: 0xffffffff
 800429c:	ffffffff 			; <UNDEFINED> instruction: 0xffffffff
 80042a0:	ffffffff 			; <UNDEFINED> instruction: 0xffffffff
 80042a4:	ffffffff 			; <UNDEFINED> instruction: 0xffffffff
 80042a8:	ffffffff 			; <UNDEFINED> instruction: 0xffffffff
 80042ac:	ffffffff 			; <UNDEFINED> instruction: 0xffffffff
 80042b0:	ffffffff 			; <UNDEFINED> instruction: 0xffffffff
 80042b4:	ffffffff 			; <UNDEFINED> instruction: 0xffffffff
 80042b8:	ffffffff 			; <UNDEFINED> instruction: 0xffffffff
 80042bc:	ffffffff 			; <UNDEFINED> instruction: 0xffffffff
 80042c0:	ffffffff 			; <UNDEFINED> instruction: 0xffffffff
 80042c4:	ffffffff 			; <UNDEFINED> instruction: 0xffffffff
 80042c8:	ffffffff 			; <UNDEFINED> instruction: 0xffffffff
 80042cc:	ffffffff 			; <UNDEFINED> instruction: 0xffffffff
 80042d0:	ffffffff 			; <UNDEFINED> instruction: 0xffffffff
 80042d4:	ffffffff 			; <UNDEFINED> instruction: 0xffffffff
 80042d8:	ffffffff 			; <UNDEFINED> instruction: 0xffffffff
 80042dc:	ffffffff 			; <UNDEFINED> instruction: 0xffffffff
 80042e0:	ffffffff 			; <UNDEFINED> instruction: 0xffffffff
 80042e4:	ffffffff 			; <UNDEFINED> instruction: 0xffffffff
 80042e8:	ffffffff 			; <UNDEFINED> instruction: 0xffffffff
 80042ec:	ffffffff 			; <UNDEFINED> instruction: 0xffffffff
 80042f0:	ffffffff 			; <UNDEFINED> instruction: 0xffffffff
 80042f4:	ffffffff 			; <UNDEFINED> instruction: 0xffffffff
 80042f8:	ffffffff 			; <UNDEFINED> instruction: 0xffffffff
 80042fc:	ffffffff 			; <UNDEFINED> instruction: 0xffffffff
 8004300:	ffffffff 			; <UNDEFINED> instruction: 0xffffffff
 8004304:	ffffffff 			; <UNDEFINED> instruction: 0xffffffff
 8004308:	ffffffff 			; <UNDEFINED> instruction: 0xffffffff
 800430c:	ffffffff 			; <UNDEFINED> instruction: 0xffffffff
 8004310:	ffffffff 			; <UNDEFINED> instruction: 0xffffffff
 8004314:	ffffffff 			; <UNDEFINED> instruction: 0xffffffff
 8004318:	ffffffff 			; <UNDEFINED> instruction: 0xffffffff
 800431c:	ffffffff 			; <UNDEFINED> instruction: 0xffffffff
 8004320:	ffffffff 			; <UNDEFINED> instruction: 0xffffffff
 8004324:	ffffffff 			; <UNDEFINED> instruction: 0xffffffff
 8004328:	ffffffff 			; <UNDEFINED> instruction: 0xffffffff
 800432c:	ffffffff 			; <UNDEFINED> instruction: 0xffffffff
 8004330:	ffffffff 			; <UNDEFINED> instruction: 0xffffffff
 8004334:	ffffffff 			; <UNDEFINED> instruction: 0xffffffff
 8004338:	ffffffff 			; <UNDEFINED> instruction: 0xffffffff
 800433c:	ffffffff 			; <UNDEFINED> instruction: 0xffffffff
 8004340:	ffffffff 			; <UNDEFINED> instruction: 0xffffffff
 8004344:	ffffffff 			; <UNDEFINED> instruction: 0xffffffff
 8004348:	ffffffff 			; <UNDEFINED> instruction: 0xffffffff
 800434c:	ffffffff 			; <UNDEFINED> instruction: 0xffffffff
 8004350:	ffffffff 			; <UNDEFINED> instruction: 0xffffffff
 8004354:	ffffffff 			; <UNDEFINED> instruction: 0xffffffff
 8004358:	ffffffff 			; <UNDEFINED> instruction: 0xffffffff
 800435c:	ffffffff 			; <UNDEFINED> instruction: 0xffffffff
 8004360:	ffffffff 			; <UNDEFINED> instruction: 0xffffffff
 8004364:	ffffffff 			; <UNDEFINED> instruction: 0xffffffff
 8004368:	ffffffff 			; <UNDEFINED> instruction: 0xffffffff
 800436c:	ffffffff 			; <UNDEFINED> instruction: 0xffffffff
 8004370:	ffffffff 			; <UNDEFINED> instruction: 0xffffffff
 8004374:	ffffffff 			; <UNDEFINED> instruction: 0xffffffff
 8004378:	ffffffff 			; <UNDEFINED> instruction: 0xffffffff
 800437c:	ffffffff 			; <UNDEFINED> instruction: 0xffffffff
 8004380:	ffffffff 			; <UNDEFINED> instruction: 0xffffffff
 8004384:	ffffffff 			; <UNDEFINED> instruction: 0xffffffff
 8004388:	ffffffff 			; <UNDEFINED> instruction: 0xffffffff
 800438c:	ffffffff 			; <UNDEFINED> instruction: 0xffffffff
 8004390:	ffffffff 			; <UNDEFINED> instruction: 0xffffffff
 8004394:	ffffffff 			; <UNDEFINED> instruction: 0xffffffff
 8004398:	ffffffff 			; <UNDEFINED> instruction: 0xffffffff
 800439c:	ffffffff 			; <UNDEFINED> instruction: 0xffffffff
 80043a0:	ffffffff 			; <UNDEFINED> instruction: 0xffffffff
 80043a4:	ffffffff 			; <UNDEFINED> instruction: 0xffffffff
 80043a8:	ffffffff 			; <UNDEFINED> instruction: 0xffffffff
 80043ac:	ffffffff 			; <UNDEFINED> instruction: 0xffffffff
 80043b0:	ffffffff 			; <UNDEFINED> instruction: 0xffffffff
 80043b4:	ffffffff 			; <UNDEFINED> instruction: 0xffffffff
 80043b8:	ffffffff 			; <UNDEFINED> instruction: 0xffffffff
 80043bc:	ffffffff 			; <UNDEFINED> instruction: 0xffffffff
 80043c0:	ffffffff 			; <UNDEFINED> instruction: 0xffffffff
 80043c4:	ffffffff 			; <UNDEFINED> instruction: 0xffffffff
 80043c8:	ffffffff 			; <UNDEFINED> instruction: 0xffffffff
 80043cc:	ffffffff 			; <UNDEFINED> instruction: 0xffffffff
 80043d0:	ffffffff 			; <UNDEFINED> instruction: 0xffffffff
 80043d4:	ffffffff 			; <UNDEFINED> instruction: 0xffffffff
 80043d8:	ffffffff 			; <UNDEFINED> instruction: 0xffffffff
 80043dc:	ffffffff 			; <UNDEFINED> instruction: 0xffffffff
 80043e0:	ffffffff 			; <UNDEFINED> instruction: 0xffffffff
 80043e4:	ffffffff 			; <UNDEFINED> instruction: 0xffffffff
 80043e8:	ffffffff 			; <UNDEFINED> instruction: 0xffffffff
 80043ec:	ffffffff 			; <UNDEFINED> instruction: 0xffffffff
 80043f0:	ffffffff 			; <UNDEFINED> instruction: 0xffffffff
 80043f4:	ffffffff 			; <UNDEFINED> instruction: 0xffffffff
 80043f8:	ffffffff 			; <UNDEFINED> instruction: 0xffffffff
 80043fc:	ffffffff 			; <UNDEFINED> instruction: 0xffffffff

Disassembly of section .ARM.attributes:

00000000 <.ARM.attributes>:
   0:	00002041 	andeq	r2, r0, r1, asr #32
   4:	61656100 	cmnvs	r5, r0, lsl #2
   8:	01006962 	tsteq	r0, r2, ror #18
   c:	00000016 	andeq	r0, r0, r6, lsl r0
  10:	726f4305 	rsbvc	r4, pc, #335544320	; 0x14000000
  14:	2d786574 	cfldr64cs	mvdx6, [r8, #-464]!	; 0xfffffe30
  18:	0600334d 	streq	r3, [r0], -sp, asr #6
  1c:	094d070a 	stmdbeq	sp, {r1, r3, r8, r9, sl}^
  20:	Address 0x0000000000000020 is out of bounds.


Disassembly of section .debug_line:

00000000 <.debug_line>:
   0:	00000156 	andeq	r0, r0, r6, asr r1
   4:	00220003 	eoreq	r0, r2, r3
   8:	01020000 	mrseq	r0, (UNDEF: 2)
   c:	000d0efb 	strdeq	r0, [sp], -fp
  10:	01010101 	tsteq	r1, r1, lsl #2
  14:	01000000 	mrseq	r0, (UNDEF: 0)
  18:	00010000 	andeq	r0, r1, r0
  1c:	336d7473 	cmncc	sp, #1929379840	; 0x73000000
  20:	62742d32 	rsbsvs	r2, r4, #3200	; 0xc80
  24:	00732e69 	rsbseq	r2, r3, r9, ror #28
  28:	00000000 	andeq	r0, r0, r0
  2c:	34020500 	strcc	r0, [r2], #-1280	; 0xfffffb00
  30:	03080001 	movweq	r0, #32769	; 0x8001
  34:	2f010194 	svccs	0x00010194
  38:	21212f5a 			; <UNDEFINED> instruction: 0x21212f5a
  3c:	21ac0903 			; <UNDEFINED> instruction: 0x21ac0903
  40:	2121212f 			; <UNDEFINED> instruction: 0x2121212f
  44:	4b26222f 	blmi	988908 <FLASH_HIDDEN_SIZE+0x978908>
  48:	212f2121 			; <UNDEFINED> instruction: 0x212f2121
  4c:	21212f21 			; <UNDEFINED> instruction: 0x21212f21
  50:	2f21212f 	svccs	0x0021212f
  54:	5921222f 	stmdbpl	r1!, {r0, r1, r2, r3, r5, r9, sp}
  58:	23212f21 			; <UNDEFINED> instruction: 0x23212f21
  5c:	212f5a21 			; <UNDEFINED> instruction: 0x212f5a21
  60:	2f212122 	svccs	0x00212122
  64:	0c03212f 	stfeqs	f2, [r3], {47}	; 0x2f
  68:	2f214bac 	svccs	0x00214bac
  6c:	2f2f2f2f 	svccs	0x002f2f2f
  70:	592f4b23 	stmdbpl	pc!, {r0, r1, r5, r8, r9, fp, lr}	; <UNPREDICTABLE>
  74:	2f592f21 	svccs	0x00592f21
  78:	592f2159 	stmdbpl	pc!, {r0, r3, r4, r6, r8, sp}	; <UNPREDICTABLE>
  7c:	2f4b2f52 	svccs	0x004b2f52
  80:	214b4b5a 	cmpcs	fp, sl, asr fp
  84:	232f4b34 			; <UNDEFINED> instruction: 0x232f4b34
  88:	232f214b 			; <UNDEFINED> instruction: 0x232f214b
  8c:	09032f21 	stmdbeq	r3, {r0, r5, r8, r9, sl, fp, sp}
  90:	222f2f20 	eorcs	r2, pc, #32, 30	; 0x80
  94:	21232f21 			; <UNDEFINED> instruction: 0x21232f21
  98:	4b21222f 	blmi	84895c <FLASH_HIDDEN_SIZE+0x83895c>
  9c:	232f2f2f 			; <UNDEFINED> instruction: 0x232f2f2f
  a0:	4b242f21 	blmi	90bd2c <FLASH_HIDDEN_SIZE+0x8fbd2c>
  a4:	214b232f 	cmpcs	fp, pc, lsr #6
  a8:	2f2f2f2f 	svccs	0x002f2f2f
  ac:	4b232f22 	blmi	8cbd3c <FLASH_HIDDEN_SIZE+0x8bbd3c>
  b0:	212f212f 			; <UNDEFINED> instruction: 0x212f212f
  b4:	2f214b35 	svccs	0x00214b35
  b8:	212f2f2f 			; <UNDEFINED> instruction: 0x212f2f2f
  bc:	2f212f4c 	svccs	0x00212f4c
  c0:	2f214b22 	svccs	0x00214b22
  c4:	2e0d0321 	cdpcs	3, 0, cr0, cr13, cr1, {1}
  c8:	2f2f2f2f 	svccs	0x002f2f2f
  cc:	2e0c032f 	cdpcs	3, 0, cr0, cr12, cr15, {1}
  d0:	2f2f4c2f 	svccs	0x002f4c2f
  d4:	032f2f21 			; <UNDEFINED> instruction: 0x032f2f21
  d8:	21212011 			; <UNDEFINED> instruction: 0x21212011
  dc:	03212121 			; <UNDEFINED> instruction: 0x03212121
  e0:	5930200e 	ldmdbpl	r0!, {r1, r2, r3, sp}
  e4:	2f2f2f21 	svccs	0x002f2f21
  e8:	2f2f2f2f 	svccs	0x002f2f2f
  ec:	212e1203 			; <UNDEFINED> instruction: 0x212e1203
  f0:	2f4b2121 	svccs	0x004b2121
  f4:	212f2121 			; <UNDEFINED> instruction: 0x212f2121
  f8:	214b214b 	cmpcs	fp, fp, asr #2
  fc:	212f4b23 			; <UNDEFINED> instruction: 0x212f4b23
 100:	200f0321 	andcs	r0, pc, r1, lsr #6
 104:	2f214c21 	svccs	0x00214c21
 108:	0f032121 	svceq	0x00032121
 10c:	2f4b212e 	svccs	0x004b212e
 110:	21592121 	cmpcs	r9, r1, lsr #2
 114:	5921212f 	stmdbpl	r1!, {r0, r1, r2, r3, r5, r8, sp}
 118:	90130321 	andsls	r0, r3, r1, lsr #6
 11c:	2f21212f 	svccs	0x0021212f
 120:	59212159 	stmdbpl	r1!, {r0, r3, r4, r6, r8, sp}
 124:	2f592f2f 	svccs	0x00592f2f
 128:	0e032f59 	mcreq	15, 0, r2, cr3, cr9, {2}
 12c:	2f212f2e 	svccs	0x00212f2e
 130:	2f2f4b59 	svccs	0x002f4b59
 134:	592f2f2f 	stmdbpl	pc!, {r0, r1, r2, r3, r5, r8, r9, sl, fp, sp}	; <UNPREDICTABLE>
 138:	21212f2f 			; <UNDEFINED> instruction: 0x21212f2f
 13c:	2f592f59 	svccs	0x00592f59
 140:	21901003 	orrscs	r1, r0, r3
 144:	2f2f212f 	svccs	0x002f212f
 148:	7ca40321 	stcvc	3, cr0, [r4], #132	; 0x84
 14c:	2e2f0320 	cdpcs	3, 2, cr0, cr15, cr0, {1}
 150:	02cc0334 	sbceq	r0, ip, #52, 6	; 0xd0000000
 154:	0002022e 	andeq	r0, r2, lr, lsr #4
 158:	02340101 	eorseq	r0, r4, #1073741824	; 0x40000000
 15c:	00030000 	andeq	r0, r3, r0
 160:	00000021 	andeq	r0, r0, r1, lsr #32
 164:	0efb0102 	cdpeq	1, 15, cr0, cr11, cr2, {0}
 168:	0101000d 	tsteq	r1, sp
 16c:	00000101 	andeq	r0, r0, r1, lsl #2
 170:	00000100 	andeq	r0, r0, r0, lsl #2
 174:	65740001 	ldrbvs	r0, [r4, #-1]!
 178:	6e696d72 	mcrvs	13, 3, r6, cr9, cr2, {3}
 17c:	732e6c61 			; <UNDEFINED> instruction: 0x732e6c61
 180:	00000000 	andeq	r0, r0, r0
 184:	02050000 	andeq	r0, r5, #0
 188:	08000570 	stmdaeq	r0, {r4, r5, r6, r8, sl}
 18c:	21013c03 	tstcs	r1, r3, lsl #24
 190:	2f212159 	svccs	0x00212159
 194:	30592121 	subscc	r2, r9, r1, lsr #2
 198:	21212121 			; <UNDEFINED> instruction: 0x21212121
 19c:	2f212f21 	svccs	0x00212f21
 1a0:	21212f21 			; <UNDEFINED> instruction: 0x21212f21
 1a4:	03212259 			; <UNDEFINED> instruction: 0x03212259
 1a8:	212f741e 			; <UNDEFINED> instruction: 0x212f741e
 1ac:	2159212f 	cmpcs	r9, pc, lsr #2
 1b0:	2e0f032f 	cdpcs	3, 0, cr0, cr15, cr15, {1}
 1b4:	2f21212f 	svccs	0x0021212f
 1b8:	2f2f2f21 	svccs	0x002f2f21
 1bc:	2f2f2121 	svccs	0x002f2121
 1c0:	2010032f 	andscs	r0, r0, pc, lsr #6
 1c4:	2f21212f 	svccs	0x0021212f
 1c8:	2f2f2f2f 	svccs	0x002f2f2f
 1cc:	212f2f2f 			; <UNDEFINED> instruction: 0x212f2f2f
 1d0:	212f212f 			; <UNDEFINED> instruction: 0x212f212f
 1d4:	2f592121 	svccs	0x00592121
 1d8:	21212121 			; <UNDEFINED> instruction: 0x21212121
 1dc:	2f212121 	svccs	0x00212121
 1e0:	2f212f2f 	svccs	0x00212f2f
 1e4:	212f212f 			; <UNDEFINED> instruction: 0x212f212f
 1e8:	2f212f2f 	svccs	0x00212f2f
 1ec:	593c0e03 	ldmdbpl	ip!, {r0, r1, r9, sl, fp}
 1f0:	2e0d0359 	mcrcs	3, 0, r0, cr13, cr9, {2}
 1f4:	59592f21 	ldmdbpl	r9, {r0, r5, r8, r9, sl, fp, sp}^
 1f8:	2f595921 	svccs	0x00595921
 1fc:	200c0359 	andcs	r0, ip, r9, asr r3
 200:	2f21212f 	svccs	0x0021212f
 204:	2e0f032f 	cdpcs	3, 0, cr0, cr15, cr15, {1}
 208:	2f59592f 	svccs	0x0059592f
 20c:	2f592f59 	svccs	0x00592f59
 210:	2f2e0c03 	svccs	0x002e0c03
 214:	2f592f59 	svccs	0x00592f59
 218:	200d0359 	andcs	r0, sp, r9, asr r3
 21c:	59222121 	stmdbpl	r2!, {r0, r5, r8, sp}
 220:	03212121 			; <UNDEFINED> instruction: 0x03212121
 224:	2f212010 	svccs	0x00212010
 228:	21592f59 	cmpcs	r9, r9, asr pc
 22c:	2f2e1403 	svccs	0x002e1403
 230:	2f592f2f 	svccs	0x00592f2f
 234:	21212121 			; <UNDEFINED> instruction: 0x21212121
 238:	212f5921 			; <UNDEFINED> instruction: 0x212f5921
 23c:	2e0e032f 	cdpcs	3, 0, cr0, cr14, cr15, {1}
 240:	2f595921 	svccs	0x00595921
 244:	2e0c0359 	mcrcs	3, 0, r0, cr12, cr9, {2}
 248:	2f595921 	svccs	0x00595921
 24c:	2e0c0359 	mcrcs	3, 0, r0, cr12, cr9, {2}
 250:	2f21212f 	svccs	0x0021212f
 254:	2f212f59 	svccs	0x00212f59
 258:	032e2d03 			; <UNDEFINED> instruction: 0x032e2d03
 25c:	0f032e24 	svceq	0x00032e24
 260:	2f59212e 	svccs	0x0059212e
 264:	59592f59 	ldmdbpl	r9, {r0, r3, r4, r6, r8, r9, sl, fp, sp}^
 268:	2e0d0321 	cdpcs	3, 0, cr0, cr13, cr1, {1}
 26c:	592f5959 	stmdbpl	pc!, {r0, r3, r4, r6, r8, fp, ip, lr}	; <UNPREDICTABLE>
 270:	21200d03 			; <UNDEFINED> instruction: 0x21200d03
 274:	21592f59 	cmpcs	r9, r9, asr pc
 278:	592f5936 	stmdbpl	pc!, {r1, r2, r4, r5, r8, fp, ip, lr}	; <UNPREDICTABLE>
 27c:	0d03592f 	vstreq.16	s10, [r3, #-94]	; 0xffffffa2	; <UNPREDICTABLE>
 280:	59212120 	stmdbpl	r1!, {r5, r8, sp}
 284:	03592159 	cmpeq	r9, #1073741846	; 0x40000016
 288:	2f2f2e20 	svccs	0x002f2e20
 28c:	2f2f212f 	svccs	0x002f212f
 290:	2259592f 	subscs	r5, r9, #770048	; 0xbc000
 294:	22212159 	eorcs	r2, r1, #1073741846	; 0x40000016
 298:	21212221 			; <UNDEFINED> instruction: 0x21212221
 29c:	2f2f2221 	svccs	0x002f2221
 2a0:	2f2f592f 	svccs	0x002f592f
 2a4:	5921212f 	stmdbpl	r1!, {r0, r1, r2, r3, r5, r8, sp}
 2a8:	5922592f 	stmdbpl	r2!, {r0, r1, r2, r3, r5, r8, fp, ip, lr}
 2ac:	21212f2f 			; <UNDEFINED> instruction: 0x21212f2f
 2b0:	2f2f5922 	svccs	0x002f5922
 2b4:	2f212121 	svccs	0x00212121
 2b8:	592f2121 	stmdbpl	pc!, {r0, r5, r8, sp}	; <UNPREDICTABLE>
 2bc:	59212121 	stmdbpl	r1!, {r0, r5, r8, sp}
 2c0:	59212121 	stmdbpl	r1!, {r0, r5, r8, sp}
 2c4:	21212159 			; <UNDEFINED> instruction: 0x21212159
 2c8:	212f2f59 			; <UNDEFINED> instruction: 0x212f2f59
 2cc:	21212221 			; <UNDEFINED> instruction: 0x21212221
 2d0:	21215921 			; <UNDEFINED> instruction: 0x21215921
 2d4:	21215921 			; <UNDEFINED> instruction: 0x21215921
 2d8:	59212f21 	stmdbpl	r1!, {r0, r5, r8, r9, sl, fp, sp}
 2dc:	2f212121 	svccs	0x00212121
 2e0:	21215921 			; <UNDEFINED> instruction: 0x21215921
 2e4:	21215921 			; <UNDEFINED> instruction: 0x21215921
 2e8:	222f5921 	eorcs	r5, pc, #540672	; 0x84000
 2ec:	592f2121 	stmdbpl	pc!, {r0, r5, r8, sp}	; <UNPREDICTABLE>
 2f0:	21212221 			; <UNDEFINED> instruction: 0x21212221
 2f4:	592f2f21 	stmdbpl	pc!, {r0, r5, r8, r9, sl, fp, sp}	; <UNPREDICTABLE>
 2f8:	2121222f 			; <UNDEFINED> instruction: 0x2121222f
 2fc:	2f2f2f21 	svccs	0x002f2f21
 300:	30212259 	eorcc	r2, r1, r9, asr r2
 304:	2f2f2f21 	svccs	0x002f2f21
 308:	2f2f592f 	svccs	0x002f592f
 30c:	2f592121 	svccs	0x00592121
 310:	23212259 			; <UNDEFINED> instruction: 0x23212259
 314:	2f21222f 	svccs	0x0021222f
 318:	2f2f2f21 	svccs	0x002f2f21
 31c:	2f212159 	svccs	0x00212159
 320:	5921212f 	stmdbpl	r1!, {r0, r1, r2, r3, r5, r8, sp}
 324:	22592f2f 	subscs	r2, r9, #47, 30	; 0xbc
 328:	2f592121 	svccs	0x00592121
 32c:	2122592f 			; <UNDEFINED> instruction: 0x2122592f
 330:	2f212221 	svccs	0x00212221
 334:	212f5921 			; <UNDEFINED> instruction: 0x212f5921
 338:	212f5922 			; <UNDEFINED> instruction: 0x212f5922
 33c:	032f2121 			; <UNDEFINED> instruction: 0x032f2121
 340:	2f2f200f 	svccs	0x002f200f
 344:	2159592f 	cmpcs	r9, pc, lsr #18
 348:	2122212f 			; <UNDEFINED> instruction: 0x2122212f
 34c:	2e0f032f 	cdpcs	3, 0, cr0, cr15, cr15, {1}
 350:	2f595921 	svccs	0x00595921
 354:	59592f59 	ldmdbpl	r9, {r0, r3, r4, r6, r8, r9, sl, fp, sp}^
 358:	21592121 	cmpcs	r9, r1, lsr #2
 35c:	59215921 	stmdbpl	r1!, {r0, r5, r8, fp, ip, lr}
 360:	03212121 			; <UNDEFINED> instruction: 0x03212121
 364:	5959200a 	ldmdbpl	r9, {r1, r3, sp}^
 368:	5921592f 	stmdbpl	r1!, {r0, r1, r2, r3, r5, r8, fp, ip, lr}
 36c:	2136592f 	teqcs	r6, pc, lsr #18
 370:	21212f59 			; <UNDEFINED> instruction: 0x21212f59
 374:	212f2159 			; <UNDEFINED> instruction: 0x212f2159
 378:	59212121 	stmdbpl	r1!, {r0, r5, r8, sp}
 37c:	36215921 	strtcc	r5, [r1], -r1, lsr #18
 380:	2f26592f 	svccs	0x0026592f
 384:	2f59592f 	svccs	0x0059592f
 388:	78ff0359 	ldmvc	pc!, {r0, r3, r4, r6, r8, r9}^	; <UNPREDICTABLE>
 38c:	00020220 	andeq	r0, r2, r0, lsr #4
 390:	0a350101 	beq	d4079c <FLASH_HIDDEN_SIZE+0xd3079c>
 394:	00030000 	andeq	r0, r3, r0
 398:	00000022 	andeq	r0, r0, r2, lsr #32
 39c:	0efb0102 	cdpeq	1, 15, cr0, cr11, cr2, {0}
 3a0:	0101000d 	tsteq	r1, sp
 3a4:	00000101 	andeq	r0, r0, r1, lsl #2
 3a8:	00000100 	andeq	r0, r0, r0, lsl #2
 3ac:	69740001 	ldmdbvs	r4!, {r0}^
 3b0:	6142796e 	cmpvs	r2, lr, ror #18
 3b4:	2e636973 			; <UNDEFINED> instruction: 0x2e636973
 3b8:	00000073 	andeq	r0, r0, r3, ror r0
 3bc:	05000000 	streq	r0, [r0, #-0]
 3c0:	000d7802 	andeq	r7, sp, r2, lsl #16
 3c4:	01320308 	teqeq	r2, r8, lsl #6
 3c8:	212f2f21 			; <UNDEFINED> instruction: 0x212f2f21
 3cc:	2121212f 			; <UNDEFINED> instruction: 0x2121212f
 3d0:	21201003 			; <UNDEFINED> instruction: 0x21201003
 3d4:	22212121 	eorcs	r2, r1, #1073741832	; 0x40000008
 3d8:	21212f2f 			; <UNDEFINED> instruction: 0x21212f2f
 3dc:	2f212122 	svccs	0x00212122
 3e0:	2121212f 			; <UNDEFINED> instruction: 0x2121212f
 3e4:	21200f03 			; <UNDEFINED> instruction: 0x21200f03
 3e8:	212f212f 			; <UNDEFINED> instruction: 0x212f212f
 3ec:	12032121 	andne	r2, r3, #1073741832	; 0x40000008
 3f0:	2f222120 	svccs	0x00222120
 3f4:	2121212f 			; <UNDEFINED> instruction: 0x2121212f
 3f8:	03212f21 			; <UNDEFINED> instruction: 0x03212f21
 3fc:	2121200e 			; <UNDEFINED> instruction: 0x2121200e
 400:	592f2159 	stmdbpl	pc!, {r0, r3, r4, r6, r8, sp}	; <UNPREDICTABLE>
 404:	2f21592f 	svccs	0x0021592f
 408:	10035959 	andne	r5, r3, r9, asr r9
 40c:	21212158 			; <UNDEFINED> instruction: 0x21212158
 410:	5a2f592f 	bpl	bd68d4 <FLASH_HIDDEN_SIZE+0xbc68d4>
 414:	2121592f 			; <UNDEFINED> instruction: 0x2121592f
 418:	59215a2f 	stmdbpl	r1!, {r0, r1, r2, r3, r5, r9, fp, ip, lr}
 41c:	35212159 	strcc	r2, [r1, #-345]!	; 0xfffffea7
 420:	592f2f21 	stmdbpl	pc!, {r0, r5, r8, r9, sl, fp, sp}	; <UNPREDICTABLE>
 424:	2f342159 	svccs	0x00342159
 428:	4b215921 	blmi	8568b4 <FLASH_HIDDEN_SIZE+0x8468b4>
 42c:	212f2121 			; <UNDEFINED> instruction: 0x212f2121
 430:	2f592159 	svccs	0x00592159
 434:	2f900903 	svccs	0x00900903
 438:	2f4b592f 	svccs	0x004b592f
 43c:	212f2121 			; <UNDEFINED> instruction: 0x212f2121
 440:	2f592159 	svccs	0x00592159
 444:	21900903 	orrscs	r0, r0, r3, lsl #18
 448:	5959212f 	ldmdbpl	r9, {r0, r1, r2, r3, r5, r8, sp}^
 44c:	21592121 	cmpcs	r9, r1, lsr #2
 450:	03215921 			; <UNDEFINED> instruction: 0x03215921
 454:	21212010 			; <UNDEFINED> instruction: 0x21212010
 458:	2f21212f 	svccs	0x0021212f
 45c:	21212159 			; <UNDEFINED> instruction: 0x21212159
 460:	20090321 	andcs	r0, r9, r1, lsr #6
 464:	59212159 	stmdbpl	r1!, {r0, r3, r4, r6, r8, sp}
 468:	594b2121 	stmdbpl	fp, {r0, r5, r8, sp}^
 46c:	21212f21 			; <UNDEFINED> instruction: 0x21212f21
 470:	212f2159 			; <UNDEFINED> instruction: 0x212f2159
 474:	21201003 			; <UNDEFINED> instruction: 0x21201003
 478:	21212f21 			; <UNDEFINED> instruction: 0x21212f21
 47c:	2f21212f 	svccs	0x0021212f
 480:	212f2122 			; <UNDEFINED> instruction: 0x212f2122
 484:	0f032f22 	svceq	0x00032f22
 488:	2121212e 			; <UNDEFINED> instruction: 0x2121212e
 48c:	21212121 			; <UNDEFINED> instruction: 0x21212121
 490:	22212121 	eorcs	r2, r1, #1073741832	; 0x40000008
 494:	21222121 			; <UNDEFINED> instruction: 0x21222121
 498:	03212f21 			; <UNDEFINED> instruction: 0x03212f21
 49c:	21212012 			; <UNDEFINED> instruction: 0x21212012
 4a0:	21212121 			; <UNDEFINED> instruction: 0x21212121
 4a4:	21212121 			; <UNDEFINED> instruction: 0x21212121
 4a8:	212f2121 			; <UNDEFINED> instruction: 0x212f2121
 4ac:	2f201103 	svccs	0x00201103
 4b0:	2f212f21 	svccs	0x00212f21
 4b4:	2f2f592f 	svccs	0x002f592f
 4b8:	200f032f 	andcs	r0, pc, pc, lsr #6
 4bc:	2f21212f 	svccs	0x0021212f
 4c0:	2f21592f 	svccs	0x0021592f
 4c4:	2e10032f 	cdpcs	3, 1, cr0, cr0, cr15, {1}
 4c8:	592f212f 	stmdbpl	pc!, {r0, r1, r2, r3, r5, r8, sp}	; <UNPREDICTABLE>
 4cc:	2f2f5922 	svccs	0x002f5922
 4d0:	21592f22 	cmpcs	r9, r2, lsr #30
 4d4:	2f592121 	svccs	0x00592121
 4d8:	212e1503 			; <UNDEFINED> instruction: 0x212e1503
 4dc:	212f2f21 			; <UNDEFINED> instruction: 0x212f2f21
 4e0:	2f2f212f 	svccs	0x002f212f
 4e4:	592f212f 	stmdbpl	pc!, {r0, r1, r2, r3, r5, r8, sp}	; <UNPREDICTABLE>
 4e8:	2f212122 	svccs	0x00212122
 4ec:	2f222f21 	svccs	0x00222f21
 4f0:	2f212122 	svccs	0x00212122
 4f4:	21215921 			; <UNDEFINED> instruction: 0x21215921
 4f8:	2f2f2221 	svccs	0x002f2221
 4fc:	22212121 	eorcs	r2, r1, #1073741832	; 0x40000008
 500:	2f212f21 	svccs	0x00212f21
 504:	21592121 	cmpcs	r9, r1, lsr #2
 508:	212f2121 			; <UNDEFINED> instruction: 0x212f2121
 50c:	032f212f 			; <UNDEFINED> instruction: 0x032f212f
 510:	2f212e10 	svccs	0x00212e10
 514:	592f2121 	stmdbpl	pc!, {r0, r5, r8, sp}	; <UNPREDICTABLE>
 518:	2f21212f 	svccs	0x0021212f
 51c:	592f2159 	stmdbpl	pc!, {r0, r3, r4, r6, r8, sp}	; <UNPREDICTABLE>
 520:	21212121 			; <UNDEFINED> instruction: 0x21212121
 524:	312f5921 			; <UNDEFINED> instruction: 0x312f5921
 528:	22212f23 	eorcs	r2, r1, #35, 30	; 0x8c
 52c:	21212f2f 			; <UNDEFINED> instruction: 0x21212f2f
 530:	212f2f22 			; <UNDEFINED> instruction: 0x212f2f22
 534:	212f2f21 			; <UNDEFINED> instruction: 0x212f2f21
 538:	2f2f2121 	svccs	0x002f2121
 53c:	2f2f2f22 	svccs	0x002f2f22
 540:	2f222f2f 	svccs	0x00222f2f
 544:	222f2f2f 	eorcs	r2, pc, #47, 30	; 0xbc
 548:	23592f2f 	cmpcs	r9, #47, 30	; 0xbc
 54c:	302f2f2f 	eorcc	r2, pc, pc, lsr #30
 550:	5959212f 	ldmdbpl	r9, {r0, r1, r2, r3, r5, r8, sp}^
 554:	22212f21 	eorcs	r2, r1, #33, 30	; 0x84
 558:	592f222f 	stmdbpl	pc!, {r0, r1, r2, r3, r5, r9, sp}	; <UNPREDICTABLE>
 55c:	21302f2f 	teqcs	r0, pc, lsr #30
 560:	212e1103 			; <UNDEFINED> instruction: 0x212e1103
 564:	21212f2f 			; <UNDEFINED> instruction: 0x21212f2f
 568:	212f2121 			; <UNDEFINED> instruction: 0x212f2121
 56c:	2e03212f 	adfcssp	f2, f3, #10.0
 570:	21012702 	tstcs	r1, r2, lsl #14
 574:	2f2f2f2f 	svccs	0x002f2f2f
 578:	2f592159 	svccs	0x00592159
 57c:	302f212f 	eorcc	r2, pc, pc, lsr #2
 580:	2f212f2f 	svccs	0x00212f2f
 584:	21222f2f 			; <UNDEFINED> instruction: 0x21222f2f
 588:	2121592f 			; <UNDEFINED> instruction: 0x2121592f
 58c:	222f2f22 	eorcs	r2, pc, #34, 30	; 0x88
 590:	2f2f5921 	svccs	0x002f5921
 594:	2f2f212f 	svccs	0x002f212f
 598:	200d0321 	andcs	r0, sp, r1, lsr #6
 59c:	2f2f2f21 	svccs	0x002f2f21
 5a0:	212f2f21 			; <UNDEFINED> instruction: 0x212f2f21
 5a4:	21212121 			; <UNDEFINED> instruction: 0x21212121
 5a8:	2f201203 	svccs	0x00201203
 5ac:	2f21212f 	svccs	0x0021212f
 5b0:	2f212121 	svccs	0x00212121
 5b4:	21592f2f 	cmpcs	r9, pc, lsr #30
 5b8:	03212f21 			; <UNDEFINED> instruction: 0x03212f21
 5bc:	2f2f2011 	svccs	0x002f2011
 5c0:	2121212f 			; <UNDEFINED> instruction: 0x2121212f
 5c4:	212f5921 			; <UNDEFINED> instruction: 0x212f5921
 5c8:	212f2f2f 			; <UNDEFINED> instruction: 0x212f2f2f
 5cc:	21201103 			; <UNDEFINED> instruction: 0x21201103
 5d0:	21212f2f 			; <UNDEFINED> instruction: 0x21212f2f
 5d4:	21212f2f 			; <UNDEFINED> instruction: 0x21212f2f
 5d8:	2f2f2121 	svccs	0x002f2121
 5dc:	66100321 	ldrvs	r0, [r0], -r1, lsr #6
 5e0:	21212f21 			; <UNDEFINED> instruction: 0x21212f21
 5e4:	2121212f 			; <UNDEFINED> instruction: 0x2121212f
 5e8:	212e0b03 			; <UNDEFINED> instruction: 0x212e0b03
 5ec:	2f212121 	svccs	0x00212121
 5f0:	212e0d03 			; <UNDEFINED> instruction: 0x212e0d03
 5f4:	2121212f 			; <UNDEFINED> instruction: 0x2121212f
 5f8:	21302f21 	teqcs	r0, r1, lsr #30
 5fc:	200d0321 	andcs	r0, sp, r1, lsr #6
 600:	21212f21 			; <UNDEFINED> instruction: 0x21212f21
 604:	21212f2f 			; <UNDEFINED> instruction: 0x21212f2f
 608:	21212f21 			; <UNDEFINED> instruction: 0x21212f21
 60c:	212e0c03 			; <UNDEFINED> instruction: 0x212e0c03
 610:	2121212f 			; <UNDEFINED> instruction: 0x2121212f
 614:	21212121 			; <UNDEFINED> instruction: 0x21212121
 618:	21212f21 			; <UNDEFINED> instruction: 0x21212f21
 61c:	2f201203 	svccs	0x00201203
 620:	2f2f2121 	svccs	0x002f2121
 624:	2121592f 			; <UNDEFINED> instruction: 0x2121592f
 628:	21212121 			; <UNDEFINED> instruction: 0x21212121
 62c:	21212f2f 			; <UNDEFINED> instruction: 0x21212f2f
 630:	212f212f 			; <UNDEFINED> instruction: 0x212f212f
 634:	15032f21 	strne	r2, [r3, #-3873]	; 0xfffff0df
 638:	2f2f2f2e 	svccs	0x002f2f2e
 63c:	2f2f2121 	svccs	0x002f2121
 640:	032f2121 			; <UNDEFINED> instruction: 0x032f2121
 644:	212f2e10 			; <UNDEFINED> instruction: 0x212f2e10
 648:	2f2f212f 	svccs	0x002f212f
 64c:	5921592f 	stmdbpl	r1!, {r0, r1, r2, r3, r5, r8, fp, ip, lr}
 650:	2f215921 	svccs	0x00215921
 654:	2159222f 	cmpcs	r9, pc, lsr #4
 658:	2f21212f 	svccs	0x0021212f
 65c:	21222f21 			; <UNDEFINED> instruction: 0x21222f21
 660:	2f2f2f21 	svccs	0x002f2f21
 664:	21592121 	cmpcs	r9, r1, lsr #2
 668:	21212159 			; <UNDEFINED> instruction: 0x21212159
 66c:	312f2f21 			; <UNDEFINED> instruction: 0x312f2f21
 670:	2f212121 	svccs	0x00212121
 674:	212f2f2f 			; <UNDEFINED> instruction: 0x212f2f2f
 678:	21212121 			; <UNDEFINED> instruction: 0x21212121
 67c:	21592159 	cmpcs	r9, r9, asr r1
 680:	2f212159 	svccs	0x00212159
 684:	2f21212f 	svccs	0x0021212f
 688:	59215921 	stmdbpl	r1!, {r0, r5, r8, fp, ip, lr}
 68c:	21212f21 			; <UNDEFINED> instruction: 0x21212f21
 690:	59212121 	stmdbpl	r1!, {r0, r5, r8, sp}
 694:	59215921 	stmdbpl	r1!, {r0, r5, r8, fp, ip, lr}
 698:	21212121 			; <UNDEFINED> instruction: 0x21212121
 69c:	2f2f2f2f 	svccs	0x002f2f2f
 6a0:	2f212f2f 	svccs	0x00212f2f
 6a4:	2121212f 			; <UNDEFINED> instruction: 0x2121212f
 6a8:	21212f2f 			; <UNDEFINED> instruction: 0x21212f2f
 6ac:	21592159 	cmpcs	r9, r9, asr r1
 6b0:	2f212f2f 	svccs	0x00212f2f
 6b4:	03212f2f 			; <UNDEFINED> instruction: 0x03212f2f
 6b8:	213c0819 	teqcs	ip, r9, lsl r8
 6bc:	2f212f2f 	svccs	0x00212f2f
 6c0:	2e11032f 	cdpcs	3, 1, cr0, cr1, cr15, {1}
 6c4:	2e0e032f 	cdpcs	3, 0, cr0, cr14, cr15, {1}
 6c8:	21222f21 			; <UNDEFINED> instruction: 0x21222f21
 6cc:	21592f21 	cmpcs	r9, r1, lsr #30
 6d0:	5a212f2f 	bpl	84c394 <FLASH_HIDDEN_SIZE+0x83c394>
 6d4:	592f2121 	stmdbpl	pc!, {r0, r5, r8, sp}	; <UNPREDICTABLE>
 6d8:	592f5a59 	stmdbpl	pc!, {r0, r3, r4, r6, r9, fp, ip, lr}	; <UNPREDICTABLE>
 6dc:	5a592f21 	bpl	164c368 <FLASH_HIDDEN_SIZE+0x163c368>
 6e0:	30592121 	subscc	r2, r9, r1, lsr #2
 6e4:	59212f2f 	stmdbpl	r1!, {r0, r1, r2, r3, r5, r8, r9, sl, fp, sp}
 6e8:	21595921 	cmpcs	r9, r1, lsr #18
 6ec:	59592f59 	ldmdbpl	r9, {r0, r3, r4, r6, r8, r9, sl, fp, sp}^
 6f0:	35022c03 	strcc	r2, [r2, #-3075]	; 0xfffff3fd
 6f4:	11032f01 	tstne	r3, r1, lsl #30
 6f8:	2e11032e 	cdpcs	3, 1, cr0, cr1, cr14, {1}
 6fc:	2f212f2f 	svccs	0x00212f2f
 700:	21212f2f 			; <UNDEFINED> instruction: 0x21212f2f
 704:	032f212f 			; <UNDEFINED> instruction: 0x032f212f
 708:	212f2e11 			; <UNDEFINED> instruction: 0x212f2e11
 70c:	21212259 			; <UNDEFINED> instruction: 0x21212259
 710:	59212121 	stmdbpl	r1!, {r0, r5, r8, sp}
 714:	222f2121 	eorcs	r2, pc, #1073741832	; 0x40000008
 718:	032f2f2f 			; <UNDEFINED> instruction: 0x032f2f2f
 71c:	2f4b2013 	svccs	0x004b2013
 720:	2122212f 			; <UNDEFINED> instruction: 0x2122212f
 724:	212f2f2f 			; <UNDEFINED> instruction: 0x212f2f2f
 728:	2f212f22 	svccs	0x00212f22
 72c:	59595959 	ldmdbpl	r9, {r0, r3, r4, r6, r8, fp, ip, lr}^
 730:	82110321 	andshi	r0, r1, #-2080374784	; 0x84000000
 734:	2f2f592f 	svccs	0x002f592f
 738:	3021212f 	eorcc	r2, r1, pc, lsr #2
 73c:	2f592f59 	svccs	0x00592f59
 740:	21212f2f 			; <UNDEFINED> instruction: 0x21212f2f
 744:	03595930 	cmpeq	r9, #48, 18	; 0xc0000
 748:	212e0813 			; <UNDEFINED> instruction: 0x212e0813
 74c:	2f2f2f2f 	svccs	0x002f2f2f
 750:	36212121 	strtcc	r2, [r1], -r1, lsr #2
 754:	2121212f 			; <UNDEFINED> instruction: 0x2121212f
 758:	21212121 			; <UNDEFINED> instruction: 0x21212121
 75c:	2f2f2f2f 	svccs	0x002f2f2f
 760:	592f2121 	stmdbpl	pc!, {r0, r5, r8, sp}	; <UNPREDICTABLE>
 764:	2f2f2f21 	svccs	0x002f2f21
 768:	0e032121 	adfeqsp	f2, f3, f1
 76c:	2f2f2f20 	svccs	0x002f2f20
 770:	2121212f 			; <UNDEFINED> instruction: 0x2121212f
 774:	212f212f 			; <UNDEFINED> instruction: 0x212f212f
 778:	30e41403 	rsccc	r1, r4, r3, lsl #8
 77c:	032f212f 			; <UNDEFINED> instruction: 0x032f212f
 780:	2f59580e 	svccs	0x0059580e
 784:	592f2f2f 	stmdbpl	pc!, {r0, r1, r2, r3, r5, r8, r9, sl, fp, sp}	; <UNPREDICTABLE>
 788:	23592121 	cmpcs	r9, #1073741832	; 0x40000008
 78c:	21212159 			; <UNDEFINED> instruction: 0x21212159
 790:	21212121 			; <UNDEFINED> instruction: 0x21212121
 794:	2121222f 			; <UNDEFINED> instruction: 0x2121222f
 798:	21212259 			; <UNDEFINED> instruction: 0x21212259
 79c:	0c032259 	sfmeq	f2, 4, [r3], {89}	; 0x59
 7a0:	032f2120 			; <UNDEFINED> instruction: 0x032f2120
 7a4:	2121200e 			; <UNDEFINED> instruction: 0x2121200e
 7a8:	21212122 			; <UNDEFINED> instruction: 0x21212122
 7ac:	2f212f2f 	svccs	0x00212f2f
 7b0:	2f222f59 	svccs	0x00222f59
 7b4:	212f2f2f 			; <UNDEFINED> instruction: 0x212f2f2f
 7b8:	2f222121 	svccs	0x00222121
 7bc:	2121212f 			; <UNDEFINED> instruction: 0x2121212f
 7c0:	2159212f 	cmpcs	r9, pc, lsr #2
 7c4:	2f222f2f 	svccs	0x00222f2f
 7c8:	2e11032f 	cdpcs	3, 1, cr0, cr1, cr15, {1}
 7cc:	2159212f 	cmpcs	r9, pc, lsr #2
 7d0:	0d032f2f 	stceq	15, cr2, [r3, #-188]	; 0xffffff44
 7d4:	59592f20 	ldmdbpl	r9, {r5, r8, r9, sl, fp, sp}^
 7d8:	21592f21 	cmpcs	r9, r1, lsr #30
 7dc:	2f200d03 	svccs	0x00200d03
 7e0:	2121592f 			; <UNDEFINED> instruction: 0x2121592f
 7e4:	21592f2f 	cmpcs	r9, pc, lsr #30
 7e8:	2f214b21 	svccs	0x00214b21
 7ec:	21201303 			; <UNDEFINED> instruction: 0x21201303
 7f0:	21212f59 			; <UNDEFINED> instruction: 0x21212f59
 7f4:	2121592f 			; <UNDEFINED> instruction: 0x2121592f
 7f8:	592f2121 	stmdbpl	pc!, {r0, r5, r8, sp}	; <UNPREDICTABLE>
 7fc:	212f2159 			; <UNDEFINED> instruction: 0x212f2159
 800:	5921592f 	stmdbpl	r1!, {r0, r1, r2, r3, r5, r8, fp, ip, lr}
 804:	59212121 	stmdbpl	r1!, {r0, r5, r8, sp}
 808:	2f212f21 	svccs	0x00212f21
 80c:	212f2159 			; <UNDEFINED> instruction: 0x212f2159
 810:	59212121 	stmdbpl	r1!, {r0, r5, r8, sp}
 814:	21212121 			; <UNDEFINED> instruction: 0x21212121
 818:	21212159 			; <UNDEFINED> instruction: 0x21212159
 81c:	2121592f 			; <UNDEFINED> instruction: 0x2121592f
 820:	212f2f21 			; <UNDEFINED> instruction: 0x212f2f21
 824:	592e0f03 	stmdbpl	lr!, {r0, r1, r8, r9, sl, fp}
 828:	21212121 			; <UNDEFINED> instruction: 0x21212121
 82c:	21215921 			; <UNDEFINED> instruction: 0x21215921
 830:	4b212121 	blmi	848cbc <FLASH_HIDDEN_SIZE+0x838cbc>
 834:	2159212f 	cmpcs	r9, pc, lsr #2
 838:	2f22212f 	svccs	0x0022212f
 83c:	2f222f21 	svccs	0x00222f21
 840:	2f2f2122 	svccs	0x002f2122
 844:	2121212f 			; <UNDEFINED> instruction: 0x2121212f
 848:	592e1003 	stmdbpl	lr!, {r0, r1, ip}
 84c:	21212121 			; <UNDEFINED> instruction: 0x21212121
 850:	21215921 			; <UNDEFINED> instruction: 0x21215921
 854:	4b212121 	blmi	848ce0 <FLASH_HIDDEN_SIZE+0x838ce0>
 858:	2159212f 	cmpcs	r9, pc, lsr #2
 85c:	2f21212f 	svccs	0x0021212f
 860:	21212121 			; <UNDEFINED> instruction: 0x21212121
 864:	2e100321 	cdpcs	3, 1, cr0, cr0, cr1, {1}
 868:	2f215921 	svccs	0x00215921
 86c:	212f5921 			; <UNDEFINED> instruction: 0x212f5921
 870:	59212121 	stmdbpl	r1!, {r0, r5, r8, sp}
 874:	2f212f21 	svccs	0x00212f21
 878:	22213121 	eorcs	r3, r1, #1073741832	; 0x40000008
 87c:	22212221 	eorcs	r2, r1, #268435458	; 0x10000002
 880:	22212221 	eorcs	r2, r1, #268435458	; 0x10000002
 884:	4b212f22 	blmi	84c514 <FLASH_HIDDEN_SIZE+0x83c514>
 888:	03212f21 			; <UNDEFINED> instruction: 0x03212f21
 88c:	2f2f5816 	svccs	0x002f5816
 890:	032f212f 			; <UNDEFINED> instruction: 0x032f212f
 894:	2f21200f 	svccs	0x0021200f
 898:	21212f2f 			; <UNDEFINED> instruction: 0x21212f2f
 89c:	2f200c03 	svccs	0x00200c03
 8a0:	032f212f 			; <UNDEFINED> instruction: 0x032f212f
 8a4:	2f21200e 	svccs	0x0021200e
 8a8:	0321212f 			; <UNDEFINED> instruction: 0x0321212f
 8ac:	352073fe 	strcc	r7, [r0, #-1022]!	; 0xfffffc02
 8b0:	2e00d503 	cfsh32cs	mvfx13, mvfx0, #3
 8b4:	2e00ce03 	cdpcs	14, 0, cr12, cr0, cr3, {0}
 8b8:	2e018303 	cdpcs	3, 0, cr8, cr1, cr3, {0}
 8bc:	2e01e903 	vmlacs.f16	s28, s2, s6	; <UNPREDICTABLE>
 8c0:	032e0903 			; <UNDEFINED> instruction: 0x032e0903
 8c4:	312e019b 			; <UNDEFINED> instruction: 0x312e019b
 8c8:	032e0c03 			; <UNDEFINED> instruction: 0x032e0c03
 8cc:	032e01cf 			; <UNDEFINED> instruction: 0x032e01cf
 8d0:	032e00ff 			; <UNDEFINED> instruction: 0x032e00ff
 8d4:	c1032e3c 	tstgt	r3, ip, lsr lr
 8d8:	02022e02 	andeq	r2, r2, #2, 28
 8dc:	00010100 	andeq	r0, r1, r0, lsl #2
 8e0:	1f3c0205 	svcne	0x003c0205
 8e4:	ae030800 	cdpge	8, 0, cr0, cr3, cr0, {0}
 8e8:	21590112 	cmpcs	r9, r2, lsl r1
 8ec:	2f2f2f21 	svccs	0x002f2f21
 8f0:	312f2f21 			; <UNDEFINED> instruction: 0x312f2f21
 8f4:	21593531 	cmpcs	r9, r1, lsr r5
 8f8:	2f2f2f2f 	svccs	0x002f2f2f
 8fc:	592f362f 	stmdbpl	pc!, {r0, r1, r2, r3, r5, r9, sl, ip, sp}	; <UNPREDICTABLE>
 900:	21212159 			; <UNDEFINED> instruction: 0x21212159
 904:	21212121 			; <UNDEFINED> instruction: 0x21212121
 908:	2f212159 	svccs	0x00212159
 90c:	2f2f592f 	svccs	0x002f592f
 910:	21593623 	cmpcs	r9, r3, lsr #12
 914:	2f224b2f 	svccs	0x00224b2f
 918:	232f2122 			; <UNDEFINED> instruction: 0x232f2122
 91c:	2f2f2f2f 	svccs	0x002f2f2f
 920:	2f2f212f 	svccs	0x002f212f
 924:	212f4b22 			; <UNDEFINED> instruction: 0x212f4b22
 928:	212f2121 			; <UNDEFINED> instruction: 0x212f2121
 92c:	2159362f 	cmpcs	r9, pc, lsr #12
 930:	2f2f2f2f 	svccs	0x002f2f2f
 934:	2e0f032f 	cdpcs	3, 0, cr0, cr15, cr15, {1}
 938:	2f212159 	svccs	0x00212159
 93c:	2f2f2f2f 	svccs	0x002f2f2f
 940:	0f03212f 	svceq	0x0003212f
 944:	2121592e 			; <UNDEFINED> instruction: 0x2121592e
 948:	2f2f2f2f 	svccs	0x002f2f2f
 94c:	0f03212f 	svceq	0x0003212f
 950:	2121592e 			; <UNDEFINED> instruction: 0x2121592e
 954:	2f2f2f2f 	svccs	0x002f2f2f
 958:	5935212f 	ldmdbpl	r5!, {r0, r1, r2, r3, r5, r8, sp}
 95c:	2f2f2f21 	svccs	0x002f2f21
 960:	2f2f212f 	svccs	0x002f212f
 964:	2f212f21 	svccs	0x00212f21
 968:	362f2f21 	strtcc	r2, [pc], -r1, lsr #30
 96c:	21592759 	cmpcs	r9, r9, asr r7
 970:	2f2f2f2f 	svccs	0x002f2f2f
 974:	832e0b03 			; <UNDEFINED> instruction: 0x832e0b03
 978:	21212f2f 			; <UNDEFINED> instruction: 0x21212f2f
 97c:	21592f2f 	cmpcs	r9, pc, lsr #30
 980:	2f2f2f2f 	svccs	0x002f2f2f
 984:	2f215959 	svccs	0x00215959
 988:	2f2f2f2f 	svccs	0x002f2f2f
 98c:	4c212159 	stfmis	f2, [r1], #-356	; 0xfffffe9c
 990:	832e0d03 			; <UNDEFINED> instruction: 0x832e0d03
 994:	212f2159 			; <UNDEFINED> instruction: 0x212f2159
 998:	2f212159 	svccs	0x00212159
 99c:	2121212f 			; <UNDEFINED> instruction: 0x2121212f
 9a0:	21212121 			; <UNDEFINED> instruction: 0x21212121
 9a4:	212f2121 			; <UNDEFINED> instruction: 0x212f2121
 9a8:	832e0903 			; <UNDEFINED> instruction: 0x832e0903
 9ac:	21212121 			; <UNDEFINED> instruction: 0x21212121
 9b0:	212f2121 			; <UNDEFINED> instruction: 0x212f2121
 9b4:	21212121 			; <UNDEFINED> instruction: 0x21212121
 9b8:	212f212f 			; <UNDEFINED> instruction: 0x212f212f
 9bc:	21212122 			; <UNDEFINED> instruction: 0x21212122
 9c0:	21212121 			; <UNDEFINED> instruction: 0x21212121
 9c4:	21212121 			; <UNDEFINED> instruction: 0x21212121
 9c8:	2f21212f 	svccs	0x0021212f
 9cc:	2183272f 	orrcs	r2, r3, pc, lsr #14
 9d0:	21212121 			; <UNDEFINED> instruction: 0x21212121
 9d4:	22212121 	eorcs	r2, r1, #1073741832	; 0x40000008
 9d8:	2f212121 	svccs	0x00212121
 9dc:	21212221 			; <UNDEFINED> instruction: 0x21212221
 9e0:	21212f22 			; <UNDEFINED> instruction: 0x21212f22
 9e4:	212f3521 			; <UNDEFINED> instruction: 0x212f3521
 9e8:	0e032f27 	cdpeq	15, 0, cr2, cr3, cr7, {1}
 9ec:	2159832e 	cmpcs	r9, lr, lsr #6
 9f0:	59302f2f 	ldmdbpl	r0!, {r0, r1, r2, r3, r5, r8, r9, sl, fp, sp}
 9f4:	2121592f 			; <UNDEFINED> instruction: 0x2121592f
 9f8:	592f2f34 	stmdbpl	pc!, {r2, r4, r5, r8, r9, sl, fp, sp}	; <UNPREDICTABLE>
 9fc:	59212f2f 	stmdbpl	r1!, {r0, r1, r2, r3, r5, r8, r9, sl, fp, sp}
 a00:	5921212f 	stmdbpl	r1!, {r0, r1, r2, r3, r5, r8, sp}
 a04:	2f592f2f 	svccs	0x00592f2f
 a08:	282f5921 	stmdacs	pc!, {r0, r5, r8, fp, ip, lr}	; <UNPREDICTABLE>
 a0c:	2159352f 	cmpcs	r9, pc, lsr #10
 a10:	212f2f2f 			; <UNDEFINED> instruction: 0x212f2f2f
 a14:	2f2f2f21 	svccs	0x002f2f21
 a18:	27592121 	ldrbcs	r2, [r9, -r1, lsr #2]
 a1c:	0903592f 	stmdbeq	r3, {r0, r1, r2, r3, r5, r8, fp, ip, lr}
 a20:	592f2f3c 	stmdbpl	pc!, {r2, r3, r4, r5, r8, r9, sl, fp, sp}	; <UNPREDICTABLE>
 a24:	59212f21 	stmdbpl	r1!, {r0, r5, r8, r9, sl, fp, sp}
 a28:	2f212f21 	svccs	0x00212f21
 a2c:	2f215935 	svccs	0x00215935
 a30:	59272f22 	stmdbpl	r7!, {r1, r5, r8, r9, sl, fp, sp}
 a34:	2f222f21 	svccs	0x00222f21
 a38:	2f215928 	svccs	0x00215928
 a3c:	212f212f 			; <UNDEFINED> instruction: 0x212f212f
 a40:	2121212f 			; <UNDEFINED> instruction: 0x2121212f
 a44:	21212121 			; <UNDEFINED> instruction: 0x21212121
 a48:	3e232121 	sufccsp	f2, f3, f1
 a4c:	2f2f212f 	svccs	0x002f212f
 a50:	59365921 	ldmdbpl	r6!, {r0, r5, r8, fp, ip, lr}
 a54:	2f2f2130 	svccs	0x002f2130
 a58:	2f355921 	svccs	0x00355921
 a5c:	3559212f 	ldrbcc	r2, [r9, #-303]	; 0xfffffed1
 a60:	212f2759 			; <UNDEFINED> instruction: 0x212f2759
 a64:	2f215927 	svccs	0x00215927
 a68:	032e0903 			; <UNDEFINED> instruction: 0x032e0903
 a6c:	592f2e0a 	stmdbpl	pc!, {r1, r3, r9, sl, fp, sp}	; <UNPREDICTABLE>
 a70:	21212121 			; <UNDEFINED> instruction: 0x21212121
 a74:	2f592f21 	svccs	0x00592f21
 a78:	21212159 			; <UNDEFINED> instruction: 0x21212159
 a7c:	2f212f21 	svccs	0x00212f21
 a80:	59212121 	stmdbpl	r1!, {r0, r5, r8, sp}
 a84:	2f2f592f 	svccs	0x002f592f
 a88:	21212159 			; <UNDEFINED> instruction: 0x21212159
 a8c:	21215921 			; <UNDEFINED> instruction: 0x21215921
 a90:	212f212f 			; <UNDEFINED> instruction: 0x212f212f
 a94:	212f2f21 			; <UNDEFINED> instruction: 0x212f2f21
 a98:	2f2f2121 	svccs	0x002f2121
 a9c:	2f212121 	svccs	0x00212121
 aa0:	592f212f 	stmdbpl	pc!, {r0, r1, r2, r3, r5, r8, sp}	; <UNPREDICTABLE>
 aa4:	2f2f2f21 	svccs	0x002f2f21
 aa8:	21595921 	cmpcs	r9, r1, lsr #18
 aac:	032f4b21 			; <UNDEFINED> instruction: 0x032f4b21
 ab0:	2159580a 	cmpcs	r9, sl, lsl #16
 ab4:	2f2f2f2f 	svccs	0x002f2f2f
 ab8:	2f215935 	svccs	0x00215935
 abc:	592e0d03 	stmdbpl	lr!, {r0, r1, r8, sl, fp}
 ac0:	21212121 			; <UNDEFINED> instruction: 0x21212121
 ac4:	212f2f30 			; <UNDEFINED> instruction: 0x212f2f30
 ac8:	59592f22 	ldmdbpl	r9, {r1, r5, r8, r9, sl, fp, sp}^
 acc:	2f2f2f21 	svccs	0x002f2f21
 ad0:	2f2f2f59 	svccs	0x002f2f59
 ad4:	592f2f2f 	stmdbpl	pc!, {r0, r1, r2, r3, r5, r8, r9, sl, fp, sp}	; <UNPREDICTABLE>
 ad8:	2f2f2159 	svccs	0x002f2159
 adc:	200b0321 	andcs	r0, fp, r1, lsr #6
 ae0:	2f2f2f83 	svccs	0x002f2f83
 ae4:	2121592f 			; <UNDEFINED> instruction: 0x2121592f
 ae8:	21592121 	cmpcs	r9, r1, lsr #2
 aec:	21212121 			; <UNDEFINED> instruction: 0x21212121
 af0:	2121592f 			; <UNDEFINED> instruction: 0x2121592f
 af4:	212f222f 			; <UNDEFINED> instruction: 0x212f222f
 af8:	21212f21 			; <UNDEFINED> instruction: 0x21212f21
 afc:	21212121 			; <UNDEFINED> instruction: 0x21212121
 b00:	59592f21 	ldmdbpl	r9, {r0, r5, r8, r9, sl, fp, sp}^
 b04:	2f212f59 	svccs	0x00212f59
 b08:	59522121 	ldmdbpl	r2, {r0, r5, r8, sp}^
 b0c:	2f2f2f21 	svccs	0x002f2f21
 b10:	21592859 	cmpcs	r9, r9, asr r8
 b14:	2f2f2f2f 	svccs	0x002f2f2f
 b18:	43598336 	cmpmi	r9, #-671088640	; 0xd8000000
 b1c:	212f2159 			; <UNDEFINED> instruction: 0x212f2159
 b20:	2159272f 	cmpcs	r9, pc, lsr #14
 b24:	2f2f2f2f 	svccs	0x002f2f2f
 b28:	2159352f 	cmpcs	r9, pc, lsr #10
 b2c:	212f2f2f 			; <UNDEFINED> instruction: 0x212f2f2f
 b30:	2f2f2f2f 	svccs	0x002f2f2f
 b34:	2f215928 	svccs	0x00215928
 b38:	2f212f2f 	svccs	0x00212f2f
 b3c:	36212f2f 	strtcc	r2, [r1], -pc, lsr #30
 b40:	09032f21 	stmdbeq	r3, {r0, r5, r8, r9, sl, fp, sp}
 b44:	2f21593c 	svccs	0x0021593c
 b48:	21212121 			; <UNDEFINED> instruction: 0x21212121
 b4c:	20140321 	andscs	r0, r4, r1, lsr #6
 b50:	5921592f 	stmdbpl	r1!, {r0, r1, r2, r3, r5, r8, fp, ip, lr}
 b54:	59592f2f 	ldmdbpl	r9, {r0, r1, r2, r3, r5, r8, r9, sl, fp, sp}^
 b58:	21212f21 			; <UNDEFINED> instruction: 0x21212f21
 b5c:	22212f2f 	eorcs	r2, r1, #47, 30	; 0xbc
 b60:	2f2f222f 	svccs	0x002f222f
 b64:	21224b2f 			; <UNDEFINED> instruction: 0x21224b2f
 b68:	212f2121 			; <UNDEFINED> instruction: 0x212f2121
 b6c:	2f2f2121 	svccs	0x002f2121
 b70:	3021212f 	eorcc	r2, r1, pc, lsr #2
 b74:	2f2f212f 	svccs	0x002f212f
 b78:	2f2f2f2f 	svccs	0x002f2f2f
 b7c:	2f2f302f 	svccs	0x002f302f
 b80:	2f2f2f2f 	svccs	0x002f2f2f
 b84:	2f215928 	svccs	0x00215928
 b88:	272f212f 	strcs	r2, [pc, -pc, lsr #2]!
 b8c:	2f2f2159 	svccs	0x002f2159
 b90:	59272f21 	stmdbpl	r7!, {r0, r5, r8, r9, sl, fp, sp}
 b94:	212f2f21 			; <UNDEFINED> instruction: 0x212f2f21
 b98:	2159282f 	cmpcs	r9, pc, lsr #16
 b9c:	27212f2f 	strcs	r2, [r1, -pc, lsr #30]!
 ba0:	2f2f2159 	svccs	0x002f2159
 ba4:	21592721 	cmpcs	r9, r1, lsr #14
 ba8:	03212f2f 			; <UNDEFINED> instruction: 0x03212f2f
 bac:	2f212009 	svccs	0x00212009
 bb0:	21592f21 	cmpcs	r9, r1, lsr #30
 bb4:	59212121 	stmdbpl	r1!, {r0, r5, r8, sp}
 bb8:	21212121 			; <UNDEFINED> instruction: 0x21212121
 bbc:	59212121 	stmdbpl	r1!, {r0, r5, r8, sp}
 bc0:	21212121 			; <UNDEFINED> instruction: 0x21212121
 bc4:	21212159 			; <UNDEFINED> instruction: 0x21212159
 bc8:	21212159 			; <UNDEFINED> instruction: 0x21212159
 bcc:	212f2159 			; <UNDEFINED> instruction: 0x212f2159
 bd0:	21212121 			; <UNDEFINED> instruction: 0x21212121
 bd4:	21215921 			; <UNDEFINED> instruction: 0x21215921
 bd8:	592f5921 	stmdbpl	pc!, {r0, r5, r8, fp, ip, lr}	; <UNPREDICTABLE>
 bdc:	2f212121 	svccs	0x00212121
 be0:	59212121 	stmdbpl	r1!, {r0, r5, r8, sp}
 be4:	2f4c222f 	svccs	0x004c222f
 be8:	2f215921 	svccs	0x00215921
 bec:	592f3521 	stmdbpl	pc!, {r0, r5, r8, sl, ip, sp}	; <UNPREDICTABLE>
 bf0:	352f2f21 	strcc	r2, [pc, #-3873]!	; fffffcd7 <SCR_BASE_ADR+0x1fff0fc7>
 bf4:	212f2159 			; <UNDEFINED> instruction: 0x212f2159
 bf8:	2f2f2f2f 	svccs	0x002f2f2f
 bfc:	2f212f2f 	svccs	0x00212f2f
 c00:	2f2f2f2f 	svccs	0x002f2f2f
 c04:	2f215935 	svccs	0x00215935
 c08:	352f2f2f 	strcc	r2, [pc, #-3887]!	; fffffce1 <SCR_BASE_ADR+0x1fff0fd1>
 c0c:	2f212183 	svccs	0x00212183
 c10:	2f212121 	svccs	0x00212121
 c14:	21212f21 			; <UNDEFINED> instruction: 0x21212f21
 c18:	21212f2f 			; <UNDEFINED> instruction: 0x21212f2f
 c1c:	2f212121 	svccs	0x00212121
 c20:	21212f22 			; <UNDEFINED> instruction: 0x21212f22
 c24:	212f2121 			; <UNDEFINED> instruction: 0x212f2121
 c28:	2e120359 	mrccs	3, 0, r0, cr2, cr9, {2}
 c2c:	214b2f21 	cmpcs	fp, r1, lsr #30
 c30:	212f212f 			; <UNDEFINED> instruction: 0x212f212f
 c34:	03212121 			; <UNDEFINED> instruction: 0x03212121
 c38:	2f212011 	svccs	0x00212011
 c3c:	2f2f2122 	svccs	0x002f2122
 c40:	592f2121 	stmdbpl	pc!, {r0, r5, r8, sp}	; <UNPREDICTABLE>
 c44:	21212121 			; <UNDEFINED> instruction: 0x21212121
 c48:	59212121 	stmdbpl	r1!, {r0, r5, r8, sp}
 c4c:	03212121 			; <UNDEFINED> instruction: 0x03212121
 c50:	2f833c0f 	svccs	0x00833c0f
 c54:	212f2f2f 			; <UNDEFINED> instruction: 0x212f2f2f
 c58:	2f592f2f 	svccs	0x00592f2f
 c5c:	212f2159 			; <UNDEFINED> instruction: 0x212f2159
 c60:	2f59592f 	svccs	0x0059592f
 c64:	222f2159 	eorcs	r2, pc, #1073741846	; 0x40000016
 c68:	21592f59 	cmpcs	r9, r9, asr pc
 c6c:	592f592f 	stmdbpl	pc!, {r0, r1, r2, r3, r5, r8, fp, ip, lr}	; <UNPREDICTABLE>
 c70:	2f580903 	svccs	0x00580903
 c74:	2159212f 	cmpcs	r9, pc, lsr #2
 c78:	21215921 			; <UNDEFINED> instruction: 0x21215921
 c7c:	59212121 	stmdbpl	r1!, {r0, r5, r8, sp}
 c80:	2f59212f 	svccs	0x0059212f
 c84:	83200c03 			; <UNDEFINED> instruction: 0x83200c03
 c88:	212f2159 			; <UNDEFINED> instruction: 0x212f2159
 c8c:	2f2f2159 	svccs	0x002f2159
 c90:	2f212121 	svccs	0x00212121
 c94:	2f212f21 	svccs	0x00212f21
 c98:	212f2f30 			; <UNDEFINED> instruction: 0x212f2f30
 c9c:	21592f22 	cmpcs	r9, r2, lsr #30
 ca0:	592f2f21 	stmdbpl	pc!, {r0, r5, r8, r9, sl, fp, sp}	; <UNPREDICTABLE>
 ca4:	1403592f 	strne	r5, [r3], #-2351	; 0xfffff6d1
 ca8:	21218320 			; <UNDEFINED> instruction: 0x21218320
 cac:	2f2f2121 	svccs	0x002f2121
 cb0:	21302159 	teqcs	r0, r9, asr r1
 cb4:	2f215921 	svccs	0x00215921
 cb8:	21592f30 	cmpcs	r9, r0, lsr pc
 cbc:	2f2f5921 	svccs	0x002f5921
 cc0:	3059212f 	subscc	r2, r9, pc, lsr #2
 cc4:	2f59212f 	svccs	0x0059212f
 cc8:	2121222f 			; <UNDEFINED> instruction: 0x2121222f
 ccc:	5921212f 	stmdbpl	r1!, {r0, r1, r2, r3, r5, r8, sp}
 cd0:	2f2f2f30 	svccs	0x002f2f30
 cd4:	2f2f5921 	svccs	0x002f5921
 cd8:	215a2f21 	cmpcs	sl, r1, lsr #30
 cdc:	21212f21 			; <UNDEFINED> instruction: 0x21212f21
 ce0:	21215921 			; <UNDEFINED> instruction: 0x21215921
 ce4:	592f2159 	stmdbpl	pc!, {r0, r3, r4, r6, r8, sp}	; <UNPREDICTABLE>
 ce8:	0a035921 	beq	d7174 <FLASH_HIDDEN_SIZE+0xc7174>
 cec:	2f2f2fac 	svccs	0x002f2fac
 cf0:	2e09032f 	cdpcs	3, 0, cr0, cr9, cr15, {1}
 cf4:	4b212f4b 	blmi	84ca28 <FLASH_HIDDEN_SIZE+0x83ca28>
 cf8:	2721212f 	strcs	r2, [r1, -pc, lsr #2]!
 cfc:	212f2159 			; <UNDEFINED> instruction: 0x212f2159
 d00:	59212f2f 	stmdbpl	r1!, {r0, r1, r2, r3, r5, r8, r9, sl, fp, sp}
 d04:	31313123 	teqcc	r1, r3, lsr #2
 d08:	832e0903 			; <UNDEFINED> instruction: 0x832e0903
 d0c:	2f212f21 	svccs	0x00212f21
 d10:	2f2f212f 	svccs	0x002f212f
 d14:	4b2f2f2f 	blmi	bcc9d8 <FLASH_HIDDEN_SIZE+0xbbc9d8>
 d18:	21593621 	cmpcs	r9, r1, lsr #12
 d1c:	2f2f212f 	svccs	0x002f212f
 d20:	21285921 			; <UNDEFINED> instruction: 0x21285921
 d24:	2159272f 	cmpcs	r9, pc, lsr #14
 d28:	2f28212f 	svccs	0x0028212f
 d2c:	2f2f2121 	svccs	0x002f2121
 d30:	2f215936 	svccs	0x00215936
 d34:	2e0b0330 	mcrcs	3, 0, r0, cr11, cr0, {1}
 d38:	2f2f2159 	svccs	0x002f2159
 d3c:	2e0b032f 	cdpcs	3, 0, cr0, cr11, cr15, {1}
 d40:	2f2f2f2f 	svccs	0x002f2f2f
 d44:	2f21352f 	svccs	0x0021352f
 d48:	59200903 	stmdbpl	r0!, {r0, r1, r8, fp}
 d4c:	2f212f21 	svccs	0x00212f21
 d50:	5936212f 	ldmdbpl	r6!, {r0, r1, r2, r3, r5, r8, sp}
 d54:	21212121 			; <UNDEFINED> instruction: 0x21212121
 d58:	21212f2f 			; <UNDEFINED> instruction: 0x21212f2f
 d5c:	212f2121 			; <UNDEFINED> instruction: 0x212f2121
 d60:	0321212f 			; <UNDEFINED> instruction: 0x0321212f
 d64:	2f832e09 	svccs	0x00832e09
 d68:	5921302f 	stmdbpl	r1!, {r0, r1, r2, r3, r5, ip, sp}
 d6c:	212f2121 			; <UNDEFINED> instruction: 0x212f2121
 d70:	5921592f 	stmdbpl	r1!, {r0, r1, r2, r3, r5, r8, fp, ip, lr}
 d74:	2f592f2f 	svccs	0x00592f2f
 d78:	212f212f 			; <UNDEFINED> instruction: 0x212f212f
 d7c:	592f2159 	stmdbpl	pc!, {r0, r3, r4, r6, r8, sp}	; <UNPREDICTABLE>
 d80:	0a035921 	beq	d720c <FLASH_HIDDEN_SIZE+0xc720c>
 d84:	2f2159ba 	svccs	0x002159ba
 d88:	2f2f2f2f 	svccs	0x002f2f2f
 d8c:	272f5935 			; <UNDEFINED> instruction: 0x272f5935
 d90:	032f2159 			; <UNDEFINED> instruction: 0x032f2159
 d94:	27592e0c 	ldrbcs	r2, [r9, -ip, lsl #28]
 d98:	59352f2f 	ldmdbpl	r5!, {r0, r1, r2, r3, r5, r8, r9, sl, fp, sp}
 d9c:	2f2f2f21 	svccs	0x002f2f21
 da0:	21592721 	cmpcs	r9, r1, lsr #14
 da4:	2f2f2f2f 	svccs	0x002f2f2f
 da8:	59352f2f 	ldmdbpl	r5!, {r0, r1, r2, r3, r5, r8, r9, sl, fp, sp}
 dac:	2f2f2f21 	svccs	0x002f2f21
 db0:	032f2f2f 			; <UNDEFINED> instruction: 0x032f2f2f
 db4:	032e7bf1 			; <UNDEFINED> instruction: 0x032e7bf1
 db8:	352e00c0 	strcc	r0, [lr, #-192]!	; 0xffffff40
 dbc:	2e029303 	cdpcs	3, 0, cr9, cr2, cr3, {0}
 dc0:	032e3403 			; <UNDEFINED> instruction: 0x032e3403
 dc4:	02022e1a 	andeq	r2, r2, #416	; 0x1a0
 dc8:	Address 0x0000000000000dc8 is out of bounds.


Disassembly of section .debug_info:

00000000 <.debug_info>:
   0:	00000022 	andeq	r0, r0, r2, lsr #32
   4:	00000002 	andeq	r0, r0, r2
   8:	01040000 	mrseq	r0, (UNDEF: 4)
   c:	00000000 	andeq	r0, r0, r0
  10:	08000134 	stmdaeq	r0, {r2, r4, r5, r8}
  14:	08000570 	stmdaeq	r0, {r4, r5, r6, r8, sl}
  18:	00000000 	andeq	r0, r0, r0
  1c:	0000000c 	andeq	r0, r0, ip
  20:	0000002b 	andeq	r0, r0, fp, lsr #32
  24:	00228001 	eoreq	r8, r2, r1
  28:	00020000 	andeq	r0, r2, r0
  2c:	00000014 	andeq	r0, r0, r4, lsl r0
  30:	015a0104 	cmpeq	sl, r4, lsl #2
  34:	05700000 	ldrbeq	r0, [r0, #-0]!
  38:	0d780800 	ldcleq	8, cr0, [r8, #-0]
  3c:	00370800 	eorseq	r0, r7, r0, lsl #16
  40:	000c0000 	andeq	r0, ip, r0
  44:	002b0000 	eoreq	r0, fp, r0
  48:	80010000 	andhi	r0, r1, r0
  4c:	0000001e 	andeq	r0, r0, lr, lsl r0
  50:	00280002 	eoreq	r0, r8, r2
  54:	01040000 	mrseq	r0, (UNDEF: 4)
  58:	00000392 	muleq	r0, r2, r3
  5c:	00000000 	andeq	r0, r0, r0
  60:	00000042 	andeq	r0, r0, r2, asr #32
  64:	0000000c 	andeq	r0, r0, ip
  68:	0000002b 	andeq	r0, r0, fp, lsr #32
  6c:	Address 0x000000000000006c is out of bounds.


Disassembly of section .debug_abbrev:

00000000 <.debug_abbrev>:
   0:	10001101 	andne	r1, r0, r1, lsl #2
   4:	12011106 	andne	r1, r1, #-2147483647	; 0x80000001
   8:	1b0e0301 	blne	380c14 <FLASH_HIDDEN_SIZE+0x370c14>
   c:	130e250e 	movwne	r2, #58638	; 0xe50e
  10:	00000005 	andeq	r0, r0, r5
  14:	10001101 	andne	r1, r0, r1, lsl #2
  18:	12011106 	andne	r1, r1, #-2147483647	; 0x80000001
  1c:	1b0e0301 	blne	380c28 <FLASH_HIDDEN_SIZE+0x370c28>
  20:	130e250e 	movwne	r2, #58638	; 0xe50e
  24:	00000005 	andeq	r0, r0, r5
  28:	10001101 	andne	r1, r0, r1, lsl #2
  2c:	03065506 	movweq	r5, #25862	; 0x6506
  30:	250e1b0e 	strcs	r1, [lr, #-2830]	; 0xfffff4f2
  34:	0005130e 	andeq	r1, r5, lr, lsl #6
	...

Disassembly of section .debug_aranges:

00000000 <.debug_aranges>:
   0:	0000001c 	andeq	r0, r0, ip, lsl r0
   4:	00000002 	andeq	r0, r0, r2
   8:	00040000 	andeq	r0, r4, r0
   c:	00000000 	andeq	r0, r0, r0
  10:	08000134 	stmdaeq	r0, {r2, r4, r5, r8}
  14:	0000043c 	andeq	r0, r0, ip, lsr r4
	...
  20:	0000001c 	andeq	r0, r0, ip, lsl r0
  24:	00260002 	eoreq	r0, r6, r2
  28:	00040000 	andeq	r0, r4, r0
  2c:	00000000 	andeq	r0, r0, r0
  30:	08000570 	stmdaeq	r0, {r4, r5, r6, r8, sl}
  34:	00000808 	andeq	r0, r0, r8, lsl #16
	...
  40:	00000024 	andeq	r0, r0, r4, lsr #32
  44:	004c0002 	subeq	r0, ip, r2
  48:	00040000 	andeq	r0, r4, r0
  4c:	00000000 	andeq	r0, r0, r0
  50:	08000d78 	stmdaeq	r0, {r3, r4, r5, r6, r8, sl, fp}
  54:	000011c4 	andeq	r1, r0, r4, asr #3
  58:	08001f3c 	stmdaeq	r0, {r2, r3, r4, r5, r8, r9, sl, fp, ip}
  5c:	00001320 	andeq	r1, r0, r0, lsr #6
	...

Disassembly of section .debug_str:

00000000 <.debug_str>:
   0:	336d7473 	cmncc	sp, #1929379840	; 0x73000000
   4:	62742d32 	rsbsvs	r2, r4, #3200	; 0xc80
   8:	00732e69 	rsbseq	r2, r3, r9, ror #28
   c:	6d6f682f 	stclvs	8, cr6, [pc, #-188]!	; ffffff58 <SCR_BASE_ADR+0x1fff1248>
  10:	616a2f65 	cmnvs	sl, r5, ror #30
  14:	65757163 	ldrbvs	r7, [r5, #-355]!	; 0xfffffe9d
  18:	69672f73 	stmdbvs	r7!, {r0, r1, r4, r5, r6, r8, r9, sl, fp, sp}^
  1c:	62756874 	rsbsvs	r6, r5, #116, 16	; 0x740000
  20:	6d74732f 	ldclvs	3, cr7, [r4, #-188]!	; 0xffffff44
  24:	742d3233 	strtvc	r3, [sp], #-563	; 0xfffffdcd
  28:	47006962 	strmi	r6, [r0, -r2, ror #18]
  2c:	4120554e 			; <UNDEFINED> instruction: 0x4120554e
  30:	2e322053 	mrccs	0, 1, r2, cr2, cr3, {2}
  34:	74003433 	strvc	r3, [r0], #-1075	; 0xfffffbcd
  38:	696d7265 	stmdbvs	sp!, {r0, r2, r5, r6, r9, ip, sp, lr}^
  3c:	2e6c616e 	powcsez	f6, f4, #0.5
  40:	69740073 	ldmdbvs	r4!, {r0, r1, r4, r5, r6}^
  44:	6142796e 	cmpvs	r2, lr, ror #18
  48:	2e636973 			; <UNDEFINED> instruction: 0x2e636973
  4c:	Address 0x000000000000004c is out of bounds.


Disassembly of section .debug_ranges:

00000000 <.debug_ranges>:
   0:	ffffffff 			; <UNDEFINED> instruction: 0xffffffff
   4:	00000000 	andeq	r0, r0, r0
   8:	08000d78 	stmdaeq	r0, {r3, r4, r5, r6, r8, sl, fp}
   c:	08001f3c 	stmdaeq	r0, {r2, r3, r4, r5, r8, r9, sl, fp, ip}
  10:	08001f3c 	stmdaeq	r0, {r2, r3, r4, r5, r8, r9, sl, fp, ip}
  14:	0800325c 	stmdaeq	r0, {r2, r3, r4, r6, r9, ip, sp}
	...
